---
triple:          'arm64-apple-darwin'
binary-path:     '/Users/ec2-user/Library/Developer/Xcode/DerivedData/player-core-dbtyjuvtcxzqcwbusdiasztwmtte/ArchiveIntermediates/AmazonIVSBroadcastFramework/InstallationBuildProductsLocation/Library/Frameworks/AmazonIVSBroadcast.framework/AmazonIVSBroadcast'
relocations:
  - { offset: 0x33, size: 0x8, addend: 0x0, symName: _IVSAmazonIVSBroadcastVersionString, symObjAddr: 0x192510, symBinAddr: 0x1A8DE0, symSize: 0x0 }
  - { offset: 0x67, size: 0x8, addend: 0x0, symName: _IVSAmazonIVSBroadcastVersionNumber, symObjAddr: 0x192548, symBinAddr: 0x1A8E18, symSize: 0x0 }
  - { offset: 0xBC4B02, size: 0x8, addend: 0x0, symName: __ZN6twitch17AsyncHttpResponseD1Ev, symObjAddr: 0x1531B4, symBinAddr: 0x14BC74, symSize: 0x4 }
  - { offset: 0xBCCC83, size: 0x8, addend: 0x0, symName: __ZN6twitch17AsyncHttpResponse4readENSt3__18functionIFvPKhmbEEENS2_IFviRKNS1_12basic_stringIcNS1_11char_traitsIcEENS1_9allocatorIcEEEEEEE, symObjAddr: 0x15320C, symBinAddr: 0x14BCCC, symSize: 0x6D8 }
  - { offset: 0xBCFA0E, size: 0x8, addend: 0x0, symName: __ZN6twitch17AsyncHttpResponseD1Ev, symObjAddr: 0x1531B4, symBinAddr: 0x14BC74, symSize: 0x4 }
  - { offset: 0xBCFA32, size: 0x8, addend: 0x0, symName: __ZN6twitch17AsyncHttpResponseD1Ev, symObjAddr: 0x1531B4, symBinAddr: 0x14BC74, symSize: 0x4 }
  - { offset: 0xBCFA3D, size: 0x8, addend: 0x0, symName: __ZN6twitch17AsyncHttpResponseD2Ev, symObjAddr: 0x154C60, symBinAddr: 0x14D594, symSize: 0x54 }
  - { offset: 0xBCFB5C, size: 0x8, addend: 0x0, symName: __ZN6twitch17AsyncHttpResponseD0Ev, symObjAddr: 0x1531B8, symBinAddr: 0x14BC78, symSize: 0x14 }
  - { offset: 0xBCFBC7, size: 0x8, addend: 0x0, symName: __ZNK6twitch17AsyncHttpResponse9getHeaderERKNSt3__112basic_stringIcNS1_11char_traitsIcEENS1_9allocatorIcEEEE, symObjAddr: 0x1531CC, symBinAddr: 0x14BC8C, symSize: 0x10 }
  - { offset: 0xBCFC01, size: 0x8, addend: 0x0, symName: __ZNK6twitch17AsyncHttpResponse9getHeaderERKNSt3__112basic_stringIcNS1_11char_traitsIcEENS1_9allocatorIcEEEE, symObjAddr: 0x1531CC, symBinAddr: 0x14BC8C, symSize: 0x10 }
  - { offset: 0xBCFC2A, size: 0x8, addend: 0x0, symName: __ZNK6twitch17AsyncHttpResponse9getStatusEv, symObjAddr: 0x1531DC, symBinAddr: 0x14BC9C, symSize: 0x10 }
  - { offset: 0xBCFC56, size: 0x8, addend: 0x0, symName: __ZNK6twitch17AsyncHttpResponse9getStatusEv, symObjAddr: 0x1531DC, symBinAddr: 0x14BC9C, symSize: 0x10 }
  - { offset: 0xBCFC7F, size: 0x8, addend: 0x0, symName: __ZNK6twitch17AsyncHttpResponse6getUrlEv, symObjAddr: 0x1531EC, symBinAddr: 0x14BCAC, symSize: 0x10 }
  - { offset: 0xBCFCAB, size: 0x8, addend: 0x0, symName: __ZNK6twitch17AsyncHttpResponse6getUrlEv, symObjAddr: 0x1531EC, symBinAddr: 0x14BCAC, symSize: 0x10 }
  - { offset: 0xBCFCD4, size: 0x8, addend: 0x0, symName: __ZN6twitch17AsyncHttpResponse14setReadTimeoutENSt3__16chrono8durationIxNS1_5ratioILl1ELl1EEEEE, symObjAddr: 0x1531FC, symBinAddr: 0x14BCBC, symSize: 0x10 }
  - { offset: 0xBCFD0E, size: 0x8, addend: 0x0, symName: __ZN6twitch17AsyncHttpResponse14setReadTimeoutENSt3__16chrono8durationIxNS1_5ratioILl1ELl1EEEEE, symObjAddr: 0x1531FC, symBinAddr: 0x14BCBC, symSize: 0x10 }
  - { offset: 0xBD0E1D, size: 0x8, addend: 0x0, symName: '__ZNSt3__18functionIFviRKNS_12basic_stringIcNS_11char_traitsIcEENS_9allocatorIcEEEEEEC1IZN6twitch17AsyncHttpResponse4readENS0_IFvPKhmbEEESA_E3$_0vEET_', symObjAddr: 0x1538E4, symBinAddr: 0x14C3A4, symSize: 0xA0 }
  - { offset: 0xBD1674, size: 0x8, addend: 0x0, symName: '__ZNSt3__110__function6__funcIZN6twitch17AsyncHttpResponse4readENS_8functionIFvPKhmbEEENS4_IFviRKNS_12basic_stringIcNS_11char_traitsIcEENS_9allocatorIcEEEEEEEE3$_0NSC_ISJ_EESH_ED1Ev', symObjAddr: 0x153984, symBinAddr: 0x14C444, symSize: 0x74 }
  - { offset: 0xBD18C6, size: 0x8, addend: 0x0, symName: '__ZNSt3__110__function6__funcIZN6twitch17AsyncHttpResponse4readENS_8functionIFvPKhmbEEENS4_IFviRKNS_12basic_stringIcNS_11char_traitsIcEENS_9allocatorIcEEEEEEEE3$_0NSC_ISJ_EESH_ED0Ev', symObjAddr: 0x1539F8, symBinAddr: 0x14C4B8, symSize: 0x74 }
  - { offset: 0xBD1C98, size: 0x8, addend: 0x0, symName: '__ZNKSt3__110__function6__funcIZN6twitch17AsyncHttpResponse4readENS_8functionIFvPKhmbEEENS4_IFviRKNS_12basic_stringIcNS_11char_traitsIcEENS_9allocatorIcEEEEEEEE3$_0NSC_ISJ_EESH_E7__cloneEv', symObjAddr: 0x153A6C, symBinAddr: 0x14C52C, symSize: 0x40 }
  - { offset: 0xBD211B, size: 0x8, addend: 0x0, symName: '__ZNKSt3__110__function6__funcIZN6twitch17AsyncHttpResponse4readENS_8functionIFvPKhmbEEENS4_IFviRKNS_12basic_stringIcNS_11char_traitsIcEENS_9allocatorIcEEEEEEEE3$_0NSC_ISJ_EESH_E7__cloneEPNS0_6__baseISH_EE', symObjAddr: 0x153AAC, symBinAddr: 0x14C56C, symSize: 0x1C }
  - { offset: 0xBD227E, size: 0x8, addend: 0x0, symName: '__ZNSt3__110__function6__funcIZN6twitch17AsyncHttpResponse4readENS_8functionIFvPKhmbEEENS4_IFviRKNS_12basic_stringIcNS_11char_traitsIcEENS_9allocatorIcEEEEEEEE3$_0NSC_ISJ_EESH_E7destroyEv', symObjAddr: 0x153AC8, symBinAddr: 0x14C588, symSize: 0x8 }
  - { offset: 0xBD23D9, size: 0x8, addend: 0x0, symName: '__ZNSt3__110__function6__funcIZN6twitch17AsyncHttpResponse4readENS_8functionIFvPKhmbEEENS4_IFviRKNS_12basic_stringIcNS_11char_traitsIcEENS_9allocatorIcEEEEEEEE3$_0NSC_ISJ_EESH_E18destroy_deallocateEv', symObjAddr: 0x153AD0, symBinAddr: 0x14C590, symSize: 0x28 }
  - { offset: 0xBD2AFE, size: 0x8, addend: 0x0, symName: '__ZNSt3__110__function6__funcIZN6twitch17AsyncHttpResponse4readENS_8functionIFvPKhmbEEENS4_IFviRKNS_12basic_stringIcNS_11char_traitsIcEENS_9allocatorIcEEEEEEEE3$_0NSC_ISJ_EESH_EclEOiSG_', symObjAddr: 0x153AF8, symBinAddr: 0x14C5B8, symSize: 0x1F8 }
  - { offset: 0xBD3621, size: 0x8, addend: 0x0, symName: '__ZNSt3__110__function6__funcIZZN6twitch17AsyncHttpResponse4readENS_8functionIFvPKhmbEEENS4_IFviRKNS_12basic_stringIcNS_11char_traitsIcEENS_9allocatorIcEEEEEEEENK3$_0clEiSG_EUlvE_NSC_ISK_EEFvvEED1Ev', symObjAddr: 0x153CF0, symBinAddr: 0x14C7B0, symSize: 0x6C }
  - { offset: 0xBD3917, size: 0x8, addend: 0x0, symName: '__ZNSt3__110__function6__funcIZZN6twitch17AsyncHttpResponse4readENS_8functionIFvPKhmbEEENS4_IFviRKNS_12basic_stringIcNS_11char_traitsIcEENS_9allocatorIcEEEEEEEENK3$_0clEiSG_EUlvE_NSC_ISK_EEFvvEED0Ev', symObjAddr: 0x153D5C, symBinAddr: 0x14C81C, symSize: 0x6C }
  - { offset: 0xBD3D8D, size: 0x8, addend: 0x0, symName: '__ZNKSt3__110__function6__funcIZZN6twitch17AsyncHttpResponse4readENS_8functionIFvPKhmbEEENS4_IFviRKNS_12basic_stringIcNS_11char_traitsIcEENS_9allocatorIcEEEEEEEENK3$_0clEiSG_EUlvE_NSC_ISK_EEFvvEE7__cloneEv', symObjAddr: 0x153DC8, symBinAddr: 0x14C888, symSize: 0x40 }
  - { offset: 0xBD41C3, size: 0x8, addend: 0x0, symName: '__ZNKSt3__110__function6__funcIZZN6twitch17AsyncHttpResponse4readENS_8functionIFvPKhmbEEENS4_IFviRKNS_12basic_stringIcNS_11char_traitsIcEENS_9allocatorIcEEEEEEEENK3$_0clEiSG_EUlvE_NSC_ISK_EEFvvEE7__cloneEPNS0_6__baseISM_EE', symObjAddr: 0x153E08, symBinAddr: 0x14C8C8, symSize: 0x1C }
  - { offset: 0xBD4326, size: 0x8, addend: 0x0, symName: '__ZNSt3__110__function6__funcIZZN6twitch17AsyncHttpResponse4readENS_8functionIFvPKhmbEEENS4_IFviRKNS_12basic_stringIcNS_11char_traitsIcEENS_9allocatorIcEEEEEEEENK3$_0clEiSG_EUlvE_NSC_ISK_EEFvvEE7destroyEv', symObjAddr: 0x153E24, symBinAddr: 0x14C8E4, symSize: 0x8 }
  - { offset: 0xBD44E9, size: 0x8, addend: 0x0, symName: '__ZNSt3__110__function6__funcIZZN6twitch17AsyncHttpResponse4readENS_8functionIFvPKhmbEEENS4_IFviRKNS_12basic_stringIcNS_11char_traitsIcEENS_9allocatorIcEEEEEEEENK3$_0clEiSG_EUlvE_NSC_ISK_EEFvvEE18destroy_deallocateEv', symObjAddr: 0x153E2C, symBinAddr: 0x14C8EC, symSize: 0x28 }
  - { offset: 0xBD46A1, size: 0x8, addend: 0x0, symName: '__ZNSt3__110__function6__funcIZZN6twitch17AsyncHttpResponse4readENS_8functionIFvPKhmbEEENS4_IFviRKNS_12basic_stringIcNS_11char_traitsIcEENS_9allocatorIcEEEEEEEENK3$_0clEiSG_EUlvE_NSC_ISK_EEFvvEEclEv', symObjAddr: 0x153E54, symBinAddr: 0x14C914, symSize: 0x44 }
  - { offset: 0xBD4889, size: 0x8, addend: 0x0, symName: '__ZNSt3__110__function6__funcIZN6twitch17AsyncHttpResponse4readENS_8functionIFvPKhmbEEENS4_IFviRKNS_12basic_stringIcNS_11char_traitsIcEENS_9allocatorIcEEEEEEEE3$_2NSC_ISJ_EEFvvEED1Ev', symObjAddr: 0x154024, symBinAddr: 0x14C958, symSize: 0xAC }
  - { offset: 0xBD4BAE, size: 0x8, addend: 0x0, symName: '__ZNSt3__110__function6__funcIZN6twitch17AsyncHttpResponse4readENS_8functionIFvPKhmbEEENS4_IFviRKNS_12basic_stringIcNS_11char_traitsIcEENS_9allocatorIcEEEEEEEE3$_2NSC_ISJ_EEFvvEED0Ev', symObjAddr: 0x1540D0, symBinAddr: 0x14CA04, symSize: 0xAC }
  - { offset: 0xBD5051, size: 0x8, addend: 0x0, symName: '__ZNKSt3__110__function6__funcIZN6twitch17AsyncHttpResponse4readENS_8functionIFvPKhmbEEENS4_IFviRKNS_12basic_stringIcNS_11char_traitsIcEENS_9allocatorIcEEEEEEEE3$_2NSC_ISJ_EEFvvEE7__cloneEv', symObjAddr: 0x15417C, symBinAddr: 0x14CAB0, symSize: 0x40 }
  - { offset: 0xBD51FA, size: 0x8, addend: 0x0, symName: '__ZNSt3__122__compressed_pair_elemIZN6twitch17AsyncHttpResponse4readENS_8functionIFvPKhmbEEENS3_IFviRKNS_12basic_stringIcNS_11char_traitsIcEENS_9allocatorIcEEEEEEEE3$_2Li0ELb0EEC2B8nn180100IJRKSI_EJLm0EEEENS_21piecewise_construct_tENS_5tupleIJDpT_EEENS_15__tuple_indicesIJXspT0_EEEE', symObjAddr: 0x154414, symBinAddr: 0x14CD48, symSize: 0x84 }
  - { offset: 0xBD574C, size: 0x8, addend: 0x0, symName: '__ZNKSt3__110__function6__funcIZN6twitch17AsyncHttpResponse4readENS_8functionIFvPKhmbEEENS4_IFviRKNS_12basic_stringIcNS_11char_traitsIcEENS_9allocatorIcEEEEEEEE3$_2NSC_ISJ_EEFvvEE7__cloneEPNS0_6__baseISL_EE', symObjAddr: 0x1541BC, symBinAddr: 0x14CAF0, symSize: 0x1C }
  - { offset: 0xBD58AF, size: 0x8, addend: 0x0, symName: '__ZNSt3__110__function6__funcIZN6twitch17AsyncHttpResponse4readENS_8functionIFvPKhmbEEENS4_IFviRKNS_12basic_stringIcNS_11char_traitsIcEENS_9allocatorIcEEEEEEEE3$_2NSC_ISJ_EEFvvEE7destroyEv', symObjAddr: 0x1541D8, symBinAddr: 0x14CB0C, symSize: 0x8 }
  - { offset: 0xBD58E6, size: 0x8, addend: 0x0, symName: '__ZNSt3__110__function12__alloc_funcIZN6twitch17AsyncHttpResponse4readENS_8functionIFvPKhmbEEENS4_IFviRKNS_12basic_stringIcNS_11char_traitsIcEENS_9allocatorIcEEEEEEEE3$_2NSC_ISJ_EEFvvEE7destroyB8nn180100Ev', symObjAddr: 0x15437C, symBinAddr: 0x14CCB0, symSize: 0x98 }
  - { offset: 0xBD5BED, size: 0x8, addend: 0x0, symName: '__ZNSt3__110__function6__funcIZN6twitch17AsyncHttpResponse4readENS_8functionIFvPKhmbEEENS4_IFviRKNS_12basic_stringIcNS_11char_traitsIcEENS_9allocatorIcEEEEEEEE3$_2NSC_ISJ_EEFvvEE18destroy_deallocateEv', symObjAddr: 0x1541E0, symBinAddr: 0x14CB14, symSize: 0x28 }
  - { offset: 0xBD5D43, size: 0x8, addend: 0x0, symName: '__ZNSt3__110__function6__funcIZN6twitch17AsyncHttpResponse4readENS_8functionIFvPKhmbEEENS4_IFviRKNS_12basic_stringIcNS_11char_traitsIcEENS_9allocatorIcEEEEEEEE3$_2NSC_ISJ_EEFvvEEclEv', symObjAddr: 0x154208, symBinAddr: 0x14CB3C, symSize: 0x174 }
  - { offset: 0xBD641F, size: 0x8, addend: 0x0, symName: '__ZNSt3__110__function6__funcIZN6twitch17AsyncHttpResponse4readENS_8functionIFvPKhmbEEENS4_IFviRKNS_12basic_stringIcNS_11char_traitsIcEENS_9allocatorIcEEEEEEEE3$_1NSC_ISJ_EES7_ED1Ev', symObjAddr: 0x154498, symBinAddr: 0x14CDCC, symSize: 0x7C }
  - { offset: 0xBD669F, size: 0x8, addend: 0x0, symName: '__ZNSt3__110__function6__funcIZN6twitch17AsyncHttpResponse4readENS_8functionIFvPKhmbEEENS4_IFviRKNS_12basic_stringIcNS_11char_traitsIcEENS_9allocatorIcEEEEEEEE3$_1NSC_ISJ_EES7_ED0Ev', symObjAddr: 0x154514, symBinAddr: 0x14CE48, symSize: 0x7C }
  - { offset: 0xBD6A9D, size: 0x8, addend: 0x0, symName: '__ZNKSt3__110__function6__funcIZN6twitch17AsyncHttpResponse4readENS_8functionIFvPKhmbEEENS4_IFviRKNS_12basic_stringIcNS_11char_traitsIcEENS_9allocatorIcEEEEEEEE3$_1NSC_ISJ_EES7_E7__cloneEv', symObjAddr: 0x154590, symBinAddr: 0x14CEC4, symSize: 0x40 }
  - { offset: 0xBD6C46, size: 0x8, addend: 0x0, symName: '__ZNSt3__122__compressed_pair_elemIZN6twitch17AsyncHttpResponse4readENS_8functionIFvPKhmbEEENS3_IFviRKNS_12basic_stringIcNS_11char_traitsIcEENS_9allocatorIcEEEEEEEE3$_1Li0ELb0EEC2B8nn180100IJRKSI_EJLm0EEEENS_21piecewise_construct_tENS_5tupleIJDpT_EEENS_15__tuple_indicesIJXspT0_EEEE', symObjAddr: 0x154BE8, symBinAddr: 0x14D51C, symSize: 0x78 }
  - { offset: 0xBD70C2, size: 0x8, addend: 0x0, symName: '__ZNKSt3__110__function6__funcIZN6twitch17AsyncHttpResponse4readENS_8functionIFvPKhmbEEENS4_IFviRKNS_12basic_stringIcNS_11char_traitsIcEENS_9allocatorIcEEEEEEEE3$_1NSC_ISJ_EES7_E7__cloneEPNS0_6__baseIS7_EE', symObjAddr: 0x1545D0, symBinAddr: 0x14CF04, symSize: 0x1C }
  - { offset: 0xBD7225, size: 0x8, addend: 0x0, symName: '__ZNSt3__110__function6__funcIZN6twitch17AsyncHttpResponse4readENS_8functionIFvPKhmbEEENS4_IFviRKNS_12basic_stringIcNS_11char_traitsIcEENS_9allocatorIcEEEEEEEE3$_1NSC_ISJ_EES7_E7destroyEv', symObjAddr: 0x1545EC, symBinAddr: 0x14CF20, symSize: 0x8 }
  - { offset: 0xBD725C, size: 0x8, addend: 0x0, symName: '__ZNSt3__110__function12__alloc_funcIZN6twitch17AsyncHttpResponse4readENS_8functionIFvPKhmbEEENS4_IFviRKNS_12basic_stringIcNS_11char_traitsIcEENS_9allocatorIcEEEEEEEE3$_1NSC_ISJ_EES7_E7destroyB8nn180100Ev', symObjAddr: 0x154B74, symBinAddr: 0x14D4A8, symSize: 0x74 }
  - { offset: 0xBD7490, size: 0x8, addend: 0x0, symName: '__ZNSt3__110__function6__funcIZN6twitch17AsyncHttpResponse4readENS_8functionIFvPKhmbEEENS4_IFviRKNS_12basic_stringIcNS_11char_traitsIcEENS_9allocatorIcEEEEEEEE3$_1NSC_ISJ_EES7_E18destroy_deallocateEv', symObjAddr: 0x1545F4, symBinAddr: 0x14CF28, symSize: 0x28 }
  - { offset: 0xBD8030, size: 0x8, addend: 0x0, symName: '__ZNSt3__110__function6__funcIZN6twitch17AsyncHttpResponse4readENS_8functionIFvPKhmbEEENS4_IFviRKNS_12basic_stringIcNS_11char_traitsIcEENS_9allocatorIcEEEEEEEE3$_1NSC_ISJ_EES7_EclEOS6_OmOb', symObjAddr: 0x15461C, symBinAddr: 0x14CF50, symSize: 0x300 }
  - { offset: 0xBD9237, size: 0x8, addend: 0x0, symName: '__ZNSt3__110__function6__funcIZZN6twitch17AsyncHttpResponse4readENS_8functionIFvPKhmbEEENS4_IFviRKNS_12basic_stringIcNS_11char_traitsIcEENS_9allocatorIcEEEEEEEEN3$_1clES6_mbEUlvE_NSC_ISK_EEFvvEED1Ev', symObjAddr: 0x15491C, symBinAddr: 0x14D250, symSize: 0x64 }
  - { offset: 0xBD9419, size: 0x8, addend: 0x0, symName: '__ZNSt3__110__function6__funcIZZN6twitch17AsyncHttpResponse4readENS_8functionIFvPKhmbEEENS4_IFviRKNS_12basic_stringIcNS_11char_traitsIcEENS_9allocatorIcEEEEEEEEN3$_1clES6_mbEUlvE_NSC_ISK_EEFvvEED0Ev', symObjAddr: 0x154980, symBinAddr: 0x14D2B4, symSize: 0x64 }
  - { offset: 0xBD980A, size: 0x8, addend: 0x0, symName: '__ZNKSt3__110__function6__funcIZZN6twitch17AsyncHttpResponse4readENS_8functionIFvPKhmbEEENS4_IFviRKNS_12basic_stringIcNS_11char_traitsIcEENS_9allocatorIcEEEEEEEEN3$_1clES6_mbEUlvE_NSC_ISK_EEFvvEE7__cloneEv', symObjAddr: 0x1549E4, symBinAddr: 0x14D318, symSize: 0x6C }
  - { offset: 0xBD9CC1, size: 0x8, addend: 0x0, symName: '__ZNKSt3__110__function6__funcIZZN6twitch17AsyncHttpResponse4readENS_8functionIFvPKhmbEEENS4_IFviRKNS_12basic_stringIcNS_11char_traitsIcEENS_9allocatorIcEEEEEEEEN3$_1clES6_mbEUlvE_NSC_ISK_EEFvvEE7__cloneEPNS0_6__baseISM_EE', symObjAddr: 0x154A50, symBinAddr: 0x14D384, symSize: 0x58 }
  - { offset: 0xBD9FEE, size: 0x8, addend: 0x0, symName: '__ZNSt3__110__function6__funcIZZN6twitch17AsyncHttpResponse4readENS_8functionIFvPKhmbEEENS4_IFviRKNS_12basic_stringIcNS_11char_traitsIcEENS_9allocatorIcEEEEEEEEN3$_1clES6_mbEUlvE_NSC_ISK_EEFvvEE7destroyEv', symObjAddr: 0x154AA8, symBinAddr: 0x14D3DC, symSize: 0x5C }
  - { offset: 0xBDA1C1, size: 0x8, addend: 0x0, symName: '__ZNSt3__110__function6__funcIZZN6twitch17AsyncHttpResponse4readENS_8functionIFvPKhmbEEENS4_IFviRKNS_12basic_stringIcNS_11char_traitsIcEENS_9allocatorIcEEEEEEEEN3$_1clES6_mbEUlvE_NSC_ISK_EEFvvEE18destroy_deallocateEv', symObjAddr: 0x154B04, symBinAddr: 0x14D438, symSize: 0x58 }
  - { offset: 0xBDA4B5, size: 0x8, addend: 0x0, symName: '__ZNSt3__110__function6__funcIZZN6twitch17AsyncHttpResponse4readENS_8functionIFvPKhmbEEENS4_IFviRKNS_12basic_stringIcNS_11char_traitsIcEENS_9allocatorIcEEEEEEEEN3$_1clES6_mbEUlvE_NSC_ISK_EEFvvEEclEv', symObjAddr: 0x154B5C, symBinAddr: 0x14D490, symSize: 0x18 }
  - { offset: 0xBDA4E1, size: 0x8, addend: 0x0, symName: '__ZNSt3__110__function6__funcIZZN6twitch17AsyncHttpResponse4readENS_8functionIFvPKhmbEEENS4_IFviRKNS_12basic_stringIcNS_11char_traitsIcEENS_9allocatorIcEEEEEEEEN3$_1clES6_mbEUlvE_NSC_ISK_EEFvvEEclEv', symObjAddr: 0x154B5C, symBinAddr: 0x14D490, symSize: 0x18 }
  - { offset: 0xBDA501, size: 0x8, addend: 0x0, symName: '__ZNSt3__110__function6__funcIZZN6twitch17AsyncHttpResponse4readENS_8functionIFvPKhmbEEENS4_IFviRKNS_12basic_stringIcNS_11char_traitsIcEENS_9allocatorIcEEEEEEEEN3$_1clES6_mbEUlvE_NSC_ISK_EEFvvEEclEv', symObjAddr: 0x154B5C, symBinAddr: 0x14D490, symSize: 0x18 }
  - { offset: 0xBDA520, size: 0x8, addend: 0x0, symName: '__ZNSt3__110__function6__funcIZZN6twitch17AsyncHttpResponse4readENS_8functionIFvPKhmbEEENS4_IFviRKNS_12basic_stringIcNS_11char_traitsIcEENS_9allocatorIcEEEEEEEEN3$_1clES6_mbEUlvE_NSC_ISK_EEFvvEEclEv', symObjAddr: 0x154B5C, symBinAddr: 0x14D490, symSize: 0x18 }
  - { offset: 0xBDA540, size: 0x8, addend: 0x0, symName: '__ZNSt3__110__function6__funcIZZN6twitch17AsyncHttpResponse4readENS_8functionIFvPKhmbEEENS4_IFviRKNS_12basic_stringIcNS_11char_traitsIcEENS_9allocatorIcEEEEEEEEN3$_1clES6_mbEUlvE_NSC_ISK_EEFvvEEclEv', symObjAddr: 0x154B5C, symBinAddr: 0x14D490, symSize: 0x18 }
  - { offset: 0xBDA560, size: 0x8, addend: 0x0, symName: '__ZNSt3__110__function6__funcIZZN6twitch17AsyncHttpResponse4readENS_8functionIFvPKhmbEEENS4_IFviRKNS_12basic_stringIcNS_11char_traitsIcEENS_9allocatorIcEEEEEEEEN3$_1clES6_mbEUlvE_NSC_ISK_EEFvvEEclEv', symObjAddr: 0x154B5C, symBinAddr: 0x14D490, symSize: 0x18 }
  - { offset: 0x30B71A, size: 0x8, addend: 0x0, symName: '-[IVSImageDeviceFrame initWithPictureSample:]', symObjAddr: 0x412D8, symBinAddr: 0x42480, symSize: 0x234 }
  - { offset: 0x30D158, size: 0x8, addend: 0x0, symName: '-[IVSImageDeviceFrame initWithPictureSample:]', symObjAddr: 0x412D8, symBinAddr: 0x42480, symSize: 0x234 }
  - { offset: 0x30DA17, size: 0x8, addend: 0x0, symName: '-[IVSImageDeviceFrame size]', symObjAddr: 0x4150C, symBinAddr: 0x426B4, symSize: 0x8 }
  - { offset: 0x30DA4C, size: 0x8, addend: 0x0, symName: '-[IVSImageDeviceFrame embeddedMessages]', symObjAddr: 0x41514, symBinAddr: 0x426BC, symSize: 0x8 }
  - { offset: 0x30DA83, size: 0x8, addend: 0x0, symName: '-[IVSImageDeviceFrame .cxx_destruct]', symObjAddr: 0x4151C, symBinAddr: 0x426C4, symSize: 0xC }
  - { offset: 0xD7B7EB, size: 0x8, addend: 0x0, symName: __ZN6twitch4Uuid6randomEv, symObjAddr: 0x190DC0, symBinAddr: 0x187A18, symSize: 0x1B4 }
  - { offset: 0xD7CDDD, size: 0x8, addend: 0x0, symName: __ZN6twitch4Uuid6randomEv, symObjAddr: 0x190DC0, symBinAddr: 0x187A18, symSize: 0x1B4 }
  - { offset: 0xD7D542, size: 0x8, addend: 0x0, symName: __ZNK6twitch4Uuid8toStringEv, symObjAddr: 0x190F74, symBinAddr: 0x187BCC, symSize: 0xE0 }
  - { offset: 0xD7D5FA, size: 0x8, addend: 0x0, symName: __ZNK6twitch4Uuid8toStringEv, symObjAddr: 0x190F74, symBinAddr: 0x187BCC, symSize: 0xE0 }
  - { offset: 0x3F67DF, size: 0x8, addend: 0x0, symName: '-[IVSBroadcastURLSessionDelegate URLSession:task:didCompleteWithError:]', symObjAddr: 0x5E09C, symBinAddr: 0x5E26C, symSize: 0x23C }
  - { offset: 0x3FC82A, size: 0x8, addend: 0x0, symName: '-[IVSBroadcastURLSessionDelegate URLSession:task:didCompleteWithError:]', symObjAddr: 0x5E09C, symBinAddr: 0x5E26C, symSize: 0x23C }
  - { offset: 0x3FCE6F, size: 0x8, addend: 0x0, symName: '-[IVSBroadcastURLSessionDelegate URLSession:dataTask:didReceiveResponse:completionHandler:]', symObjAddr: 0x5E2D8, symBinAddr: 0x5E4A8, symSize: 0x3DC }
  - { offset: 0x3FCE7A, size: 0x8, addend: 0x0, symName: __ZNSt3__112__hash_tableINS_17__hash_value_typeImNS_10shared_ptrIN6twitch16CocoaHttpRequestEEEEENS_22__unordered_map_hasherImS6_NS_4hashImEENS_8equal_toImEELb1EEENS_21__unordered_map_equalImS6_SB_S9_Lb1EEENS_9allocatorIS6_EEE4findImEENS_15__hash_iteratorIPNS_11__hash_nodeIS6_PvEEEERKT_, symObjAddr: 0x5EB1C, symBinAddr: 0x5ECEC, symSize: 0xB0 }
  - { offset: 0x3FCED3, size: 0x8, addend: 0x0, symName: __ZNSt3__112__hash_tableINS_17__hash_value_typeImNS_10shared_ptrIN6twitch16CocoaHttpRequestEEEEENS_22__unordered_map_hasherImS6_NS_4hashImEENS_8equal_toImEELb1EEENS_21__unordered_map_equalImS6_SB_S9_Lb1EEENS_9allocatorIS6_EEE4findImEENS_15__hash_iteratorIPNS_11__hash_nodeIS6_PvEEEERKT_, symObjAddr: 0x5EB1C, symBinAddr: 0x5ECEC, symSize: 0xB0 }
  - { offset: 0x3FCEF1, size: 0x8, addend: 0x0, symName: __ZNSt3__112__hash_tableINS_17__hash_value_typeImNS_10shared_ptrIN6twitch16CocoaHttpRequestEEEEENS_22__unordered_map_hasherImS6_NS_4hashImEENS_8equal_toImEELb1EEENS_21__unordered_map_equalImS6_SB_S9_Lb1EEENS_9allocatorIS6_EEE4findImEENS_15__hash_iteratorIPNS_11__hash_nodeIS6_PvEEEERKT_, symObjAddr: 0x5EB1C, symBinAddr: 0x5ECEC, symSize: 0xB0 }
  - { offset: 0x3FD01A, size: 0x8, addend: 0x0, symName: __ZNSt3__112__hash_tableINS_17__hash_value_typeImNS_10shared_ptrIN6twitch16CocoaHttpRequestEEEEENS_22__unordered_map_hasherImS6_NS_4hashImEENS_8equal_toImEELb1EEENS_21__unordered_map_equalImS6_SB_S9_Lb1EEENS_9allocatorIS6_EEE14__erase_uniqueImEEmRKT_, symObjAddr: 0x5EBCC, symBinAddr: 0x5ED9C, symSize: 0x164 }
  - { offset: 0x3FD975, size: 0x8, addend: 0x0, symName: '-[IVSBroadcastURLSessionDelegate URLSession:dataTask:didReceiveResponse:completionHandler:]', symObjAddr: 0x5E2D8, symBinAddr: 0x5E4A8, symSize: 0x3DC }
  - { offset: 0x3FE9B2, size: 0x8, addend: 0x0, symName: '-[IVSBroadcastURLSessionDelegate URLSession:dataTask:didReceiveData:]', symObjAddr: 0x5E6B4, symBinAddr: 0x5E884, symSize: 0x1B8 }
  - { offset: 0x3FF1C1, size: 0x8, addend: 0x0, symName: '-[IVSBroadcastURLSessionDelegate URLSession:task:willPerformHTTPRedirection:newRequest:completionHandler:]', symObjAddr: 0x5E86C, symBinAddr: 0x5EA3C, symSize: 0x228 }
  - { offset: 0x3FF950, size: 0x8, addend: 0x0, symName: '-[IVSBroadcastURLSessionDelegate .cxx_destruct]', symObjAddr: 0x5EA94, symBinAddr: 0x5EC64, symSize: 0x70 }
  - { offset: 0x3FFEB9, size: 0x8, addend: 0x0, symName: '-[IVSBroadcastURLSessionDelegate .cxx_construct]', symObjAddr: 0x5EB04, symBinAddr: 0x5ECD4, symSize: 0x18 }
  - { offset: 0x3FFEF1, size: 0x8, addend: 0x0, symName: '-[IVSBroadcastURLSessionDelegate .cxx_construct]', symObjAddr: 0x5EB04, symBinAddr: 0x5ECD4, symSize: 0x18 }
  - { offset: 0x3FFF10, size: 0x8, addend: 0x0, symName: '-[IVSBroadcastURLSessionDelegate .cxx_construct]', symObjAddr: 0x5EB04, symBinAddr: 0x5ECD4, symSize: 0x18 }
  - { offset: 0x3FFF30, size: 0x8, addend: 0x0, symName: '-[IVSBroadcastURLSessionDelegate .cxx_construct]', symObjAddr: 0x5EB04, symBinAddr: 0x5ECD4, symSize: 0x18 }
  - { offset: 0x3FFF50, size: 0x8, addend: 0x0, symName: '-[IVSBroadcastURLSessionDelegate .cxx_construct]', symObjAddr: 0x5EB04, symBinAddr: 0x5ECD4, symSize: 0x18 }
  - { offset: 0x3FFF70, size: 0x8, addend: 0x0, symName: '-[IVSBroadcastURLSessionDelegate .cxx_construct]', symObjAddr: 0x5EB04, symBinAddr: 0x5ECD4, symSize: 0x18 }
  - { offset: 0x3FFF92, size: 0x8, addend: 0x0, symName: '-[IVSBroadcastURLSessionDelegate .cxx_construct]', symObjAddr: 0x5EB04, symBinAddr: 0x5ECD4, symSize: 0x18 }
  - { offset: 0x3FFFB3, size: 0x8, addend: 0x0, symName: '-[IVSBroadcastURLSessionDelegate .cxx_construct]', symObjAddr: 0x5EB04, symBinAddr: 0x5ECD4, symSize: 0x18 }
  - { offset: 0x3FFFD4, size: 0x8, addend: 0x0, symName: '-[IVSBroadcastURLSessionDelegate .cxx_construct]', symObjAddr: 0x5EB04, symBinAddr: 0x5ECD4, symSize: 0x18 }
  - { offset: 0x3FFFF5, size: 0x8, addend: 0x0, symName: '-[IVSBroadcastURLSessionDelegate .cxx_construct]', symObjAddr: 0x5EB04, symBinAddr: 0x5ECD4, symSize: 0x18 }
  - { offset: 0x400155, size: 0x8, addend: 0x0, symName: __ZNSt3__110unique_ptrINS_11__hash_nodeINS_17__hash_value_typeImNS_10shared_ptrIN6twitch16CocoaHttpRequestEEEEEPvEENS_22__hash_node_destructorINS_9allocatorIS9_EEEEE5resetB8nn180100EPS9_, symObjAddr: 0x5EDAC, symBinAddr: 0x5EF7C, symSize: 0x44 }
  - { offset: 0x40038B, size: 0x8, addend: 0x0, symName: '___69-[IVSBroadcastURLSessionDelegate URLSession:dataTask:didReceiveData:]_block_invoke', symObjAddr: 0x5ED30, symBinAddr: 0x5EF00, symSize: 0x58 }
  - { offset: 0x400584, size: 0x8, addend: 0x0, symName: '___copy_helper_block_a8_32c82_ZTSKZ69-[IVSBroadcastURLSessionDelegate URLSession:dataTask:didReceiveData:]E3$_0', symObjAddr: 0x5ED88, symBinAddr: 0x5EF58, symSize: 0x1C }
  - { offset: 0x4005AC, size: 0x8, addend: 0x0, symName: '___copy_helper_block_a8_32c82_ZTSKZ69-[IVSBroadcastURLSessionDelegate URLSession:dataTask:didReceiveData:]E3$_0', symObjAddr: 0x5ED88, symBinAddr: 0x5EF58, symSize: 0x1C }
  - { offset: 0x4005D4, size: 0x8, addend: 0x0, symName: '___copy_helper_block_a8_32c82_ZTSKZ69-[IVSBroadcastURLSessionDelegate URLSession:dataTask:didReceiveData:]E3$_0', symObjAddr: 0x5ED88, symBinAddr: 0x5EF58, symSize: 0x1C }
  - { offset: 0x4005FD, size: 0x8, addend: 0x0, symName: '___copy_helper_block_a8_32c82_ZTSKZ69-[IVSBroadcastURLSessionDelegate URLSession:dataTask:didReceiveData:]E3$_0', symObjAddr: 0x5ED88, symBinAddr: 0x5EF58, symSize: 0x1C }
  - { offset: 0x400626, size: 0x8, addend: 0x0, symName: '___copy_helper_block_a8_32c82_ZTSKZ69-[IVSBroadcastURLSessionDelegate URLSession:dataTask:didReceiveData:]E3$_0', symObjAddr: 0x5ED88, symBinAddr: 0x5EF58, symSize: 0x1C }
  - { offset: 0x4006B0, size: 0x8, addend: 0x0, symName: '___destroy_helper_block_a8_32c82_ZTSKZ69-[IVSBroadcastURLSessionDelegate URLSession:dataTask:didReceiveData:]E3$_0', symObjAddr: 0x5EDA4, symBinAddr: 0x5EF74, symSize: 0x8 }
  - { offset: 0x40077B, size: 0x8, addend: 0x0, symName: __ZNSt3__120__shared_ptr_emplaceIN6twitch17CocoaHttpResponseENS_9allocatorIS2_EEED1Ev, symObjAddr: 0x5EDF0, symBinAddr: 0x5EFC0, symSize: 0x10 }
  - { offset: 0x40079F, size: 0x8, addend: 0x0, symName: __ZNSt3__120__shared_ptr_emplaceIN6twitch17CocoaHttpResponseENS_9allocatorIS2_EEED1Ev, symObjAddr: 0x5EDF0, symBinAddr: 0x5EFC0, symSize: 0x10 }
  - { offset: 0x4007D6, size: 0x8, addend: 0x0, symName: __ZNSt3__120__shared_ptr_emplaceIN6twitch17CocoaHttpResponseENS_9allocatorIS2_EEED0Ev, symObjAddr: 0x5EE00, symBinAddr: 0x5EFD0, symSize: 0x20 }
  - { offset: 0x4008A5, size: 0x8, addend: 0x0, symName: __ZNSt3__120__shared_ptr_emplaceIN6twitch17CocoaHttpResponseENS_9allocatorIS2_EEE16__on_zero_sharedEv, symObjAddr: 0x5EE20, symBinAddr: 0x5EFF0, symSize: 0xC }
  - { offset: 0x4008CF, size: 0x8, addend: 0x0, symName: __ZNSt3__120__shared_ptr_emplaceIN6twitch17CocoaHttpResponseENS_9allocatorIS2_EEE16__on_zero_sharedEv, symObjAddr: 0x5EE20, symBinAddr: 0x5EFF0, symSize: 0xC }
  - { offset: 0x4008EF, size: 0x8, addend: 0x0, symName: __ZNSt3__120__shared_ptr_emplaceIN6twitch17CocoaHttpResponseENS_9allocatorIS2_EEE16__on_zero_sharedEv, symObjAddr: 0x5EE20, symBinAddr: 0x5EFF0, symSize: 0xC }
  - { offset: 0x40090F, size: 0x8, addend: 0x0, symName: __ZNSt3__120__shared_ptr_emplaceIN6twitch17CocoaHttpResponseENS_9allocatorIS2_EEE16__on_zero_sharedEv, symObjAddr: 0x5EE20, symBinAddr: 0x5EFF0, symSize: 0xC }
  - { offset: 0x400998, size: 0x8, addend: 0x0, symName: __ZNSt3__120__shared_ptr_emplaceIN6twitch17CocoaHttpResponseENS_9allocatorIS2_EEE21__on_zero_shared_weakEv, symObjAddr: 0x5EE2C, symBinAddr: 0x5EFFC, symSize: 0x4 }
  - { offset: 0x4009CD, size: 0x8, addend: 0x0, symName: __ZNSt3__120__shared_ptr_emplaceIN6twitch17CocoaHttpResponseENS_9allocatorIS2_EEE21__on_zero_shared_weakEv, symObjAddr: 0x5EE2C, symBinAddr: 0x5EFFC, symSize: 0x4 }
  - { offset: 0x4009F2, size: 0x8, addend: 0x0, symName: __ZNSt3__120__shared_ptr_emplaceIN6twitch17CocoaHttpResponseENS_9allocatorIS2_EEE21__on_zero_shared_weakEv, symObjAddr: 0x5EE2C, symBinAddr: 0x5EFFC, symSize: 0x4 }
  - { offset: 0x400A17, size: 0x8, addend: 0x0, symName: __ZNSt3__120__shared_ptr_emplaceIN6twitch17CocoaHttpResponseENS_9allocatorIS2_EEE21__on_zero_shared_weakEv, symObjAddr: 0x5EE2C, symBinAddr: 0x5EFFC, symSize: 0x4 }
  - { offset: 0x400A48, size: 0x8, addend: 0x0, symName: __ZNSt3__120__shared_ptr_emplaceIN6twitch17CocoaHttpResponseENS_9allocatorIS2_EEE21__on_zero_shared_weakEv, symObjAddr: 0x5EE2C, symBinAddr: 0x5EFFC, symSize: 0x4 }
  - { offset: 0x400A73, size: 0x8, addend: 0x0, symName: __ZNSt3__120__shared_ptr_emplaceIN6twitch17CocoaHttpResponseENS_9allocatorIS2_EEE21__on_zero_shared_weakEv, symObjAddr: 0x5EE2C, symBinAddr: 0x5EFFC, symSize: 0x4 }
  - { offset: 0x429848, size: 0x8, addend: 0x0, symName: '-[IVSBroadcastDeviceInfo init]', symObjAddr: 0x63B54, symBinAddr: 0x63BD4, symSize: 0x1DC }
  - { offset: 0x429B69, size: 0x8, addend: 0x0, symName: '-[IVSBroadcastDeviceInfo init]', symObjAddr: 0x63B54, symBinAddr: 0x63BD4, symSize: 0x1DC }
  - { offset: 0x429BCF, size: 0x8, addend: 0x0, symName: '-[IVSBroadcastDeviceInfo batteryLevel]', symObjAddr: 0x63D30, symBinAddr: 0x63DB0, symSize: 0x4C }
  - { offset: 0x429C02, size: 0x8, addend: 0x0, symName: '-[IVSBroadcastDeviceInfo batteryState]', symObjAddr: 0x63D7C, symBinAddr: 0x63DFC, symSize: 0x44 }
  - { offset: 0x429C35, size: 0x8, addend: 0x0, symName: '-[IVSBroadcastDeviceInfo isCPUComputeDeviceAvailable]', symObjAddr: 0x63DC0, symBinAddr: 0x63E40, symSize: 0x58 }
  - { offset: 0x429C6C, size: 0x8, addend: 0x0, symName: '-[IVSBroadcastDeviceInfo isGPUComputeDeviceAvailable]', symObjAddr: 0x63E18, symBinAddr: 0x63E98, symSize: 0x58 }
  - { offset: 0x429CA3, size: 0x8, addend: 0x0, symName: '-[IVSBroadcastDeviceInfo GPUName]', symObjAddr: 0x63E70, symBinAddr: 0x63EF0, symSize: 0x98 }
  - { offset: 0x429CEA, size: 0x8, addend: 0x0, symName: '-[IVSBroadcastDeviceInfo GPUArchitecture]', symObjAddr: 0x63F08, symBinAddr: 0x63F88, symSize: 0xB0 }
  - { offset: 0x429D31, size: 0x8, addend: 0x0, symName: '-[IVSBroadcastDeviceInfo isLowPowerModeEnabled]', symObjAddr: 0x63FB8, symBinAddr: 0x64038, symSize: 0x44 }
  - { offset: 0x429D64, size: 0x8, addend: 0x0, symName: '-[IVSBroadcastDeviceInfo isNeuralEngineComputeDeviceAvailable]', symObjAddr: 0x63FFC, symBinAddr: 0x6407C, symSize: 0x58 }
  - { offset: 0x429D9B, size: 0x8, addend: 0x0, symName: '-[IVSBroadcastDeviceInfo NeuralEngineTotalCoreCount]', symObjAddr: 0x64054, symBinAddr: 0x640D4, symSize: 0x70 }
  - { offset: 0x429DE2, size: 0x8, addend: 0x0, symName: '-[IVSBroadcastDeviceInfo physicalMemory]', symObjAddr: 0x640C4, symBinAddr: 0x64144, symSize: 0x44 }
  - { offset: 0x429E15, size: 0x8, addend: 0x0, symName: '-[IVSBroadcastDeviceInfo processorCount]', symObjAddr: 0x64108, symBinAddr: 0x64188, symSize: 0x44 }
  - { offset: 0x429E48, size: 0x8, addend: 0x0, symName: '-[IVSBroadcastDeviceInfo thermalState]', symObjAddr: 0x6414C, symBinAddr: 0x641CC, symSize: 0x44 }
  - { offset: 0x429E7B, size: 0x8, addend: 0x0, symName: '-[IVSBroadcastDeviceInfo normalizedThermalState]', symObjAddr: 0x64190, symBinAddr: 0x64210, symSize: 0x38 }
  - { offset: 0x429ED2, size: 0x8, addend: 0x0, symName: '-[IVSBroadcastDeviceInfo availableComputeDevicesWithClass:]', symObjAddr: 0x641C8, symBinAddr: 0x64248, symSize: 0xBC }
  - { offset: 0x429F15, size: 0x8, addend: 0x0, symName: '-[IVSBroadcastDeviceInfo applicationState]', symObjAddr: 0x64284, symBinAddr: 0x64304, symSize: 0x8 }
  - { offset: 0x429F4C, size: 0x8, addend: 0x0, symName: '-[IVSBroadcastDeviceInfo manufacturer]', symObjAddr: 0x6428C, symBinAddr: 0x6430C, symSize: 0x8 }
  - { offset: 0x429F83, size: 0x8, addend: 0x0, symName: '-[IVSBroadcastDeviceInfo model]', symObjAddr: 0x64294, symBinAddr: 0x64314, symSize: 0x8 }
  - { offset: 0x429FBA, size: 0x8, addend: 0x0, symName: '-[IVSBroadcastDeviceInfo neuralEngineTotalCoreCount]', symObjAddr: 0x6429C, symBinAddr: 0x6431C, symSize: 0x8 }
  - { offset: 0x429FF1, size: 0x8, addend: 0x0, symName: '-[IVSBroadcastDeviceInfo OSName]', symObjAddr: 0x642A4, symBinAddr: 0x64324, symSize: 0x8 }
  - { offset: 0x42A028, size: 0x8, addend: 0x0, symName: '-[IVSBroadcastDeviceInfo OSVersion]', symObjAddr: 0x642AC, symBinAddr: 0x6432C, symSize: 0x8 }
  - { offset: 0x42A05F, size: 0x8, addend: 0x0, symName: '-[IVSBroadcastDeviceInfo .cxx_destruct]', symObjAddr: 0x642B4, symBinAddr: 0x64334, symSize: 0x48 }
  - { offset: 0x42A092, size: 0x8, addend: 0x0, symName: '___59-[IVSBroadcastDeviceInfo availableComputeDevicesWithClass:]_block_invoke', symObjAddr: 0x642FC, symBinAddr: 0x6437C, symSize: 0x24 }
  - { offset: 0xBE4789, size: 0x8, addend: 0x0, symName: __ZN9resampler13SincResamplerD1Ev, symObjAddr: 0x155638, symBinAddr: 0x14DF38, symSize: 0x4 }
  - { offset: 0xBE565C, size: 0x8, addend: 0x0, symName: __ZN9resampler13SincResamplerD1Ev, symObjAddr: 0x155638, symBinAddr: 0x14DF38, symSize: 0x4 }
  - { offset: 0xBE5680, size: 0x8, addend: 0x0, symName: __ZN9resampler13SincResamplerD1Ev, symObjAddr: 0x155638, symBinAddr: 0x14DF38, symSize: 0x4 }
  - { offset: 0xBE568B, size: 0x8, addend: 0x0, symName: __ZN9resampler13SincResamplerD2Ev, symObjAddr: 0x1557D0, symBinAddr: 0x14E0D0, symSize: 0x3C }
  - { offset: 0xBE581B, size: 0x8, addend: 0x0, symName: __ZN9resampler13SincResamplerD0Ev, symObjAddr: 0x15563C, symBinAddr: 0x14DF3C, symSize: 0x14 }
  - { offset: 0xBE58EF, size: 0x8, addend: 0x0, symName: __ZN9resampler13SincResampler9readFrameEPf, symObjAddr: 0x155650, symBinAddr: 0x14DF50, symSize: 0x180 }
  - { offset: 0xBE5F59, size: 0x8, addend: 0x0, symName: __ZN9resampler13SincResamplerC2ERKNS_21MultiChannelResampler7BuilderE, symObjAddr: 0x15580C, symBinAddr: 0x14E10C, symSize: 0xA8 }
  - { offset: 0xB466B9, size: 0x8, addend: 0x0, symName: __ZN6twitch14BufferedSocket10flushCacheEv, symObjAddr: 0x145B30, symBinAddr: 0x13EC7C, symSize: 0xD24 }
  - { offset: 0xB496BA, size: 0x8, addend: 0x0, symName: __ZN6twitch14BufferedSocket10flushCacheEv, symObjAddr: 0x145B30, symBinAddr: 0x13EC7C, symSize: 0xD24 }
  - { offset: 0xB4D6F3, size: 0x8, addend: 0x0, symName: '__ZNSt3__110__function6__funcIZN6twitch14BufferedSocket4bindERKNS_10shared_ptrINS2_6SocketEEEE3$_0NS_9allocatorIS9_EEFvRS5_NS5_5StateERKNS2_5ErrorEEED1Ev', symObjAddr: 0x146854, symBinAddr: 0x13F9A0, symSize: 0x4 }
  - { offset: 0xB4D71E, size: 0x8, addend: 0x0, symName: '__ZNSt3__110__function6__funcIZN6twitch14BufferedSocket4bindERKNS_10shared_ptrINS2_6SocketEEEE3$_0NS_9allocatorIS9_EEFvRS5_NS5_5StateERKNS2_5ErrorEEED0Ev', symObjAddr: 0x146858, symBinAddr: 0x13F9A4, symSize: 0x4 }
  - { offset: 0xB4D932, size: 0x8, addend: 0x0, symName: '__ZNKSt3__110__function6__funcIZN6twitch14BufferedSocket4bindERKNS_10shared_ptrINS2_6SocketEEEE3$_0NS_9allocatorIS9_EEFvRS5_NS5_5StateERKNS2_5ErrorEEE7__cloneEv', symObjAddr: 0x14685C, symBinAddr: 0x13F9A8, symSize: 0x34 }
  - { offset: 0xB4DC4D, size: 0x8, addend: 0x0, symName: '__ZNKSt3__110__function6__funcIZN6twitch14BufferedSocket4bindERKNS_10shared_ptrINS2_6SocketEEEE3$_0NS_9allocatorIS9_EEFvRS5_NS5_5StateERKNS2_5ErrorEEE7__cloneEPNS0_6__baseISH_EE', symObjAddr: 0x146890, symBinAddr: 0x13F9DC, symSize: 0x14 }
  - { offset: 0xB4DC86, size: 0x8, addend: 0x0, symName: '__ZNKSt3__110__function6__funcIZN6twitch14BufferedSocket4bindERKNS_10shared_ptrINS2_6SocketEEEE3$_0NS_9allocatorIS9_EEFvRS5_NS5_5StateERKNS2_5ErrorEEE7__cloneEPNS0_6__baseISH_EE', symObjAddr: 0x146890, symBinAddr: 0x13F9DC, symSize: 0x14 }
  - { offset: 0xB4DCB8, size: 0x8, addend: 0x0, symName: '__ZNKSt3__110__function6__funcIZN6twitch14BufferedSocket4bindERKNS_10shared_ptrINS2_6SocketEEEE3$_0NS_9allocatorIS9_EEFvRS5_NS5_5StateERKNS2_5ErrorEEE7__cloneEPNS0_6__baseISH_EE', symObjAddr: 0x146890, symBinAddr: 0x13F9DC, symSize: 0x14 }
  - { offset: 0xB4DCEA, size: 0x8, addend: 0x0, symName: '__ZNKSt3__110__function6__funcIZN6twitch14BufferedSocket4bindERKNS_10shared_ptrINS2_6SocketEEEE3$_0NS_9allocatorIS9_EEFvRS5_NS5_5StateERKNS2_5ErrorEEE7__cloneEPNS0_6__baseISH_EE', symObjAddr: 0x146890, symBinAddr: 0x13F9DC, symSize: 0x14 }
  - { offset: 0xB4DD00, size: 0x8, addend: 0x0, symName: '__ZNKSt3__110__function6__funcIZN6twitch14BufferedSocket4bindERKNS_10shared_ptrINS2_6SocketEEEE3$_0NS_9allocatorIS9_EEFvRS5_NS5_5StateERKNS2_5ErrorEEE7__cloneEPNS0_6__baseISH_EE', symObjAddr: 0x146890, symBinAddr: 0x13F9DC, symSize: 0x14 }
  - { offset: 0xB4DD15, size: 0x8, addend: 0x0, symName: '__ZNKSt3__110__function6__funcIZN6twitch14BufferedSocket4bindERKNS_10shared_ptrINS2_6SocketEEEE3$_0NS_9allocatorIS9_EEFvRS5_NS5_5StateERKNS2_5ErrorEEE7__cloneEPNS0_6__baseISH_EE', symObjAddr: 0x146890, symBinAddr: 0x13F9DC, symSize: 0x14 }
  - { offset: 0xB4DD2A, size: 0x8, addend: 0x0, symName: '__ZNKSt3__110__function6__funcIZN6twitch14BufferedSocket4bindERKNS_10shared_ptrINS2_6SocketEEEE3$_0NS_9allocatorIS9_EEFvRS5_NS5_5StateERKNS2_5ErrorEEE7__cloneEPNS0_6__baseISH_EE', symObjAddr: 0x146890, symBinAddr: 0x13F9DC, symSize: 0x14 }
  - { offset: 0xB4DD3F, size: 0x8, addend: 0x0, symName: '__ZNKSt3__110__function6__funcIZN6twitch14BufferedSocket4bindERKNS_10shared_ptrINS2_6SocketEEEE3$_0NS_9allocatorIS9_EEFvRS5_NS5_5StateERKNS2_5ErrorEEE7__cloneEPNS0_6__baseISH_EE', symObjAddr: 0x146890, symBinAddr: 0x13F9DC, symSize: 0x14 }
  - { offset: 0xB4DD57, size: 0x8, addend: 0x0, symName: '__ZNSt3__110__function6__funcIZN6twitch14BufferedSocket4bindERKNS_10shared_ptrINS2_6SocketEEEE3$_0NS_9allocatorIS9_EEFvRS5_NS5_5StateERKNS2_5ErrorEEE7destroyEv', symObjAddr: 0x1468A4, symBinAddr: 0x13F9F0, symSize: 0x4 }
  - { offset: 0xB4DDAA, size: 0x8, addend: 0x0, symName: '__ZNSt3__110__function6__funcIZN6twitch14BufferedSocket4bindERKNS_10shared_ptrINS2_6SocketEEEE3$_0NS_9allocatorIS9_EEFvRS5_NS5_5StateERKNS2_5ErrorEEE18destroy_deallocateEv', symObjAddr: 0x1468A8, symBinAddr: 0x13F9F4, symSize: 0x4 }
  - { offset: 0xB4DDE1, size: 0x8, addend: 0x0, symName: '__ZNSt3__110__function6__funcIZN6twitch14BufferedSocket4bindERKNS_10shared_ptrINS2_6SocketEEEE3$_0NS_9allocatorIS9_EEFvRS5_NS5_5StateERKNS2_5ErrorEEE18destroy_deallocateEv', symObjAddr: 0x1468A8, symBinAddr: 0x13F9F4, symSize: 0x4 }
  - { offset: 0xB4DE06, size: 0x8, addend: 0x0, symName: '__ZNSt3__110__function6__funcIZN6twitch14BufferedSocket4bindERKNS_10shared_ptrINS2_6SocketEEEE3$_0NS_9allocatorIS9_EEFvRS5_NS5_5StateERKNS2_5ErrorEEE18destroy_deallocateEv', symObjAddr: 0x1468A8, symBinAddr: 0x13F9F4, symSize: 0x4 }
  - { offset: 0xB4DE35, size: 0x8, addend: 0x0, symName: '__ZNSt3__110__function6__funcIZN6twitch14BufferedSocket4bindERKNS_10shared_ptrINS2_6SocketEEEE3$_0NS_9allocatorIS9_EEFvRS5_NS5_5StateERKNS2_5ErrorEEE18destroy_deallocateEv', symObjAddr: 0x1468A8, symBinAddr: 0x13F9F4, symSize: 0x4 }
  - { offset: 0xB4DE5E, size: 0x8, addend: 0x0, symName: '__ZNSt3__110__function6__funcIZN6twitch14BufferedSocket4bindERKNS_10shared_ptrINS2_6SocketEEEE3$_0NS_9allocatorIS9_EEFvRS5_NS5_5StateERKNS2_5ErrorEEE18destroy_deallocateEv', symObjAddr: 0x1468A8, symBinAddr: 0x13F9F4, symSize: 0x4 }
  - { offset: 0xB4DFBA, size: 0x8, addend: 0x0, symName: '__ZNSt3__110__function6__funcIZN6twitch14BufferedSocket4bindERKNS_10shared_ptrINS2_6SocketEEEE3$_0NS_9allocatorIS9_EEFvRS5_NS5_5StateERKNS2_5ErrorEEEclESC_OSD_SG_', symObjAddr: 0x1468AC, symBinAddr: 0x13F9F8, symSize: 0x314 }
  - { offset: 0xB4F357, size: 0x8, addend: 0x0, symName: __ZN6twitch14BufferedSocket4sendEPKhmx, symObjAddr: 0x146BC0, symBinAddr: 0x13FD0C, symSize: 0x82C }
  - { offset: 0xB51662, size: 0x8, addend: 0x0, symName: __ZN6twitch14BufferedSocket4recvEPhmRmNSt3__16chrono8durationIxNS3_5ratioILl1ELl1000000EEEEE, symObjAddr: 0x1473EC, symBinAddr: 0x140538, symSize: 0x2DC }
  - { offset: 0xB5166D, size: 0x8, addend: 0x0, symName: __ZN6twitch14BufferedSocket4recvEPhmRmNSt3__16chrono8durationIxNS3_5ratioILl1ELl1000000EEEEE, symObjAddr: 0x1473EC, symBinAddr: 0x140538, symSize: 0x2DC }
  - { offset: 0x9EAF96, size: 0x8, addend: 0x0, symName: _fe_loose_invert, symObjAddr: 0xF5A50, symBinAddr: 0xEFCF8, symSize: 0x224 }
  - { offset: 0x9EAFB3, size: 0x8, addend: 0x0, symName: _ED25519_verify.kOrder, symObjAddr: 0x1933A8, symBinAddr: 0x1A9C78, symSize: 0x0 }
  - { offset: 0x9EAFFA, size: 0x8, addend: 0x0, symName: _X25519, symObjAddr: 0xF7730, symBinAddr: 0xF19D8, symSize: 0x580 }
  - { offset: 0x9EBE7E, size: 0x8, addend: 0x0, symName: _d, symObjAddr: 0x192F70, symBinAddr: 0x1A9840, symSize: 0x0 }
  - { offset: 0x9EBEBD, size: 0x8, addend: 0x0, symName: _fe_isnonzero, symObjAddr: 0xF62AC, symBinAddr: 0xF0554, symSize: 0x88 }
  - { offset: 0x9EBF8E, size: 0x8, addend: 0x0, symName: _sqrtm1, symObjAddr: 0x192F98, symBinAddr: 0x1A9868, symSize: 0x0 }
  - { offset: 0x9EBFA4, size: 0x8, addend: 0x0, symName: _d2, symObjAddr: 0x192FC0, symBinAddr: 0x1A9890, symSize: 0x0 }
  - { offset: 0x9EBFBA, size: 0x8, addend: 0x0, symName: _k25519SmallPrecomp, symObjAddr: 0x192FE8, symBinAddr: 0x1A98B8, symSize: 0x0 }
  - { offset: 0x9EBFE0, size: 0x8, addend: 0x0, symName: _Bi, symObjAddr: 0x1933C8, symBinAddr: 0x1A9C98, symSize: 0x0 }
  - { offset: 0x9EC303, size: 0x8, addend: 0x0, symName: _fe_loose_invert, symObjAddr: 0xF5A50, symBinAddr: 0xEFCF8, symSize: 0x224 }
  - { offset: 0x9ECAE6, size: 0x8, addend: 0x0, symName: _fiat_25519_carry_square, symObjAddr: 0xF6048, symBinAddr: 0xF02F0, symSize: 0x184 }
  - { offset: 0x9ECE27, size: 0x8, addend: 0x0, symName: _fe_mul_impl, symObjAddr: 0xF5C74, symBinAddr: 0xEFF1C, symSize: 0x21C }
  - { offset: 0x9ED8B0, size: 0x8, addend: 0x0, symName: _fe_tobytes, symObjAddr: 0xF5E90, symBinAddr: 0xF0138, symSize: 0x1B8 }
  - { offset: 0x9EDDF7, size: 0x8, addend: 0x0, symName: _fe_frombytes_strict, symObjAddr: 0xF61CC, symBinAddr: 0xF0474, symSize: 0xE0 }
  - { offset: 0x9EDE2D, size: 0x8, addend: 0x0, symName: _fe_frombytes_strict, symObjAddr: 0xF61CC, symBinAddr: 0xF0474, symSize: 0xE0 }
  - { offset: 0x9EDEBE, size: 0x8, addend: 0x0, symName: _fe_carry, symObjAddr: 0xF6334, symBinAddr: 0xF05DC, symSize: 0x5C }
  - { offset: 0x9EDEE6, size: 0x8, addend: 0x0, symName: _fe_carry, symObjAddr: 0xF6334, symBinAddr: 0xF05DC, symSize: 0x5C }
  - { offset: 0x9EE25E, size: 0x8, addend: 0x0, symName: _x25519_ge_p3_to_cached, symObjAddr: 0xF6390, symBinAddr: 0xF0638, symSize: 0x94 }
  - { offset: 0x9EE29B, size: 0x8, addend: 0x0, symName: _x25519_ge_p3_to_cached, symObjAddr: 0xF6390, symBinAddr: 0xF0638, symSize: 0x94 }
  - { offset: 0x9EE2CB, size: 0x8, addend: 0x0, symName: _x25519_ge_p3_to_cached, symObjAddr: 0xF6390, symBinAddr: 0xF0638, symSize: 0x94 }
  - { offset: 0x9EE440, size: 0x8, addend: 0x0, symName: _x25519_ge_p1p1_to_p3, symObjAddr: 0xF6424, symBinAddr: 0xF06CC, symSize: 0x70 }
  - { offset: 0x9EE5A0, size: 0x8, addend: 0x0, symName: _x25519_ge_add, symObjAddr: 0xF6494, symBinAddr: 0xF073C, symSize: 0x1FC }
  - { offset: 0x9EECCF, size: 0x8, addend: 0x0, symName: _x25519_ge_scalarmult_small_precomp, symObjAddr: 0xF6690, symBinAddr: 0xF0938, symSize: 0x2CC }
  - { offset: 0x9EF330, size: 0x8, addend: 0x0, symName: _ge_madd, symObjAddr: 0xF695C, symBinAddr: 0xF0C04, symSize: 0x1EC }
  - { offset: 0x9EF89D, size: 0x8, addend: 0x0, symName: _ge_p2_dbl, symObjAddr: 0xF6B48, symBinAddr: 0xF0DF0, symSize: 0x210 }
  - { offset: 0x9EFE23, size: 0x8, addend: 0x0, symName: _x25519_sc_reduce, symObjAddr: 0xF6D58, symBinAddr: 0xF1000, symSize: 0x614 }
  - { offset: 0x9F059B, size: 0x8, addend: 0x0, symName: _ED25519_keypair_from_seed, symObjAddr: 0xF736C, symBinAddr: 0xF1614, symSize: 0xB0 }
  - { offset: 0x9F06BD, size: 0x8, addend: 0x0, symName: _ge_p3_tobytes, symObjAddr: 0xF741C, symBinAddr: 0xF16C4, symSize: 0xB8 }
  - { offset: 0x9F08F0, size: 0x8, addend: 0x0, symName: _slide, symObjAddr: 0xF74D4, symBinAddr: 0xF177C, symSize: 0xE4 }
  - { offset: 0x9F0959, size: 0x8, addend: 0x0, symName: _X25519_keypair, symObjAddr: 0xF75B8, symBinAddr: 0xF1860, symSize: 0x58 }
  - { offset: 0x9F09D7, size: 0x8, addend: 0x0, symName: _X25519_public_from_private, symObjAddr: 0xF7610, symBinAddr: 0xF18B8, symSize: 0x120 }
  - { offset: 0x9F2095, size: 0x8, addend: 0x0, symName: _DSA_new, symObjAddr: 0xF7DA8, symBinAddr: 0xF2050, symSize: 0xC0 }
  - { offset: 0x9F20AF, size: 0x8, addend: 0x0, symName: _g_ex_data_class.4796, symObjAddr: 0x201F18, symBinAddr: 0x1FF8A8, symSize: 0x0 }
  - { offset: 0x9F232D, size: 0x8, addend: 0x0, symName: _DSA_new, symObjAddr: 0xF7DA8, symBinAddr: 0xF2050, symSize: 0xC0 }
  - { offset: 0x9F240D, size: 0x8, addend: 0x0, symName: _DSA_free, symObjAddr: 0xF7E68, symBinAddr: 0xF2110, symSize: 0xA4 }
  - { offset: 0x9F248B, size: 0x8, addend: 0x0, symName: _DSA_free, symObjAddr: 0xF7E68, symBinAddr: 0xF2110, symSize: 0xA4 }
  - { offset: 0xA525BF, size: 0x8, addend: 0x0, symName: _i2r_certpol, symObjAddr: 0x110210, symBinAddr: 0x10A458, symSize: 0x2D4 }
  - { offset: 0xA525D8, size: 0x8, addend: 0x0, symName: _v3_cpols, symObjAddr: 0x1E3FE8, symBinAddr: 0x1EAFA0, symSize: 0x0 }
  - { offset: 0xA53D83, size: 0x8, addend: 0x0, symName: _CERTIFICATEPOLICIES_it, symObjAddr: 0x1E2A68, symBinAddr: 0x1E9A20, symSize: 0x0 }
  - { offset: 0xA53D98, size: 0x8, addend: 0x0, symName: _POLICYINFO_it, symObjAddr: 0x1E2B18, symBinAddr: 0x1E9AD0, symSize: 0x0 }
  - { offset: 0xA53DAD, size: 0x8, addend: 0x0, symName: _POLICYQUALINFO_it, symObjAddr: 0x1E2BA0, symBinAddr: 0x1E9B58, symSize: 0x0 }
  - { offset: 0xA53DC2, size: 0x8, addend: 0x0, symName: _USERNOTICE_it, symObjAddr: 0x1E2C28, symBinAddr: 0x1E9BE0, symSize: 0x0 }
  - { offset: 0xA53DD7, size: 0x8, addend: 0x0, symName: _NOTICEREF_it, symObjAddr: 0x1E2CB0, symBinAddr: 0x1E9C68, symSize: 0x0 }
  - { offset: 0xA53DED, size: 0x8, addend: 0x0, symName: _CERTIFICATEPOLICIES_item_tt, symObjAddr: 0x1E2AA0, symBinAddr: 0x1E9A58, symSize: 0x0 }
  - { offset: 0xA53E03, size: 0x8, addend: 0x0, symName: _POLICYINFO_seq_tt, symObjAddr: 0x1E2AC8, symBinAddr: 0x1E9A80, symSize: 0x0 }
  - { offset: 0xA53E2C, size: 0x8, addend: 0x0, symName: _POLICYQUALINFO_seq_tt, symObjAddr: 0x1E2B50, symBinAddr: 0x1E9B08, symSize: 0x0 }
  - { offset: 0xA53E42, size: 0x8, addend: 0x0, symName: _POLICYQUALINFO_adb, symObjAddr: 0x1E2CE8, symBinAddr: 0x1E9CA0, symSize: 0x0 }
  - { offset: 0xA53F16, size: 0x8, addend: 0x0, symName: _POLICYQUALINFO_adbtbl, symObjAddr: 0x1E2D20, symBinAddr: 0x1E9CD8, symSize: 0x0 }
  - { offset: 0xA53F38, size: 0x8, addend: 0x0, symName: _policydefault_tt, symObjAddr: 0x1E2D80, symBinAddr: 0x1E9D38, symSize: 0x0 }
  - { offset: 0xA53F4E, size: 0x8, addend: 0x0, symName: _USERNOTICE_seq_tt, symObjAddr: 0x1E2BD8, symBinAddr: 0x1E9B90, symSize: 0x0 }
  - { offset: 0xA53F64, size: 0x8, addend: 0x0, symName: _NOTICEREF_seq_tt, symObjAddr: 0x1E2C60, symBinAddr: 0x1E9C18, symSize: 0x0 }
  - { offset: 0xA542D6, size: 0x8, addend: 0x0, symName: _i2r_certpol, symObjAddr: 0x110210, symBinAddr: 0x10A458, symSize: 0x2D4 }
  - { offset: 0xA54B94, size: 0x8, addend: 0x0, symName: _r2i_certpol, symObjAddr: 0x1104E4, symBinAddr: 0x10A72C, symSize: 0xB18 }
  - { offset: 0xA562E8, size: 0x8, addend: 0x0, symName: _POLICYINFO_free, symObjAddr: 0x110FFC, symBinAddr: 0x10B244, symSize: 0x30 }
  - { offset: 0xA1556C, size: 0x8, addend: 0x0, symName: _CRYPTO_poly1305_update, symObjAddr: 0x1037F4, symBinAddr: 0xFDA9C, symSize: 0xF0 }
  - { offset: 0xA15815, size: 0x8, addend: 0x0, symName: _CRYPTO_poly1305_update, symObjAddr: 0x1037F4, symBinAddr: 0xFDA9C, symSize: 0xF0 }
  - { offset: 0xA158F4, size: 0x8, addend: 0x0, symName: _poly1305_update, symObjAddr: 0x1038E4, symBinAddr: 0xFDB8C, symSize: 0x22C }
  - { offset: 0x67D5B, size: 0x8, addend: 0x0, symName: '-[IVSAVImagePreviewView initWithSourceTag:aspectMode:]', symObjAddr: 0x19E0, symBinAddr: 0x4800, symSize: 0x108 }
  - { offset: 0x68E45, size: 0x8, addend: 0x0, symName: '-[IVSAVImagePreviewView initWithSourceTag:aspectMode:]', symObjAddr: 0x19E0, symBinAddr: 0x4800, symSize: 0x108 }
  - { offset: 0x68F97, size: 0x8, addend: 0x0, symName: '-[IVSAVImagePreviewView onNewSample:]', symObjAddr: 0x1AE8, symBinAddr: 0x4908, symSize: 0x1C8 }
  - { offset: 0x69223, size: 0x8, addend: 0x0, symName: '-[IVSAVImagePreviewView setMirrored:]', symObjAddr: 0x1CB0, symBinAddr: 0x4AD0, symSize: 0x10 }
  - { offset: 0x69262, size: 0x8, addend: 0x0, symName: '-[IVSAVImagePreviewView setDeallocBlock:]', symObjAddr: 0x1CC0, symBinAddr: 0x4AE0, symSize: 0x50 }
  - { offset: 0x692A7, size: 0x8, addend: 0x0, symName: '-[IVSAVImagePreviewView pictureInPictureContentSource]', symObjAddr: 0x1D10, symBinAddr: 0x4B30, symSize: 0x44 }
  - { offset: 0x692DF, size: 0x8, addend: 0x0, symName: '-[IVSAVImagePreviewView cachedLayer]', symObjAddr: 0x1D54, symBinAddr: 0x4B74, symSize: 0x10 }
  - { offset: 0x69317, size: 0x8, addend: 0x0, symName: '-[IVSAVImagePreviewView sourceTag]', symObjAddr: 0x1D64, symBinAddr: 0x4B84, symSize: 0x10 }
  - { offset: 0x6934F, size: 0x8, addend: 0x0, symName: '-[IVSAVImagePreviewView deallocHandler]', symObjAddr: 0x1D74, symBinAddr: 0x4B94, symSize: 0x10 }
  - { offset: 0x69387, size: 0x8, addend: 0x0, symName: '-[IVSAVImagePreviewView setDeallocHandler:]', symObjAddr: 0x1D84, symBinAddr: 0x4BA4, symSize: 0xC }
  - { offset: 0x693C7, size: 0x8, addend: 0x0, symName: '-[IVSAVImagePreviewView isMirrored]', symObjAddr: 0x1D90, symBinAddr: 0x4BB0, symSize: 0x14 }
  - { offset: 0x693FF, size: 0x8, addend: 0x0, symName: '-[IVSAVImagePreviewView setIsMirrored:]', symObjAddr: 0x1DA4, symBinAddr: 0x4BC4, symSize: 0x10 }
  - { offset: 0x6943D, size: 0x8, addend: 0x0, symName: '-[IVSAVImagePreviewView .cxx_destruct]', symObjAddr: 0x1DB4, symBinAddr: 0x4BD4, symSize: 0x54 }
  - { offset: 0x69521, size: 0x8, addend: 0x0, symName: '___37-[IVSAVImagePreviewView onNewSample:]_block_invoke', symObjAddr: 0x1E08, symBinAddr: 0x4C28, symSize: 0x1E8 }
  - { offset: 0x696A3, size: 0x8, addend: 0x0, symName: ____ZN6twitch21dispatchAsyncIfStrongIU8__strongP21IVSAVImagePreviewViewvEEvPU28objcproto17OS_dispatch_queue8NSObjectRU6__weakKT_U13block_pointerFvS7_E_block_invoke, symObjAddr: 0x1FF0, symBinAddr: 0x4E10, symSize: 0x40 }
  - { offset: 0x6971B, size: 0x8, addend: 0x0, symName: ___copy_helper_block_a8_32c157_ZTSKZN6twitch21dispatchAsyncIfStrongIU8__strongP21IVSAVImagePreviewViewvEEvPU28objcproto17OS_dispatch_queue8NSObjectRU6__weakKT_U13block_pointerFvS7_EEUlvE_, symObjAddr: 0x2030, symBinAddr: 0x4E50, symSize: 0x38 }
  - { offset: 0x69799, size: 0x8, addend: 0x0, symName: ___destroy_helper_block_a8_32c157_ZTSKZN6twitch21dispatchAsyncIfStrongIU8__strongP21IVSAVImagePreviewViewvEEvPU28objcproto17OS_dispatch_queue8NSObjectRU6__weakKT_U13block_pointerFvS7_EEUlvE_, symObjAddr: 0x2068, symBinAddr: 0x4E88, symSize: 0x28 }
  - { offset: 0x697F9, size: 0x8, addend: 0x0, symName: '___copy_helper_block_a8_32c50_ZTSKZ37-[IVSAVImagePreviewView onNewSample:]E3$_0', symObjAddr: 0x2090, symBinAddr: 0x4EB0, symSize: 0x14 }
  - { offset: 0x6981E, size: 0x8, addend: 0x0, symName: ___destroy_helper_block_a8_32.30, symObjAddr: 0x20A4, symBinAddr: 0x4EC4, symSize: 0x4 }
  - { offset: 0x69838, size: 0x8, addend: 0x0, symName: '+[IVSAVImagePreviewView layerClass]', symObjAddr: 0x20A8, symBinAddr: 0x4EC8, symSize: 0xC }
  - { offset: 0xD5C5A5, size: 0x8, addend: 0x0, symName: __ZN6twitch6Random18mersenneTwisterRNGEv, symObjAddr: 0x18DD2C, symBinAddr: 0x185080, symSize: 0x44 }
  - { offset: 0xD5C5BD, size: 0x8, addend: 0x0, symName: __ZN6twitch6Random18mersenneTwisterRNGEv, symObjAddr: 0x18DD2C, symBinAddr: 0x185080, symSize: 0x44 }
  - { offset: 0xD5C5E8, size: 0x8, addend: 0x0, symName: __ZZN6twitch6Random18mersenneTwisterRNGEvE9generator, symObjAddr: 0x34F32D8, symBinAddr: 0x202038, symSize: 0x0 }
  - { offset: 0xD5E14B, size: 0x8, addend: 0x0, symName: '__ZZN6twitch6Random18mersenneTwisterRNGEvENK3$_0clEv', symObjAddr: 0x18DD70, symBinAddr: 0x1850C4, symSize: 0x5EC }
  - { offset: 0xD60036, size: 0x8, addend: 0x0, symName: __ZNSt3__123mersenne_twister_engineIyLm64ELm312ELm156ELm31ELy13043109905998158313ELm29ELy6148914691236517205ELm17ELy8202884508482404352ELm37ELy18444473444759240704ELm43ELy6364136223846793005EEclEv, symObjAddr: 0x18E35C, symBinAddr: 0x1856B0, symSize: 0xC0 }
  - { offset: 0x9D41D4, size: 0x8, addend: 0x0, symName: _ASN1_BIT_STRING_set_bit, symObjAddr: 0xEC84C, symBinAddr: 0xE6AF4, symSize: 0x144 }
  - { offset: 0x9D42E1, size: 0x8, addend: 0x0, symName: _ASN1_BIT_STRING_set_bit, symObjAddr: 0xEC84C, symBinAddr: 0xE6AF4, symSize: 0x144 }
  - { offset: 0x70A9C2, size: 0x8, addend: 0x0, symName: __ZN6twitch15AudioCompressorD1Ev, symObjAddr: 0xA7600, symBinAddr: 0xA4ABC, symSize: 0x48 }
  - { offset: 0x70B8D5, size: 0x8, addend: 0x0, symName: __ZN6twitch15AudioCompressorD1Ev, symObjAddr: 0xA7600, symBinAddr: 0xA4ABC, symSize: 0x48 }
  - { offset: 0x70B970, size: 0x8, addend: 0x0, symName: __ZN6twitch15AudioCompressorD0Ev, symObjAddr: 0xA7648, symBinAddr: 0xA4B04, symSize: 0x4C }
  - { offset: 0x70BBF2, size: 0x8, addend: 0x0, symName: __ZN6twitch15AudioCompressor7receiveERKNS_13ControlSampleE, symObjAddr: 0xA7694, symBinAddr: 0xA4B50, symSize: 0xE4 }
  - { offset: 0x70C3EC, size: 0x8, addend: 0x0, symName: __ZN6twitch15AudioCompressor7receiveERKNS_9PCMSampleE, symObjAddr: 0xA7778, symBinAddr: 0xA4C34, symSize: 0x41C }
  - { offset: 0x70CD7E, size: 0x8, addend: 0x0, symName: __ZThn24_N6twitch15AudioCompressor7receiveERKNS_9PCMSampleE, symObjAddr: 0xA7B94, symBinAddr: 0xA5050, symSize: 0x8 }
  - { offset: 0x70CDA3, size: 0x8, addend: 0x0, symName: __ZThn24_N6twitch15AudioCompressorD1Ev, symObjAddr: 0xA7B9C, symBinAddr: 0xA5058, symSize: 0x44 }
  - { offset: 0x70CE4D, size: 0x8, addend: 0x0, symName: __ZThn24_N6twitch15AudioCompressorD0Ev, symObjAddr: 0xA7BE0, symBinAddr: 0xA509C, symSize: 0x48 }
  - { offset: 0x70CEFD, size: 0x8, addend: 0x0, symName: __ZThn32_N6twitch15AudioCompressor7receiveERKNS_13ControlSampleE, symObjAddr: 0xA7C28, symBinAddr: 0xA50E4, symSize: 0x8 }
  - { offset: 0x70CF22, size: 0x8, addend: 0x0, symName: __ZThn32_N6twitch15AudioCompressorD1Ev, symObjAddr: 0xA7C30, symBinAddr: 0xA50EC, symSize: 0x48 }
  - { offset: 0x70CFB2, size: 0x8, addend: 0x0, symName: __ZThn32_N6twitch15AudioCompressorD0Ev, symObjAddr: 0xA7C78, symBinAddr: 0xA5134, symSize: 0x4C }
  - { offset: 0x9F2766, size: 0x8, addend: 0x0, symName: _dsa_check_parameters, symObjAddr: 0xF7F0C, symBinAddr: 0xF21B4, symSize: 0x13C }
  - { offset: 0x9F2A4A, size: 0x8, addend: 0x0, symName: _dsa_check_parameters, symObjAddr: 0xF7F0C, symBinAddr: 0xF21B4, symSize: 0x13C }
  - { offset: 0x9F2BE9, size: 0x8, addend: 0x0, symName: _marshal_integer.4800, symObjAddr: 0xF8048, symBinAddr: 0xF22F0, symSize: 0x34 }
  - { offset: 0x9F2C74, size: 0x8, addend: 0x0, symName: _DSA_parse_parameters, symObjAddr: 0xF807C, symBinAddr: 0xF2324, symSize: 0xDC }
  - { offset: 0x9F2E1B, size: 0x8, addend: 0x0, symName: _DSA_marshal_parameters, symObjAddr: 0xF8158, symBinAddr: 0xF2400, symSize: 0x9C }
  - { offset: 0xA22D9B, size: 0x8, addend: 0x0, symName: _x509_object_cmp, symObjAddr: 0x106C44, symBinAddr: 0x100E8C, symSize: 0x74 }
  - { offset: 0xA24603, size: 0x8, addend: 0x0, symName: _x509_object_cmp, symObjAddr: 0x106C44, symBinAddr: 0x100E8C, symSize: 0x74 }
  - { offset: 0xA2479E, size: 0x8, addend: 0x0, symName: _X509_STORE_free, symObjAddr: 0x106CB8, symBinAddr: 0x100F00, symSize: 0x1E0 }
  - { offset: 0xA24E30, size: 0x8, addend: 0x0, symName: _X509_STORE_get_by_subject, symObjAddr: 0x106E98, symBinAddr: 0x1010E0, symSize: 0x140 }
  - { offset: 0xA250D9, size: 0x8, addend: 0x0, symName: _X509_OBJECT_up_ref_count, symObjAddr: 0x106FD8, symBinAddr: 0x101220, symSize: 0x24 }
  - { offset: 0xA250E4, size: 0x8, addend: 0x0, symName: _x509_object_idx_cnt, symObjAddr: 0x106FFC, symBinAddr: 0x101244, symSize: 0x148 }
  - { offset: 0xA252D9, size: 0x8, addend: 0x0, symName: _X509_OBJECT_up_ref_count, symObjAddr: 0x106FD8, symBinAddr: 0x101220, symSize: 0x24 }
  - { offset: 0xA2537D, size: 0x8, addend: 0x0, symName: _sk_X509_OBJECT_call_cmp_func.5682, symObjAddr: 0x107144, symBinAddr: 0x10138C, symSize: 0x34 }
  - { offset: 0xA253F4, size: 0x8, addend: 0x0, symName: _X509_OBJECT_free_contents, symObjAddr: 0x107178, symBinAddr: 0x1013C0, symSize: 0x50 }
  - { offset: 0xA25545, size: 0x8, addend: 0x0, symName: _X509_STORE_get1_certs, symObjAddr: 0x1071C8, symBinAddr: 0x101410, symSize: 0x1FC }
  - { offset: 0xA25A97, size: 0x8, addend: 0x0, symName: _X509_STORE_get1_crls, symObjAddr: 0x1073C4, symBinAddr: 0x10160C, symSize: 0x1D8 }
  - { offset: 0xA25B3F, size: 0x8, addend: 0x0, symName: _X509_STORE_get1_crls, symObjAddr: 0x1073C4, symBinAddr: 0x10160C, symSize: 0x1D8 }
  - { offset: 0xA26072, size: 0x8, addend: 0x0, symName: _X509_STORE_CTX_get1_issuer, symObjAddr: 0x10759C, symBinAddr: 0x1017E4, symSize: 0x174 }
  - { offset: 0xA2607D, size: 0x8, addend: 0x0, symName: _X509_STORE_CTX_get1_issuer, symObjAddr: 0x10759C, symBinAddr: 0x1017E4, symSize: 0x174 }
  - { offset: 0xA262EC, size: 0x8, addend: 0x0, symName: _obj_trust, symObjAddr: 0x107710, symBinAddr: 0x101958, symSize: 0xE8 }
  - { offset: 0xD56890, size: 0x8, addend: 0x0, symName: __ZN6twitch13JsonBufWriter10writeInt32EiRNSt3__112basic_stringIcNS1_11char_traitsIcEENS1_9allocatorIcEEEE, symObjAddr: 0x18D570, symBinAddr: 0x1848C4, symSize: 0x40 }
  - { offset: 0xD57887, size: 0x8, addend: 0x0, symName: __ZN6twitch13JsonBufWriter10writeInt32EiRNSt3__112basic_stringIcNS1_11char_traitsIcEENS1_9allocatorIcEEEE, symObjAddr: 0x18D570, symBinAddr: 0x1848C4, symSize: 0x40 }
  - { offset: 0xD5790C, size: 0x8, addend: 0x0, symName: __ZN6twitch13JsonBufWriter10ensureSizeEmRNSt3__112basic_stringIcNS1_11char_traitsIcEENS1_9allocatorIcEEEE, symObjAddr: 0x18D6A0, symBinAddr: 0x1849F4, symSize: 0xCC }
  - { offset: 0xD57B44, size: 0x8, addend: 0x0, symName: __ZN6twitch13JsonBufWriter10writeInt64ExRNSt3__112basic_stringIcNS1_11char_traitsIcEENS1_9allocatorIcEEEE, symObjAddr: 0x18D5B0, symBinAddr: 0x184904, symSize: 0x40 }
  - { offset: 0xD57BB8, size: 0x8, addend: 0x0, symName: __ZN6twitch13JsonBufWriter11writeDoubleEdRNSt3__112basic_stringIcNS1_11char_traitsIcEENS1_9allocatorIcEEEE, symObjAddr: 0x18D5F0, symBinAddr: 0x184944, symSize: 0x4C }
  - { offset: 0xD57C3E, size: 0x8, addend: 0x0, symName: __ZN6twitch13JsonBufWriter9writeDataEPKvmRNSt3__112basic_stringIcNS3_11char_traitsIcEENS3_9allocatorIcEEEE, symObjAddr: 0x18D63C, symBinAddr: 0x184990, symSize: 0x64 }
  - { offset: 0xD57D16, size: 0x8, addend: 0x0, symName: __ZN6twitch13JsonBufReader9readInt32ERiRNSt3__112basic_stringIcNS2_11char_traitsIcEENS2_9allocatorIcEEEE, symObjAddr: 0x18D76C, symBinAddr: 0x184AC0, symSize: 0x64 }
  - { offset: 0xD57D60, size: 0x8, addend: 0x0, symName: __ZN6twitch13JsonBufReader9readInt32ERiRNSt3__112basic_stringIcNS2_11char_traitsIcEENS2_9allocatorIcEEEE, symObjAddr: 0x18D76C, symBinAddr: 0x184AC0, symSize: 0x64 }
  - { offset: 0xD57F0C, size: 0x8, addend: 0x0, symName: __ZN6twitch13JsonBufReader9readInt64ERxRNSt3__112basic_stringIcNS2_11char_traitsIcEENS2_9allocatorIcEEEE, symObjAddr: 0x18D7D0, symBinAddr: 0x184B24, symSize: 0x64 }
  - { offset: 0xD57F44, size: 0x8, addend: 0x0, symName: __ZN6twitch13JsonBufReader9readInt64ERxRNSt3__112basic_stringIcNS2_11char_traitsIcEENS2_9allocatorIcEEEE, symObjAddr: 0x18D7D0, symBinAddr: 0x184B24, symSize: 0x64 }
  - { offset: 0xD580F0, size: 0x8, addend: 0x0, symName: __ZN6twitch13JsonBufReader10readDoubleERdRNSt3__112basic_stringIcNS2_11char_traitsIcEENS2_9allocatorIcEEEE, symObjAddr: 0x18D834, symBinAddr: 0x184B88, symSize: 0x64 }
  - { offset: 0xD5813A, size: 0x8, addend: 0x0, symName: __ZN6twitch13JsonBufReader10readDoubleERdRNSt3__112basic_stringIcNS2_11char_traitsIcEENS2_9allocatorIcEEEE, symObjAddr: 0x18D834, symBinAddr: 0x184B88, symSize: 0x64 }
  - { offset: 0xD582E6, size: 0x8, addend: 0x0, symName: __ZN6twitch13JsonBufReader8readDataEPvmRNSt3__112basic_stringIcNS2_11char_traitsIcEENS2_9allocatorIcEEEE, symObjAddr: 0x18D898, symBinAddr: 0x184BEC, symSize: 0x94 }
  - { offset: 0xA34138, size: 0x8, addend: 0x0, symName: _X509_NAME_get_index_by_NID, symObjAddr: 0x10BCBC, symBinAddr: 0x105F04, symSize: 0x9C }
  - { offset: 0xA34430, size: 0x8, addend: 0x0, symName: _X509_NAME_get_index_by_NID, symObjAddr: 0x10BCBC, symBinAddr: 0x105F04, symSize: 0x9C }
  - { offset: 0xA3459F, size: 0x8, addend: 0x0, symName: _X509_NAME_add_entry, symObjAddr: 0x10BD58, symBinAddr: 0x105FA0, symSize: 0x16C }
  - { offset: 0xA686B1, size: 0x8, addend: 0x0, symName: _i2r_ocsp_acutoff, symObjAddr: 0x1135E8, symBinAddr: 0x10D830, symSize: 0x210 }
  - { offset: 0xA686CA, size: 0x8, addend: 0x0, symName: _v3_crl_invdate, symObjAddr: 0x1E4670, symBinAddr: 0x1EB628, symSize: 0x0 }
  - { offset: 0xA69CCD, size: 0x8, addend: 0x0, symName: _v3_ocsp_nocheck, symObjAddr: 0x1E4710, symBinAddr: 0x1EB6C8, symSize: 0x0 }
  - { offset: 0xA69CEA, size: 0x8, addend: 0x0, symName: _i2r_ocsp_acutoff, symObjAddr: 0x1135E8, symBinAddr: 0x10D830, symSize: 0x210 }
  - { offset: 0xA69E0D, size: 0x8, addend: 0x0, symName: _s2i_ocsp_nocheck, symObjAddr: 0x1137F8, symBinAddr: 0x10DA40, symSize: 0x3C }
  - { offset: 0xA69EC6, size: 0x8, addend: 0x0, symName: _i2r_ocsp_nocheck, symObjAddr: 0x113834, symBinAddr: 0x10DA7C, symSize: 0x8 }
  - { offset: 0x33C2BE, size: 0x8, addend: 0x0, symName: '-[IVSMixedImageDeviceImpl initWithConfiguration:]', symObjAddr: 0x46D44, symBinAddr: 0x47C24, symSize: 0x958 }
  - { offset: 0x33F0D8, size: 0x8, addend: 0x0, symName: '-[IVSMixedImageDeviceImpl initWithConfiguration:]', symObjAddr: 0x46D44, symBinAddr: 0x47C24, symSize: 0x958 }
  - { offset: 0x341C30, size: 0x8, addend: 0x0, symName: '-[IVSMixedImageDeviceImpl addSource:]', symObjAddr: 0x4769C, symBinAddr: 0x4857C, symSize: 0x218 }
  - { offset: 0x3426F2, size: 0x8, addend: 0x0, symName: '-[IVSMixedImageDeviceImpl sourceToMixerSlot:]', symObjAddr: 0x48318, symBinAddr: 0x491F8, symSize: 0x290 }
  - { offset: 0x342849, size: 0x8, addend: 0x0, symName: '-[IVSMixedImageDeviceImpl removeSource:]', symObjAddr: 0x478B4, symBinAddr: 0x48794, symSize: 0x1D0 }
  - { offset: 0x34304F, size: 0x8, addend: 0x0, symName: '-[IVSMixedImageDeviceImpl sources]', symObjAddr: 0x47A84, symBinAddr: 0x48964, symSize: 0x5C }
  - { offset: 0x34311E, size: 0x8, addend: 0x0, symName: '-[IVSMixedImageDeviceImpl source:didAddDevice:]', symObjAddr: 0x47AE0, symBinAddr: 0x489C0, symSize: 0x224 }
  - { offset: 0x343734, size: 0x8, addend: 0x0, symName: '-[IVSMixedImageDeviceImpl source:didRemoveDevice:]', symObjAddr: 0x47D04, symBinAddr: 0x48BE4, symSize: 0x1DC }
  - { offset: 0x343DFB, size: 0x8, addend: 0x0, symName: '-[IVSMixedImageDeviceImpl source:transitionWithDuration:onComplete:]', symObjAddr: 0x47EE0, symBinAddr: 0x48DC0, symSize: 0x1D0 }
  - { offset: 0x344421, size: 0x8, addend: 0x0, symName: '-[IVSMixedImageDeviceImpl open]', symObjAddr: 0x480B0, symBinAddr: 0x48F90, symSize: 0x60 }
  - { offset: 0x34458E, size: 0x8, addend: 0x0, symName: '-[IVSMixedImageDeviceImpl close]', symObjAddr: 0x48110, symBinAddr: 0x48FF0, symSize: 0x54 }
  - { offset: 0x3446FB, size: 0x8, addend: 0x0, symName: '-[IVSMixedImageDeviceImpl appDidEnterBackground:]', symObjAddr: 0x48164, symBinAddr: 0x49044, symSize: 0x48 }
  - { offset: 0x344872, size: 0x8, addend: 0x0, symName: '-[IVSMixedImageDeviceImpl appWillEnterForeground:]', symObjAddr: 0x481AC, symBinAddr: 0x4908C, symSize: 0x54 }
  - { offset: 0x3449E9, size: 0x8, addend: 0x0, symName: '-[IVSMixedImageDeviceImpl sourcesSet]', symObjAddr: 0x48200, symBinAddr: 0x490E0, symSize: 0x10 }
  - { offset: 0x344A20, size: 0x8, addend: 0x0, symName: '-[IVSMixedImageDeviceImpl setSourcesSet:]', symObjAddr: 0x48210, symBinAddr: 0x490F0, symSize: 0x14 }
  - { offset: 0x344A61, size: 0x8, addend: 0x0, symName: '-[IVSMixedImageDeviceImpl isInBackground]', symObjAddr: 0x48224, symBinAddr: 0x49104, symSize: 0x10 }
  - { offset: 0x344A98, size: 0x8, addend: 0x0, symName: '-[IVSMixedImageDeviceImpl setIsInBackground:]', symObjAddr: 0x48234, symBinAddr: 0x49114, symSize: 0x10 }
  - { offset: 0x344AD3, size: 0x8, addend: 0x0, symName: '-[IVSMixedImageDeviceImpl wantsToRun]', symObjAddr: 0x48244, symBinAddr: 0x49124, symSize: 0x10 }
  - { offset: 0x344B0A, size: 0x8, addend: 0x0, symName: '-[IVSMixedImageDeviceImpl setWantsToRun:]', symObjAddr: 0x48254, symBinAddr: 0x49134, symSize: 0x10 }
  - { offset: 0x344B45, size: 0x8, addend: 0x0, symName: '-[IVSMixedImageDeviceImpl .cxx_destruct]', symObjAddr: 0x48264, symBinAddr: 0x49144, symSize: 0x84 }
  - { offset: 0x344CD2, size: 0x8, addend: 0x0, symName: '-[IVSMixedImageDeviceImpl .cxx_construct]', symObjAddr: 0x482E8, symBinAddr: 0x491C8, symSize: 0x30 }
  - { offset: 0x344E71, size: 0x8, addend: 0x0, symName: '___49-[IVSMixedImageDeviceImpl initWithConfiguration:]_block_invoke', symObjAddr: 0x485A8, symBinAddr: 0x49488, symSize: 0x84 }
  - { offset: 0x344FB6, size: 0x8, addend: 0x0, symName: '___copy_helper_block_a8_32c62_ZTSKZ49-[IVSMixedImageDeviceImpl initWithConfiguration:]E3$_0', symObjAddr: 0x4862C, symBinAddr: 0x4950C, symSize: 0xC }
  - { offset: 0x34502A, size: 0x8, addend: 0x0, symName: '___destroy_helper_block_a8_32c62_ZTSKZ49-[IVSMixedImageDeviceImpl initWithConfiguration:]E3$_0', symObjAddr: 0x48638, symBinAddr: 0x49518, symSize: 0x8 }
  - { offset: 0x3450A1, size: 0x8, addend: 0x0, symName: __ZNSt3__120__shared_ptr_emplaceIN6twitch16MixedImageDeviceENS_9allocatorIS2_EEED1Ev, symObjAddr: 0x48640, symBinAddr: 0x49520, symSize: 0x10 }
  - { offset: 0x3450C5, size: 0x8, addend: 0x0, symName: __ZNSt3__120__shared_ptr_emplaceIN6twitch16MixedImageDeviceENS_9allocatorIS2_EEED1Ev, symObjAddr: 0x48640, symBinAddr: 0x49520, symSize: 0x10 }
  - { offset: 0x3450FE, size: 0x8, addend: 0x0, symName: __ZNSt3__120__shared_ptr_emplaceIN6twitch16MixedImageDeviceENS_9allocatorIS2_EEED0Ev, symObjAddr: 0x48650, symBinAddr: 0x49530, symSize: 0x20 }
  - { offset: 0x34523F, size: 0x8, addend: 0x0, symName: __ZNSt3__120__shared_ptr_emplaceIN6twitch16MixedImageDeviceENS_9allocatorIS2_EEE16__on_zero_sharedEv, symObjAddr: 0x48670, symBinAddr: 0x49550, symSize: 0x34 }
  - { offset: 0x34541B, size: 0x8, addend: 0x0, symName: __ZNSt3__120__shared_ptr_emplaceIN6twitch16MixedImageDeviceENS_9allocatorIS2_EEE21__on_zero_shared_weakEv, symObjAddr: 0x486A4, symBinAddr: 0x49584, symSize: 0x4 }
  - { offset: 0x345451, size: 0x8, addend: 0x0, symName: __ZNSt3__120__shared_ptr_emplaceIN6twitch16MixedImageDeviceENS_9allocatorIS2_EEE21__on_zero_shared_weakEv, symObjAddr: 0x486A4, symBinAddr: 0x49584, symSize: 0x4 }
  - { offset: 0x345477, size: 0x8, addend: 0x0, symName: __ZNSt3__120__shared_ptr_emplaceIN6twitch16MixedImageDeviceENS_9allocatorIS2_EEE21__on_zero_shared_weakEv, symObjAddr: 0x486A4, symBinAddr: 0x49584, symSize: 0x4 }
  - { offset: 0x34549D, size: 0x8, addend: 0x0, symName: __ZNSt3__120__shared_ptr_emplaceIN6twitch16MixedImageDeviceENS_9allocatorIS2_EEE21__on_zero_shared_weakEv, symObjAddr: 0x486A4, symBinAddr: 0x49584, symSize: 0x4 }
  - { offset: 0x3454CE, size: 0x8, addend: 0x0, symName: __ZNSt3__120__shared_ptr_emplaceIN6twitch16MixedImageDeviceENS_9allocatorIS2_EEE21__on_zero_shared_weakEv, symObjAddr: 0x486A4, symBinAddr: 0x49584, symSize: 0x4 }
  - { offset: 0x3454F9, size: 0x8, addend: 0x0, symName: __ZNSt3__120__shared_ptr_emplaceIN6twitch16MixedImageDeviceENS_9allocatorIS2_EEE21__on_zero_shared_weakEv, symObjAddr: 0x486A4, symBinAddr: 0x49584, symSize: 0x4 }
  - { offset: 0xA51235, size: 0x8, addend: 0x0, symName: _X509V3_get_section, symObjAddr: 0x1101C0, symBinAddr: 0x10A408, symSize: 0x50 }
  - { offset: 0xA52467, size: 0x8, addend: 0x0, symName: _X509V3_get_section, symObjAddr: 0x1101C0, symBinAddr: 0x10A408, symSize: 0x50 }
  - { offset: 0x4AD270, size: 0x8, addend: 0x0, symName: __ZN6twitch14BroadcastErrorC2ERKNS0_9ErrorCodeEiNSt3__112basic_stringIcNS4_11char_traitsIcEENS4_9allocatorIcEEEE, symObjAddr: 0x71748, symBinAddr: 0x711AC, symSize: 0x1024 }
  - { offset: 0x4AE1DB, size: 0x8, addend: 0x0, symName: __ZN6twitch14BroadcastErrorC2ERKNS0_9ErrorCodeEiNSt3__112basic_stringIcNS4_11char_traitsIcEENS4_9allocatorIcEEEE, symObjAddr: 0x71748, symBinAddr: 0x711AC, symSize: 0x1024 }
  - { offset: 0x4AE794, size: 0x8, addend: 0x0, symName: __ZN6twitch14BroadcastErrorC2ERKNS0_9ErrorCodeE, symObjAddr: 0x7276C, symBinAddr: 0x721D0, symSize: 0x60 }
  - { offset: 0x4AE98F, size: 0x8, addend: 0x0, symName: __ZN6twitch14BroadcastErrorC1ERKNS0_9ErrorCodeEi, symObjAddr: 0x7282C, symBinAddr: 0x72230, symSize: 0x6C }
  - { offset: 0x4AEBF5, size: 0x8, addend: 0x0, symName: __ZN6twitch14BroadcastErrorC1ERKNS0_9ErrorCodeENSt3__112basic_stringIcNS4_11char_traitsIcEENS4_9allocatorIcEEEE, symObjAddr: 0x72898, symBinAddr: 0x7229C, symSize: 0x78 }
  - { offset: 0xBA4E6C, size: 0x8, addend: 0x0, symName: __ZN6twitch15AsyncHttpClientD1Ev, symObjAddr: 0x150C38, symBinAddr: 0x149788, symSize: 0x4 }
  - { offset: 0xBAF07D, size: 0x8, addend: 0x0, symName: __ZN6twitch15AsyncHttpClient4sendENSt3__110shared_ptrINS_11HttpRequestEEENS1_8functionIFvNS2_INS_12HttpResponseEEEEEENS5_IFviRKNS1_12basic_stringIcNS1_11char_traitsIcEENS1_9allocatorIcEEEEEEE, symObjAddr: 0x150D74, symBinAddr: 0x1498C4, symSize: 0x7F0 }
  - { offset: 0xBB2941, size: 0x8, addend: 0x0, symName: __ZN6twitch15AsyncHttpClientD1Ev, symObjAddr: 0x150C38, symBinAddr: 0x149788, symSize: 0x4 }
  - { offset: 0xBB2965, size: 0x8, addend: 0x0, symName: __ZN6twitch15AsyncHttpClientD1Ev, symObjAddr: 0x150C38, symBinAddr: 0x149788, symSize: 0x4 }
  - { offset: 0xBB2970, size: 0x8, addend: 0x0, symName: __ZN6twitch15AsyncHttpClientD2Ev, symObjAddr: 0x152B4C, symBinAddr: 0x14B64C, symSize: 0x70 }
  - { offset: 0xBB2AE1, size: 0x8, addend: 0x0, symName: __ZN6twitch15AsyncHttpClientD0Ev, symObjAddr: 0x150C3C, symBinAddr: 0x14978C, symSize: 0x14 }
  - { offset: 0xBB2ECC, size: 0x8, addend: 0x0, symName: __ZN6twitch15AsyncHttpClient13createRequestERKNSt3__112basic_stringIcNS1_11char_traitsIcEENS1_9allocatorIcEEEENS_10HttpMethodE, symObjAddr: 0x150C50, symBinAddr: 0x1497A0, symSize: 0x124 }
  - { offset: 0xBB426A, size: 0x8, addend: 0x0, symName: '__ZZN6twitch15AsyncHttpClient4sendENSt3__110shared_ptrINS_11HttpRequestEEENS1_8functionIFvNS2_INS_12HttpResponseEEEEEENS5_IFviRKNS1_12basic_stringIcNS1_11char_traitsIcEENS1_9allocatorIcEEEEEEEEN3$_2D1Ev', symObjAddr: 0x151564, symBinAddr: 0x14A0B4, symSize: 0xC8 }
  - { offset: 0xBB461B, size: 0x8, addend: 0x0, symName: '__ZNSt3__18functionIFvNS_10shared_ptrIN6twitch12HttpResponseEEEEEC1IZNS2_15AsyncHttpClient4sendENS1_INS2_11HttpRequestEEES6_NS0_IFviRKNS_12basic_stringIcNS_11char_traitsIcEENS_9allocatorIcEEEEEEEE3$_0vEET_', symObjAddr: 0x15162C, symBinAddr: 0x14A17C, symSize: 0xA8 }
  - { offset: 0xBB4A76, size: 0x8, addend: 0x0, symName: '__ZNSt3__18functionIFviRKNS_12basic_stringIcNS_11char_traitsIcEENS_9allocatorIcEEEEEEC1IZN6twitch15AsyncHttpClient4sendENS_10shared_ptrINSC_11HttpRequestEEENS0_IFvNSE_INSC_12HttpResponseEEEEEESA_E3$_1vEET_', symObjAddr: 0x1516D4, symBinAddr: 0x14A224, symSize: 0xA0 }
  - { offset: 0xBB56B2, size: 0x8, addend: 0x0, symName: '__ZNSt3__110__function6__funcIZN6twitch15AsyncHttpClient4sendENS_10shared_ptrINS2_11HttpRequestEEENS_8functionIFvNS4_INS2_12HttpResponseEEEEEENS7_IFviRKNS_12basic_stringIcNS_11char_traitsIcEENS_9allocatorIcEEEEEEEE3$_1NSF_ISM_EESK_ED1Ev', symObjAddr: 0x151774, symBinAddr: 0x14A2C4, symSize: 0x74 }
  - { offset: 0xBB5904, size: 0x8, addend: 0x0, symName: '__ZNSt3__110__function6__funcIZN6twitch15AsyncHttpClient4sendENS_10shared_ptrINS2_11HttpRequestEEENS_8functionIFvNS4_INS2_12HttpResponseEEEEEENS7_IFviRKNS_12basic_stringIcNS_11char_traitsIcEENS_9allocatorIcEEEEEEEE3$_1NSF_ISM_EESK_ED0Ev', symObjAddr: 0x1517E8, symBinAddr: 0x14A338, symSize: 0x74 }
  - { offset: 0xBB5CD6, size: 0x8, addend: 0x0, symName: '__ZNKSt3__110__function6__funcIZN6twitch15AsyncHttpClient4sendENS_10shared_ptrINS2_11HttpRequestEEENS_8functionIFvNS4_INS2_12HttpResponseEEEEEENS7_IFviRKNS_12basic_stringIcNS_11char_traitsIcEENS_9allocatorIcEEEEEEEE3$_1NSF_ISM_EESK_E7__cloneEv', symObjAddr: 0x15185C, symBinAddr: 0x14A3AC, symSize: 0x40 }
  - { offset: 0xBB5E7F, size: 0x8, addend: 0x0, symName: '__ZNSt3__122__compressed_pair_elemIZN6twitch15AsyncHttpClient4sendENS_10shared_ptrINS1_11HttpRequestEEENS_8functionIFvNS3_INS1_12HttpResponseEEEEEENS6_IFviRKNS_12basic_stringIcNS_11char_traitsIcEENS_9allocatorIcEEEEEEEE3$_1Li0ELb0EEC2B8nn180100IJRKSL_EJLm0EEEENS_21piecewise_construct_tENS_5tupleIJDpT_EEENS_15__tuple_indicesIJXspT0_EEEE', symObjAddr: 0x151DB4, symBinAddr: 0x14A904, symSize: 0x60 }
  - { offset: 0xBB6243, size: 0x8, addend: 0x0, symName: '__ZNKSt3__110__function6__funcIZN6twitch15AsyncHttpClient4sendENS_10shared_ptrINS2_11HttpRequestEEENS_8functionIFvNS4_INS2_12HttpResponseEEEEEENS7_IFviRKNS_12basic_stringIcNS_11char_traitsIcEENS_9allocatorIcEEEEEEEE3$_1NSF_ISM_EESK_E7__cloneEPNS0_6__baseISK_EE', symObjAddr: 0x15189C, symBinAddr: 0x14A3EC, symSize: 0x1C }
  - { offset: 0xBB63A6, size: 0x8, addend: 0x0, symName: '__ZNSt3__110__function6__funcIZN6twitch15AsyncHttpClient4sendENS_10shared_ptrINS2_11HttpRequestEEENS_8functionIFvNS4_INS2_12HttpResponseEEEEEENS7_IFviRKNS_12basic_stringIcNS_11char_traitsIcEENS_9allocatorIcEEEEEEEE3$_1NSF_ISM_EESK_E7destroyEv', symObjAddr: 0x1518B8, symBinAddr: 0x14A408, symSize: 0x8 }
  - { offset: 0xBB63DD, size: 0x8, addend: 0x0, symName: '__ZNSt3__110__function12__alloc_funcIZN6twitch15AsyncHttpClient4sendENS_10shared_ptrINS2_11HttpRequestEEENS_8functionIFvNS4_INS2_12HttpResponseEEEEEENS7_IFviRKNS_12basic_stringIcNS_11char_traitsIcEENS_9allocatorIcEEEEEEEE3$_1NSF_ISM_EESK_E7destroyB8nn180100Ev', symObjAddr: 0x151D48, symBinAddr: 0x14A898, symSize: 0x6C }
  - { offset: 0xBB65E3, size: 0x8, addend: 0x0, symName: '__ZNSt3__110__function6__funcIZN6twitch15AsyncHttpClient4sendENS_10shared_ptrINS2_11HttpRequestEEENS_8functionIFvNS4_INS2_12HttpResponseEEEEEENS7_IFviRKNS_12basic_stringIcNS_11char_traitsIcEENS_9allocatorIcEEEEEEEE3$_1NSF_ISM_EESK_E18destroy_deallocateEv', symObjAddr: 0x1518C0, symBinAddr: 0x14A410, symSize: 0x28 }
  - { offset: 0xBB6D08, size: 0x8, addend: 0x0, symName: '__ZNSt3__110__function6__funcIZN6twitch15AsyncHttpClient4sendENS_10shared_ptrINS2_11HttpRequestEEENS_8functionIFvNS4_INS2_12HttpResponseEEEEEENS7_IFviRKNS_12basic_stringIcNS_11char_traitsIcEENS_9allocatorIcEEEEEEEE3$_1NSF_ISM_EESK_EclEOiSJ_', symObjAddr: 0x1518E8, symBinAddr: 0x14A438, symSize: 0x1F8 }
  - { offset: 0xBB782B, size: 0x8, addend: 0x0, symName: '__ZNSt3__110__function6__funcIZZN6twitch15AsyncHttpClient4sendENS_10shared_ptrINS2_11HttpRequestEEENS_8functionIFvNS4_INS2_12HttpResponseEEEEEENS7_IFviRKNS_12basic_stringIcNS_11char_traitsIcEENS_9allocatorIcEEEEEEEENK3$_1clEiSJ_EUlvE_NSF_ISN_EEFvvEED1Ev', symObjAddr: 0x151AE0, symBinAddr: 0x14A630, symSize: 0x6C }
  - { offset: 0xBB7B21, size: 0x8, addend: 0x0, symName: '__ZNSt3__110__function6__funcIZZN6twitch15AsyncHttpClient4sendENS_10shared_ptrINS2_11HttpRequestEEENS_8functionIFvNS4_INS2_12HttpResponseEEEEEENS7_IFviRKNS_12basic_stringIcNS_11char_traitsIcEENS_9allocatorIcEEEEEEEENK3$_1clEiSJ_EUlvE_NSF_ISN_EEFvvEED0Ev', symObjAddr: 0x151B4C, symBinAddr: 0x14A69C, symSize: 0x6C }
  - { offset: 0xBB7F97, size: 0x8, addend: 0x0, symName: '__ZNKSt3__110__function6__funcIZZN6twitch15AsyncHttpClient4sendENS_10shared_ptrINS2_11HttpRequestEEENS_8functionIFvNS4_INS2_12HttpResponseEEEEEENS7_IFviRKNS_12basic_stringIcNS_11char_traitsIcEENS_9allocatorIcEEEEEEEENK3$_1clEiSJ_EUlvE_NSF_ISN_EEFvvEE7__cloneEv', symObjAddr: 0x151BB8, symBinAddr: 0x14A708, symSize: 0x40 }
  - { offset: 0xBB8140, size: 0x8, addend: 0x0, symName: '__ZNSt3__122__compressed_pair_elemIZZN6twitch15AsyncHttpClient4sendENS_10shared_ptrINS1_11HttpRequestEEENS_8functionIFvNS3_INS1_12HttpResponseEEEEEENS6_IFviRKNS_12basic_stringIcNS_11char_traitsIcEENS_9allocatorIcEEEEEEEENK3$_1clEiSI_EUlvE_Li0ELb0EEC2B8nn180100IJRKSM_EJLm0EEEENS_21piecewise_construct_tENS_5tupleIJDpT_EEENS_15__tuple_indicesIJXspT0_EEEE', symObjAddr: 0x151CEC, symBinAddr: 0x14A83C, symSize: 0x5C }
  - { offset: 0xBB845F, size: 0x8, addend: 0x0, symName: '__ZNKSt3__110__function6__funcIZZN6twitch15AsyncHttpClient4sendENS_10shared_ptrINS2_11HttpRequestEEENS_8functionIFvNS4_INS2_12HttpResponseEEEEEENS7_IFviRKNS_12basic_stringIcNS_11char_traitsIcEENS_9allocatorIcEEEEEEEENK3$_1clEiSJ_EUlvE_NSF_ISN_EEFvvEE7__cloneEPNS0_6__baseISP_EE', symObjAddr: 0x151BF8, symBinAddr: 0x14A748, symSize: 0x1C }
  - { offset: 0xBB85C2, size: 0x8, addend: 0x0, symName: '__ZNSt3__110__function6__funcIZZN6twitch15AsyncHttpClient4sendENS_10shared_ptrINS2_11HttpRequestEEENS_8functionIFvNS4_INS2_12HttpResponseEEEEEENS7_IFviRKNS_12basic_stringIcNS_11char_traitsIcEENS_9allocatorIcEEEEEEEENK3$_1clEiSJ_EUlvE_NSF_ISN_EEFvvEE7destroyEv', symObjAddr: 0x151C14, symBinAddr: 0x14A764, symSize: 0x8 }
  - { offset: 0xBB85F9, size: 0x8, addend: 0x0, symName: '__ZNSt3__110__function12__alloc_funcIZZN6twitch15AsyncHttpClient4sendENS_10shared_ptrINS2_11HttpRequestEEENS_8functionIFvNS4_INS2_12HttpResponseEEEEEENS7_IFviRKNS_12basic_stringIcNS_11char_traitsIcEENS_9allocatorIcEEEEEEEENK3$_1clEiSJ_EUlvE_NSF_ISN_EEFvvEE7destroyB8nn180100Ev', symObjAddr: 0x151C88, symBinAddr: 0x14A7D8, symSize: 0x64 }
  - { offset: 0xBB88B5, size: 0x8, addend: 0x0, symName: '__ZNSt3__110__function6__funcIZZN6twitch15AsyncHttpClient4sendENS_10shared_ptrINS2_11HttpRequestEEENS_8functionIFvNS4_INS2_12HttpResponseEEEEEENS7_IFviRKNS_12basic_stringIcNS_11char_traitsIcEENS_9allocatorIcEEEEEEEENK3$_1clEiSJ_EUlvE_NSF_ISN_EEFvvEE18destroy_deallocateEv', symObjAddr: 0x151C1C, symBinAddr: 0x14A76C, symSize: 0x28 }
  - { offset: 0xBB8A6D, size: 0x8, addend: 0x0, symName: '__ZNSt3__110__function6__funcIZZN6twitch15AsyncHttpClient4sendENS_10shared_ptrINS2_11HttpRequestEEENS_8functionIFvNS4_INS2_12HttpResponseEEEEEENS7_IFviRKNS_12basic_stringIcNS_11char_traitsIcEENS_9allocatorIcEEEEEEEENK3$_1clEiSJ_EUlvE_NSF_ISN_EEFvvEEclEv', symObjAddr: 0x151C44, symBinAddr: 0x14A794, symSize: 0x44 }
  - { offset: 0xBB8B60, size: 0x8, addend: 0x0, symName: '__ZNSt3__110__function12__alloc_funcIZZN6twitch15AsyncHttpClient4sendENS_10shared_ptrINS2_11HttpRequestEEENS_8functionIFvNS4_INS2_12HttpResponseEEEEEENS7_IFviRKNS_12basic_stringIcNS_11char_traitsIcEENS_9allocatorIcEEEEEEEENK3$_1clEiSJ_EUlvE_NSF_ISN_EEFvvEE7destroyB8nn180100Ev', symObjAddr: 0x151C88, symBinAddr: 0x14A7D8, symSize: 0x64 }
  - { offset: 0xBB8C55, size: 0x8, addend: 0x0, symName: '__ZNSt3__110__function6__funcIZN6twitch15AsyncHttpClient4sendENS_10shared_ptrINS2_11HttpRequestEEENS_8functionIFvNS4_INS2_12HttpResponseEEEEEENS7_IFviRKNS_12basic_stringIcNS_11char_traitsIcEENS_9allocatorIcEEEEEEEE3$_0NSF_ISM_EESA_ED1Ev', symObjAddr: 0x151E14, symBinAddr: 0x14A964, symSize: 0x80 }
  - { offset: 0xBB8EEC, size: 0x8, addend: 0x0, symName: '__ZNSt3__110__function6__funcIZN6twitch15AsyncHttpClient4sendENS_10shared_ptrINS2_11HttpRequestEEENS_8functionIFvNS4_INS2_12HttpResponseEEEEEENS7_IFviRKNS_12basic_stringIcNS_11char_traitsIcEENS_9allocatorIcEEEEEEEE3$_0NSF_ISM_EESA_ED0Ev', symObjAddr: 0x151E94, symBinAddr: 0x14A9E4, symSize: 0x80 }
  - { offset: 0xBB9303, size: 0x8, addend: 0x0, symName: '__ZNKSt3__110__function6__funcIZN6twitch15AsyncHttpClient4sendENS_10shared_ptrINS2_11HttpRequestEEENS_8functionIFvNS4_INS2_12HttpResponseEEEEEENS7_IFviRKNS_12basic_stringIcNS_11char_traitsIcEENS_9allocatorIcEEEEEEEE3$_0NSF_ISM_EESA_E7__cloneEv', symObjAddr: 0x151F14, symBinAddr: 0x14AA64, symSize: 0x40 }
  - { offset: 0xBB94AC, size: 0x8, addend: 0x0, symName: '__ZNSt3__122__compressed_pair_elemIZN6twitch15AsyncHttpClient4sendENS_10shared_ptrINS1_11HttpRequestEEENS_8functionIFvNS3_INS1_12HttpResponseEEEEEENS6_IFviRKNS_12basic_stringIcNS_11char_traitsIcEENS_9allocatorIcEEEEEEEE3$_0Li0ELb0EEC2B8nn180100IJRKSL_EJLm0EEEENS_21piecewise_construct_tENS_5tupleIJDpT_EEENS_15__tuple_indicesIJXspT0_EEEE', symObjAddr: 0x15260C, symBinAddr: 0x14B10C, symSize: 0x78 }
  - { offset: 0xBB9908, size: 0x8, addend: 0x0, symName: '__ZNKSt3__110__function6__funcIZN6twitch15AsyncHttpClient4sendENS_10shared_ptrINS2_11HttpRequestEEENS_8functionIFvNS4_INS2_12HttpResponseEEEEEENS7_IFviRKNS_12basic_stringIcNS_11char_traitsIcEENS_9allocatorIcEEEEEEEE3$_0NSF_ISM_EESA_E7__cloneEPNS0_6__baseISA_EE', symObjAddr: 0x151F54, symBinAddr: 0x14AAA4, symSize: 0x1C }
  - { offset: 0xBB9A6B, size: 0x8, addend: 0x0, symName: '__ZNSt3__110__function6__funcIZN6twitch15AsyncHttpClient4sendENS_10shared_ptrINS2_11HttpRequestEEENS_8functionIFvNS4_INS2_12HttpResponseEEEEEENS7_IFviRKNS_12basic_stringIcNS_11char_traitsIcEENS_9allocatorIcEEEEEEEE3$_0NSF_ISM_EESA_E7destroyEv', symObjAddr: 0x151F70, symBinAddr: 0x14AAC0, symSize: 0x8 }
  - { offset: 0xBB9AA2, size: 0x8, addend: 0x0, symName: '__ZNSt3__110__function12__alloc_funcIZN6twitch15AsyncHttpClient4sendENS_10shared_ptrINS2_11HttpRequestEEENS_8functionIFvNS4_INS2_12HttpResponseEEEEEENS7_IFviRKNS_12basic_stringIcNS_11char_traitsIcEENS_9allocatorIcEEEEEEEE3$_0NSF_ISM_EESA_E7destroyB8nn180100Ev', symObjAddr: 0x152594, symBinAddr: 0x14B094, symSize: 0x78 }
  - { offset: 0xBB9CEB, size: 0x8, addend: 0x0, symName: '__ZNSt3__110__function6__funcIZN6twitch15AsyncHttpClient4sendENS_10shared_ptrINS2_11HttpRequestEEENS_8functionIFvNS4_INS2_12HttpResponseEEEEEENS7_IFviRKNS_12basic_stringIcNS_11char_traitsIcEENS_9allocatorIcEEEEEEEE3$_0NSF_ISM_EESA_E18destroy_deallocateEv', symObjAddr: 0x151F78, symBinAddr: 0x14AAC8, symSize: 0x28 }
  - { offset: 0xBBA6AC, size: 0x8, addend: 0x0, symName: '__ZNSt3__110__function6__funcIZN6twitch15AsyncHttpClient4sendENS_10shared_ptrINS2_11HttpRequestEEENS_8functionIFvNS4_INS2_12HttpResponseEEEEEENS7_IFviRKNS_12basic_stringIcNS_11char_traitsIcEENS_9allocatorIcEEEEEEEE3$_0NSF_ISM_EESA_EclEOS9_', symObjAddr: 0x151FA0, symBinAddr: 0x14AAF0, symSize: 0x2B0 }
  - { offset: 0xBBB60B, size: 0x8, addend: 0x0, symName: '__ZNSt3__110__function6__funcIZZN6twitch15AsyncHttpClient4sendENS_10shared_ptrINS2_11HttpRequestEEENS_8functionIFvNS4_INS2_12HttpResponseEEEEEENS7_IFviRKNS_12basic_stringIcNS_11char_traitsIcEENS_9allocatorIcEEEEEEEENK3$_0clERKS9_EUlvE_NSF_ISP_EEFvvEED1Ev', symObjAddr: 0x152250, symBinAddr: 0x14ADA0, symSize: 0x64 }
  - { offset: 0xBBB83B, size: 0x8, addend: 0x0, symName: '__ZNSt3__110__function6__funcIZZN6twitch15AsyncHttpClient4sendENS_10shared_ptrINS2_11HttpRequestEEENS_8functionIFvNS4_INS2_12HttpResponseEEEEEENS7_IFviRKNS_12basic_stringIcNS_11char_traitsIcEENS_9allocatorIcEEEEEEEENK3$_0clERKS9_EUlvE_NSF_ISP_EEFvvEED0Ev', symObjAddr: 0x1522B4, symBinAddr: 0x14AE04, symSize: 0x64 }
  - { offset: 0xBBBC2C, size: 0x8, addend: 0x0, symName: '__ZNKSt3__110__function6__funcIZZN6twitch15AsyncHttpClient4sendENS_10shared_ptrINS2_11HttpRequestEEENS_8functionIFvNS4_INS2_12HttpResponseEEEEEENS7_IFviRKNS_12basic_stringIcNS_11char_traitsIcEENS_9allocatorIcEEEEEEEENK3$_0clERKS9_EUlvE_NSF_ISP_EEFvvEE7__cloneEv', symObjAddr: 0x152318, symBinAddr: 0x14AE68, symSize: 0x64 }
  - { offset: 0xBBC0E3, size: 0x8, addend: 0x0, symName: '__ZNKSt3__110__function6__funcIZZN6twitch15AsyncHttpClient4sendENS_10shared_ptrINS2_11HttpRequestEEENS_8functionIFvNS4_INS2_12HttpResponseEEEEEENS7_IFviRKNS_12basic_stringIcNS_11char_traitsIcEENS_9allocatorIcEEEEEEEENK3$_0clERKS9_EUlvE_NSF_ISP_EEFvvEE7__cloneEPNS0_6__baseISR_EE', symObjAddr: 0x15237C, symBinAddr: 0x14AECC, symSize: 0x50 }
  - { offset: 0xBBC410, size: 0x8, addend: 0x0, symName: '__ZNSt3__110__function6__funcIZZN6twitch15AsyncHttpClient4sendENS_10shared_ptrINS2_11HttpRequestEEENS_8functionIFvNS4_INS2_12HttpResponseEEEEEENS7_IFviRKNS_12basic_stringIcNS_11char_traitsIcEENS_9allocatorIcEEEEEEEENK3$_0clERKS9_EUlvE_NSF_ISP_EEFvvEE7destroyEv', symObjAddr: 0x1523CC, symBinAddr: 0x14AF1C, symSize: 0x5C }
  - { offset: 0xBBC5E3, size: 0x8, addend: 0x0, symName: '__ZNSt3__110__function6__funcIZZN6twitch15AsyncHttpClient4sendENS_10shared_ptrINS2_11HttpRequestEEENS_8functionIFvNS4_INS2_12HttpResponseEEEEEENS7_IFviRKNS_12basic_stringIcNS_11char_traitsIcEENS_9allocatorIcEEEEEEEENK3$_0clERKS9_EUlvE_NSF_ISP_EEFvvEE18destroy_deallocateEv', symObjAddr: 0x152428, symBinAddr: 0x14AF78, symSize: 0x58 }
  - { offset: 0xBBC971, size: 0x8, addend: 0x0, symName: '__ZNSt3__110__function6__funcIZZN6twitch15AsyncHttpClient4sendENS_10shared_ptrINS2_11HttpRequestEEENS_8functionIFvNS4_INS2_12HttpResponseEEEEEENS7_IFviRKNS_12basic_stringIcNS_11char_traitsIcEENS_9allocatorIcEEEEEEEENK3$_0clERKS9_EUlvE_NSF_ISP_EEFvvEEclEv', symObjAddr: 0x152480, symBinAddr: 0x14AFD0, symSize: 0x84 }
  - { offset: 0xBBCBCC, size: 0x8, addend: 0x0, symName: __ZNSt3__120__shared_ptr_emplaceIN6twitch17AsyncHttpResponseENS_9allocatorIS2_EEED1Ev, symObjAddr: 0x152554, symBinAddr: 0x14B054, symSize: 0x10 }
  - { offset: 0xBBCBF0, size: 0x8, addend: 0x0, symName: __ZNSt3__120__shared_ptr_emplaceIN6twitch17AsyncHttpResponseENS_9allocatorIS2_EEED1Ev, symObjAddr: 0x152554, symBinAddr: 0x14B054, symSize: 0x10 }
  - { offset: 0xBBCC27, size: 0x8, addend: 0x0, symName: __ZNSt3__120__shared_ptr_emplaceIN6twitch17AsyncHttpResponseENS_9allocatorIS2_EEED0Ev, symObjAddr: 0x152564, symBinAddr: 0x14B064, symSize: 0x20 }
  - { offset: 0xBBCCF6, size: 0x8, addend: 0x0, symName: __ZNSt3__120__shared_ptr_emplaceIN6twitch17AsyncHttpResponseENS_9allocatorIS2_EEE16__on_zero_sharedEv, symObjAddr: 0x152584, symBinAddr: 0x14B084, symSize: 0xC }
  - { offset: 0xBBCD20, size: 0x8, addend: 0x0, symName: __ZNSt3__120__shared_ptr_emplaceIN6twitch17AsyncHttpResponseENS_9allocatorIS2_EEE16__on_zero_sharedEv, symObjAddr: 0x152584, symBinAddr: 0x14B084, symSize: 0xC }
  - { offset: 0xBBCD40, size: 0x8, addend: 0x0, symName: __ZNSt3__120__shared_ptr_emplaceIN6twitch17AsyncHttpResponseENS_9allocatorIS2_EEE16__on_zero_sharedEv, symObjAddr: 0x152584, symBinAddr: 0x14B084, symSize: 0xC }
  - { offset: 0xBBCD60, size: 0x8, addend: 0x0, symName: __ZNSt3__120__shared_ptr_emplaceIN6twitch17AsyncHttpResponseENS_9allocatorIS2_EEE16__on_zero_sharedEv, symObjAddr: 0x152584, symBinAddr: 0x14B084, symSize: 0xC }
  - { offset: 0xBBCDE9, size: 0x8, addend: 0x0, symName: __ZNSt3__120__shared_ptr_emplaceIN6twitch17AsyncHttpResponseENS_9allocatorIS2_EEE21__on_zero_shared_weakEv, symObjAddr: 0x152590, symBinAddr: 0x14B090, symSize: 0x4 }
  - { offset: 0xBBCE1E, size: 0x8, addend: 0x0, symName: __ZNSt3__120__shared_ptr_emplaceIN6twitch17AsyncHttpResponseENS_9allocatorIS2_EEE21__on_zero_shared_weakEv, symObjAddr: 0x152590, symBinAddr: 0x14B090, symSize: 0x4 }
  - { offset: 0xBBCE43, size: 0x8, addend: 0x0, symName: __ZNSt3__120__shared_ptr_emplaceIN6twitch17AsyncHttpResponseENS_9allocatorIS2_EEE21__on_zero_shared_weakEv, symObjAddr: 0x152590, symBinAddr: 0x14B090, symSize: 0x4 }
  - { offset: 0xBBCE68, size: 0x8, addend: 0x0, symName: __ZNSt3__120__shared_ptr_emplaceIN6twitch17AsyncHttpResponseENS_9allocatorIS2_EEE21__on_zero_shared_weakEv, symObjAddr: 0x152590, symBinAddr: 0x14B090, symSize: 0x4 }
  - { offset: 0xBBCE98, size: 0x8, addend: 0x0, symName: __ZNSt3__120__shared_ptr_emplaceIN6twitch17AsyncHttpResponseENS_9allocatorIS2_EEE21__on_zero_shared_weakEv, symObjAddr: 0x152590, symBinAddr: 0x14B090, symSize: 0x4 }
  - { offset: 0xBBCEC2, size: 0x8, addend: 0x0, symName: __ZNSt3__120__shared_ptr_emplaceIN6twitch17AsyncHttpResponseENS_9allocatorIS2_EEE21__on_zero_shared_weakEv, symObjAddr: 0x152590, symBinAddr: 0x14B090, symSize: 0x4 }
  - { offset: 0xBBCF97, size: 0x8, addend: 0x0, symName: '__ZNSt3__110__function6__funcIZN6twitch15AsyncHttpClient4sendENS_10shared_ptrINS2_11HttpRequestEEENS_8functionIFvNS4_INS2_12HttpResponseEEEEEENS7_IFviRKNS_12basic_stringIcNS_11char_traitsIcEENS_9allocatorIcEEEEEEEE3$_2NSF_ISM_EEFvvEED1Ev', symObjAddr: 0x152684, symBinAddr: 0x14B184, symSize: 0x30 }
  - { offset: 0xBBD098, size: 0x8, addend: 0x0, symName: '__ZNSt3__110__function6__funcIZN6twitch15AsyncHttpClient4sendENS_10shared_ptrINS2_11HttpRequestEEENS_8functionIFvNS4_INS2_12HttpResponseEEEEEENS7_IFviRKNS_12basic_stringIcNS_11char_traitsIcEENS_9allocatorIcEEEEEEEE3$_2NSF_ISM_EEFvvEED0Ev', symObjAddr: 0x1526B4, symBinAddr: 0x14B1B4, symSize: 0x30 }
  - { offset: 0xBBD319, size: 0x8, addend: 0x0, symName: '__ZNKSt3__110__function6__funcIZN6twitch15AsyncHttpClient4sendENS_10shared_ptrINS2_11HttpRequestEEENS_8functionIFvNS4_INS2_12HttpResponseEEEEEENS7_IFviRKNS_12basic_stringIcNS_11char_traitsIcEENS_9allocatorIcEEEEEEEE3$_2NSF_ISM_EEFvvEE7__cloneEv', symObjAddr: 0x1526E4, symBinAddr: 0x14B1E4, symSize: 0x40 }
  - { offset: 0xBBD4C4, size: 0x8, addend: 0x0, symName: '__ZNSt3__122__compressed_pair_elemIZN6twitch15AsyncHttpClient4sendENS_10shared_ptrINS1_11HttpRequestEEENS_8functionIFvNS3_INS1_12HttpResponseEEEEEENS6_IFviRKNS_12basic_stringIcNS_11char_traitsIcEENS_9allocatorIcEEEEEEEE3$_2Li0ELb0EEC2B8nn180100IJRKSL_EJLm0EEEENS_21piecewise_construct_tENS_5tupleIJDpT_EEENS_15__tuple_indicesIJXspT0_EEEE', symObjAddr: 0x152A28, symBinAddr: 0x14B528, symSize: 0xE4 }
  - { offset: 0xBBDCCA, size: 0x8, addend: 0x0, symName: '__ZNKSt3__110__function6__funcIZN6twitch15AsyncHttpClient4sendENS_10shared_ptrINS2_11HttpRequestEEENS_8functionIFvNS4_INS2_12HttpResponseEEEEEENS7_IFviRKNS_12basic_stringIcNS_11char_traitsIcEENS_9allocatorIcEEEEEEEE3$_2NSF_ISM_EEFvvEE7__cloneEPNS0_6__baseISO_EE', symObjAddr: 0x152724, symBinAddr: 0x14B224, symSize: 0x1C }
  - { offset: 0xBBDE43, size: 0x8, addend: 0x0, symName: '__ZNSt3__110__function6__funcIZN6twitch15AsyncHttpClient4sendENS_10shared_ptrINS2_11HttpRequestEEENS_8functionIFvNS4_INS2_12HttpResponseEEEEEENS7_IFviRKNS_12basic_stringIcNS_11char_traitsIcEENS_9allocatorIcEEEEEEEE3$_2NSF_ISM_EEFvvEE7destroyEv', symObjAddr: 0x152740, symBinAddr: 0x14B240, symSize: 0x8 }
  - { offset: 0xBBDF21, size: 0x8, addend: 0x0, symName: '__ZNSt3__110__function6__funcIZN6twitch15AsyncHttpClient4sendENS_10shared_ptrINS2_11HttpRequestEEENS_8functionIFvNS4_INS2_12HttpResponseEEEEEENS7_IFviRKNS_12basic_stringIcNS_11char_traitsIcEENS_9allocatorIcEEEEEEEE3$_2NSF_ISM_EEFvvEE18destroy_deallocateEv', symObjAddr: 0x152748, symBinAddr: 0x14B248, symSize: 0x28 }
  - { offset: 0xBBE129, size: 0x8, addend: 0x0, symName: '__ZNSt3__110__function6__funcIZN6twitch15AsyncHttpClient4sendENS_10shared_ptrINS2_11HttpRequestEEENS_8functionIFvNS4_INS2_12HttpResponseEEEEEENS7_IFviRKNS_12basic_stringIcNS_11char_traitsIcEENS_9allocatorIcEEEEEEEE3$_2NSF_ISM_EEFvvEEclEv', symObjAddr: 0x152770, symBinAddr: 0x14B270, symSize: 0x2B8 }
  - { offset: 0xBBED34, size: 0x8, addend: 0x0, symName: __ZNSt3__120__shared_ptr_emplaceIN6twitch16AsyncHttpRequestENS_9allocatorIS2_EEED1Ev, symObjAddr: 0x152B0C, symBinAddr: 0x14B60C, symSize: 0x10 }
  - { offset: 0xBBED58, size: 0x8, addend: 0x0, symName: __ZNSt3__120__shared_ptr_emplaceIN6twitch16AsyncHttpRequestENS_9allocatorIS2_EEED1Ev, symObjAddr: 0x152B0C, symBinAddr: 0x14B60C, symSize: 0x10 }
  - { offset: 0xBBED8F, size: 0x8, addend: 0x0, symName: __ZNSt3__120__shared_ptr_emplaceIN6twitch16AsyncHttpRequestENS_9allocatorIS2_EEED0Ev, symObjAddr: 0x152B1C, symBinAddr: 0x14B61C, symSize: 0x20 }
  - { offset: 0xBBEE5E, size: 0x8, addend: 0x0, symName: __ZNSt3__120__shared_ptr_emplaceIN6twitch16AsyncHttpRequestENS_9allocatorIS2_EEE16__on_zero_sharedEv, symObjAddr: 0x152B3C, symBinAddr: 0x14B63C, symSize: 0xC }
  - { offset: 0xBBEE88, size: 0x8, addend: 0x0, symName: __ZNSt3__120__shared_ptr_emplaceIN6twitch16AsyncHttpRequestENS_9allocatorIS2_EEE16__on_zero_sharedEv, symObjAddr: 0x152B3C, symBinAddr: 0x14B63C, symSize: 0xC }
  - { offset: 0xBBEEA8, size: 0x8, addend: 0x0, symName: __ZNSt3__120__shared_ptr_emplaceIN6twitch16AsyncHttpRequestENS_9allocatorIS2_EEE16__on_zero_sharedEv, symObjAddr: 0x152B3C, symBinAddr: 0x14B63C, symSize: 0xC }
  - { offset: 0xBBEEC8, size: 0x8, addend: 0x0, symName: __ZNSt3__120__shared_ptr_emplaceIN6twitch16AsyncHttpRequestENS_9allocatorIS2_EEE16__on_zero_sharedEv, symObjAddr: 0x152B3C, symBinAddr: 0x14B63C, symSize: 0xC }
  - { offset: 0xBBEF51, size: 0x8, addend: 0x0, symName: __ZNSt3__120__shared_ptr_emplaceIN6twitch16AsyncHttpRequestENS_9allocatorIS2_EEE21__on_zero_shared_weakEv, symObjAddr: 0x152B48, symBinAddr: 0x14B648, symSize: 0x4 }
  - { offset: 0xBBEF86, size: 0x8, addend: 0x0, symName: __ZNSt3__120__shared_ptr_emplaceIN6twitch16AsyncHttpRequestENS_9allocatorIS2_EEE21__on_zero_shared_weakEv, symObjAddr: 0x152B48, symBinAddr: 0x14B648, symSize: 0x4 }
  - { offset: 0xBBEFAB, size: 0x8, addend: 0x0, symName: __ZNSt3__120__shared_ptr_emplaceIN6twitch16AsyncHttpRequestENS_9allocatorIS2_EEE21__on_zero_shared_weakEv, symObjAddr: 0x152B48, symBinAddr: 0x14B648, symSize: 0x4 }
  - { offset: 0xBBEFD0, size: 0x8, addend: 0x0, symName: __ZNSt3__120__shared_ptr_emplaceIN6twitch16AsyncHttpRequestENS_9allocatorIS2_EEE21__on_zero_shared_weakEv, symObjAddr: 0x152B48, symBinAddr: 0x14B648, symSize: 0x4 }
  - { offset: 0xBBF000, size: 0x8, addend: 0x0, symName: __ZNSt3__120__shared_ptr_emplaceIN6twitch16AsyncHttpRequestENS_9allocatorIS2_EEE21__on_zero_shared_weakEv, symObjAddr: 0x152B48, symBinAddr: 0x14B648, symSize: 0x4 }
  - { offset: 0xBBF02A, size: 0x8, addend: 0x0, symName: __ZNSt3__120__shared_ptr_emplaceIN6twitch16AsyncHttpRequestENS_9allocatorIS2_EEE21__on_zero_shared_weakEv, symObjAddr: 0x152B48, symBinAddr: 0x14B648, symSize: 0x4 }
  - { offset: 0xBBF0C9, size: 0x8, addend: 0x0, symName: __ZNSt3__120__shared_ptr_emplaceIN6twitch11HttpHeadersENS_9allocatorIS2_EEED1Ev, symObjAddr: 0x152BBC, symBinAddr: 0x14B6BC, symSize: 0x10 }
  - { offset: 0xBBF0ED, size: 0x8, addend: 0x0, symName: __ZNSt3__120__shared_ptr_emplaceIN6twitch11HttpHeadersENS_9allocatorIS2_EEED1Ev, symObjAddr: 0x152BBC, symBinAddr: 0x14B6BC, symSize: 0x10 }
  - { offset: 0xBBF124, size: 0x8, addend: 0x0, symName: __ZNSt3__120__shared_ptr_emplaceIN6twitch11HttpHeadersENS_9allocatorIS2_EEED0Ev, symObjAddr: 0x152BCC, symBinAddr: 0x14B6CC, symSize: 0x20 }
  - { offset: 0xBBF2AD, size: 0x8, addend: 0x0, symName: __ZNSt3__120__shared_ptr_emplaceIN6twitch11HttpHeadersENS_9allocatorIS2_EEE16__on_zero_sharedEv, symObjAddr: 0x152BEC, symBinAddr: 0x14B6EC, symSize: 0x8 }
  - { offset: 0xBBF2D7, size: 0x8, addend: 0x0, symName: __ZNSt3__120__shared_ptr_emplaceIN6twitch11HttpHeadersENS_9allocatorIS2_EEE16__on_zero_sharedEv, symObjAddr: 0x152BEC, symBinAddr: 0x14B6EC, symSize: 0x8 }
  - { offset: 0xBBF2F7, size: 0x8, addend: 0x0, symName: __ZNSt3__120__shared_ptr_emplaceIN6twitch11HttpHeadersENS_9allocatorIS2_EEE16__on_zero_sharedEv, symObjAddr: 0x152BEC, symBinAddr: 0x14B6EC, symSize: 0x8 }
  - { offset: 0xBBF317, size: 0x8, addend: 0x0, symName: __ZNSt3__120__shared_ptr_emplaceIN6twitch11HttpHeadersENS_9allocatorIS2_EEE16__on_zero_sharedEv, symObjAddr: 0x152BEC, symBinAddr: 0x14B6EC, symSize: 0x8 }
  - { offset: 0xBBF337, size: 0x8, addend: 0x0, symName: __ZNSt3__120__shared_ptr_emplaceIN6twitch11HttpHeadersENS_9allocatorIS2_EEE16__on_zero_sharedEv, symObjAddr: 0x152BEC, symBinAddr: 0x14B6EC, symSize: 0x8 }
  - { offset: 0xBBF356, size: 0x8, addend: 0x0, symName: __ZNSt3__120__shared_ptr_emplaceIN6twitch11HttpHeadersENS_9allocatorIS2_EEE16__on_zero_sharedEv, symObjAddr: 0x152BEC, symBinAddr: 0x14B6EC, symSize: 0x8 }
  - { offset: 0xBBF375, size: 0x8, addend: 0x0, symName: __ZNSt3__120__shared_ptr_emplaceIN6twitch11HttpHeadersENS_9allocatorIS2_EEE16__on_zero_sharedEv, symObjAddr: 0x152BEC, symBinAddr: 0x14B6EC, symSize: 0x8 }
  - { offset: 0xBBF394, size: 0x8, addend: 0x0, symName: __ZNSt3__120__shared_ptr_emplaceIN6twitch11HttpHeadersENS_9allocatorIS2_EEE16__on_zero_sharedEv, symObjAddr: 0x152BEC, symBinAddr: 0x14B6EC, symSize: 0x8 }
  - { offset: 0xBBF3B4, size: 0x8, addend: 0x0, symName: __ZNSt3__120__shared_ptr_emplaceIN6twitch11HttpHeadersENS_9allocatorIS2_EEE16__on_zero_sharedEv, symObjAddr: 0x152BEC, symBinAddr: 0x14B6EC, symSize: 0x8 }
  - { offset: 0xBBF3D4, size: 0x8, addend: 0x0, symName: __ZNSt3__120__shared_ptr_emplaceIN6twitch11HttpHeadersENS_9allocatorIS2_EEE16__on_zero_sharedEv, symObjAddr: 0x152BEC, symBinAddr: 0x14B6EC, symSize: 0x8 }
  - { offset: 0xBBF3F4, size: 0x8, addend: 0x0, symName: __ZNSt3__120__shared_ptr_emplaceIN6twitch11HttpHeadersENS_9allocatorIS2_EEE16__on_zero_sharedEv, symObjAddr: 0x152BEC, symBinAddr: 0x14B6EC, symSize: 0x8 }
  - { offset: 0xBBF56A, size: 0x8, addend: 0x0, symName: __ZNSt3__120__shared_ptr_emplaceIN6twitch11HttpHeadersENS_9allocatorIS2_EEE21__on_zero_shared_weakEv, symObjAddr: 0x152BF4, symBinAddr: 0x14B6F4, symSize: 0x4 }
  - { offset: 0xBBF59F, size: 0x8, addend: 0x0, symName: __ZNSt3__120__shared_ptr_emplaceIN6twitch11HttpHeadersENS_9allocatorIS2_EEE21__on_zero_shared_weakEv, symObjAddr: 0x152BF4, symBinAddr: 0x14B6F4, symSize: 0x4 }
  - { offset: 0xBBF5C4, size: 0x8, addend: 0x0, symName: __ZNSt3__120__shared_ptr_emplaceIN6twitch11HttpHeadersENS_9allocatorIS2_EEE21__on_zero_shared_weakEv, symObjAddr: 0x152BF4, symBinAddr: 0x14B6F4, symSize: 0x4 }
  - { offset: 0xBBF5E9, size: 0x8, addend: 0x0, symName: __ZNSt3__120__shared_ptr_emplaceIN6twitch11HttpHeadersENS_9allocatorIS2_EEE21__on_zero_shared_weakEv, symObjAddr: 0x152BF4, symBinAddr: 0x14B6F4, symSize: 0x4 }
  - { offset: 0xBBF619, size: 0x8, addend: 0x0, symName: __ZNSt3__120__shared_ptr_emplaceIN6twitch11HttpHeadersENS_9allocatorIS2_EEE21__on_zero_shared_weakEv, symObjAddr: 0x152BF4, symBinAddr: 0x14B6F4, symSize: 0x4 }
  - { offset: 0xBBF643, size: 0x8, addend: 0x0, symName: __ZNSt3__120__shared_ptr_emplaceIN6twitch11HttpHeadersENS_9allocatorIS2_EEE21__on_zero_shared_weakEv, symObjAddr: 0x152BF4, symBinAddr: 0x14B6F4, symSize: 0x4 }
  - { offset: 0x33B2DF, size: 0x8, addend: 0x0, symName: '-[IVSMixedAudioDeviceSourceConfiguration init]', symObjAddr: 0x46BF0, symBinAddr: 0x47AD0, symSize: 0x40 }
  - { offset: 0x33C035, size: 0x8, addend: 0x0, symName: '-[IVSMixedAudioDeviceSourceConfiguration init]', symObjAddr: 0x46BF0, symBinAddr: 0x47AD0, symSize: 0x40 }
  - { offset: 0x33C06C, size: 0x8, addend: 0x0, symName: '-[IVSMixedAudioDeviceSourceConfiguration setGain:error:]', symObjAddr: 0x46C30, symBinAddr: 0x47B10, symSize: 0x10C }
  - { offset: 0x33C0C3, size: 0x8, addend: 0x0, symName: '-[IVSMixedAudioDeviceSourceConfiguration gain]', symObjAddr: 0x46D3C, symBinAddr: 0x47C1C, symSize: 0x8 }
  - { offset: 0xA3EC6C, size: 0x8, addend: 0x0, symName: _X509_CERT_AUX_it, symObjAddr: 0x1E26C0, symBinAddr: 0x1E9678, symSize: 0x0 }
  - { offset: 0xA3ED7C, size: 0x8, addend: 0x0, symName: _X509_CERT_AUX_seq_tt, symObjAddr: 0x1E25F8, symBinAddr: 0x1E95B0, symSize: 0x0 }
  - { offset: 0x9F54CD, size: 0x8, addend: 0x0, symName: _ECDSA_size, symObjAddr: 0xF886C, symBinAddr: 0xF2B14, symSize: 0xCC }
  - { offset: 0x9F5FF8, size: 0x8, addend: 0x0, symName: _ECDSA_size, symObjAddr: 0xF886C, symBinAddr: 0xF2B14, symSize: 0xCC }
  - { offset: 0x9F615C, size: 0x8, addend: 0x0, symName: _ECDSA_SIG_marshal, symObjAddr: 0xF8938, symBinAddr: 0xF2BE0, symSize: 0x8C }
  - { offset: 0xA169FD, size: 0x8, addend: 0x0, symName: _CRYPTO_refcount_inc, symObjAddr: 0x103E68, symBinAddr: 0xFE110, symSize: 0x54 }
  - { offset: 0xA16A17, size: 0x8, addend: 0x0, symName: _g_refcount_lock, symObjAddr: 0x202180, symBinAddr: 0x1FFB10, symSize: 0x0 }
  - { offset: 0xA16A76, size: 0x8, addend: 0x0, symName: _CRYPTO_refcount_inc, symObjAddr: 0x103E68, symBinAddr: 0xFE110, symSize: 0x54 }
  - { offset: 0xA16AFC, size: 0x8, addend: 0x0, symName: _CRYPTO_refcount_dec_and_test_zero, symObjAddr: 0x103EBC, symBinAddr: 0xFE164, symSize: 0x68 }
  - { offset: 0xA16B07, size: 0x8, addend: 0x0, symName: _CRYPTO_refcount_dec_and_test_zero, symObjAddr: 0x103EBC, symBinAddr: 0xFE164, symSize: 0x68 }
  - { offset: 0xA16BA1, size: 0x8, addend: 0x0, symName: _marshal_integer.5397, symObjAddr: 0x103F24, symBinAddr: 0xFE1CC, symSize: 0x34 }
  - { offset: 0xA42782, size: 0x8, addend: 0x0, symName: _policy_cache_set_mapping, symObjAddr: 0x10DDC0, symBinAddr: 0x108008, symSize: 0x224 }
  - { offset: 0xA437AB, size: 0x8, addend: 0x0, symName: _policy_cache_set_mapping, symObjAddr: 0x10DDC0, symBinAddr: 0x108008, symSize: 0x224 }
  - { offset: 0x303F67, size: 0x8, addend: 0x0, symName: '-[IVSDeviceChangeMonitor initWithDeviceQueue:]', symObjAddr: 0x3E020, symBinAddr: 0x3F1C8, symSize: 0x108 }
  - { offset: 0x304F34, size: 0x8, addend: 0x0, symName: '-[IVSDeviceChangeMonitor initWithDeviceQueue:]', symObjAddr: 0x3E020, symBinAddr: 0x3F1C8, symSize: 0x108 }
  - { offset: 0x305035, size: 0x8, addend: 0x0, symName: '-[IVSDeviceChangeMonitor dealloc]', symObjAddr: 0x3E128, symBinAddr: 0x3F2D0, symSize: 0xA4 }
  - { offset: 0x305147, size: 0x8, addend: 0x0, symName: '-[IVSDeviceChangeMonitor getCurrentCameras]', symObjAddr: 0x3E1CC, symBinAddr: 0x3F374, symSize: 0x4 }
  - { offset: 0x30517C, size: 0x8, addend: 0x0, symName: '-[IVSDeviceChangeMonitor getCurrentMicrophones]', symObjAddr: 0x3E1D0, symBinAddr: 0x3F378, symSize: 0x4 }
  - { offset: 0x3051B1, size: 0x8, addend: 0x0, symName: '-[IVSDeviceChangeMonitor addDelegate:]', symObjAddr: 0x3E1D4, symBinAddr: 0x3F37C, symSize: 0x6C }
  - { offset: 0x3052C6, size: 0x8, addend: 0x0, symName: '-[IVSDeviceChangeMonitor removeDelegate:]', symObjAddr: 0x3E240, symBinAddr: 0x3F3E8, symSize: 0x6C }
  - { offset: 0x3053DB, size: 0x8, addend: 0x0, symName: '-[IVSDeviceChangeMonitor setupNotificationListeners]', symObjAddr: 0x3E2AC, symBinAddr: 0x3F454, symSize: 0x164 }
  - { offset: 0x30545E, size: 0x8, addend: 0x0, symName: '-[IVSDeviceChangeMonitor didBecomeActive:]', symObjAddr: 0x3E410, symBinAddr: 0x3F5B8, symSize: 0x4 }
  - { offset: 0x30549B, size: 0x8, addend: 0x0, symName: '-[IVSDeviceChangeMonitor deviceConnected:]', symObjAddr: 0x3E414, symBinAddr: 0x3F5BC, symSize: 0x4 }
  - { offset: 0x3054D8, size: 0x8, addend: 0x0, symName: '-[IVSDeviceChangeMonitor deviceDisconnected:]', symObjAddr: 0x3E418, symBinAddr: 0x3F5C0, symSize: 0x4 }
  - { offset: 0x305515, size: 0x8, addend: 0x0, symName: '-[IVSDeviceChangeMonitor pickableAudioRouteChanged:]', symObjAddr: 0x3E41C, symBinAddr: 0x3F5C4, symSize: 0x4 }
  - { offset: 0x305552, size: 0x8, addend: 0x0, symName: '-[IVSDeviceChangeMonitor checkForChangedDevices]', symObjAddr: 0x3E420, symBinAddr: 0x3F5C8, symSize: 0xC0 }
  - { offset: 0x305593, size: 0x8, addend: 0x0, symName: '-[IVSDeviceChangeMonitor listAvailableCamerasUsingInternalQueue:]', symObjAddr: 0x3E4E0, symBinAddr: 0x3F688, symSize: 0xF4 }
  - { offset: 0x30560C, size: 0x8, addend: 0x0, symName: '-[IVSDeviceChangeMonitor listAvailableMicrophones]', symObjAddr: 0x3E5D4, symBinAddr: 0x3F77C, symSize: 0xD8 }
  - { offset: 0x305665, size: 0x8, addend: 0x0, symName: '-[IVSDeviceChangeMonitor deviceQueue]', symObjAddr: 0x3E6AC, symBinAddr: 0x3F854, symSize: 0x8 }
  - { offset: 0x30569C, size: 0x8, addend: 0x0, symName: '-[IVSDeviceChangeMonitor setDeviceQueue:]', symObjAddr: 0x3E6B4, symBinAddr: 0x3F85C, symSize: 0xC }
  - { offset: 0x3056DD, size: 0x8, addend: 0x0, symName: '-[IVSDeviceChangeMonitor lastCameras]', symObjAddr: 0x3E6C0, symBinAddr: 0x3F868, symSize: 0xC }
  - { offset: 0x305714, size: 0x8, addend: 0x0, symName: '-[IVSDeviceChangeMonitor setLastCameras:]', symObjAddr: 0x3E6CC, symBinAddr: 0x3F874, symSize: 0x8 }
  - { offset: 0x305753, size: 0x8, addend: 0x0, symName: '-[IVSDeviceChangeMonitor lastMicrophones]', symObjAddr: 0x3E6D4, symBinAddr: 0x3F87C, symSize: 0xC }
  - { offset: 0x30578A, size: 0x8, addend: 0x0, symName: '-[IVSDeviceChangeMonitor setLastMicrophones:]', symObjAddr: 0x3E6E0, symBinAddr: 0x3F888, symSize: 0x8 }
  - { offset: 0x3057C9, size: 0x8, addend: 0x0, symName: '-[IVSDeviceChangeMonitor delegates]', symObjAddr: 0x3E6E8, symBinAddr: 0x3F890, symSize: 0x8 }
  - { offset: 0x305800, size: 0x8, addend: 0x0, symName: '-[IVSDeviceChangeMonitor setDelegates:]', symObjAddr: 0x3E6F0, symBinAddr: 0x3F898, symSize: 0xC }
  - { offset: 0x305841, size: 0x8, addend: 0x0, symName: '-[IVSDeviceChangeMonitor internalSyncQueue]', symObjAddr: 0x3E6FC, symBinAddr: 0x3F8A4, symSize: 0x8 }
  - { offset: 0x305878, size: 0x8, addend: 0x0, symName: '-[IVSDeviceChangeMonitor setInternalSyncQueue:]', symObjAddr: 0x3E704, symBinAddr: 0x3F8AC, symSize: 0xC }
  - { offset: 0x3058B9, size: 0x8, addend: 0x0, symName: '-[IVSDeviceChangeMonitor .cxx_destruct]', symObjAddr: 0x3E710, symBinAddr: 0x3F8B8, symSize: 0x54 }
  - { offset: 0x305920, size: 0x8, addend: 0x0, symName: '-[IVSDeviceChangeMonitor .cxx_construct]', symObjAddr: 0x3E764, symBinAddr: 0x3F90C, symSize: 0x8 }
  - { offset: 0x305958, size: 0x8, addend: 0x0, symName: '-[IVSDeviceChangeMonitor .cxx_construct]', symObjAddr: 0x3E764, symBinAddr: 0x3F90C, symSize: 0x8 }
  - { offset: 0x305977, size: 0x8, addend: 0x0, symName: '-[IVSDeviceChangeMonitor .cxx_construct]', symObjAddr: 0x3E764, symBinAddr: 0x3F90C, symSize: 0x8 }
  - { offset: 0x305995, size: 0x8, addend: 0x0, symName: ___Block_byref_object_copy_, symObjAddr: 0x3E76C, symBinAddr: 0x3F914, symSize: 0x10 }
  - { offset: 0x3059BA, size: 0x8, addend: 0x0, symName: ___Block_byref_object_dispose_, symObjAddr: 0x3E77C, symBinAddr: 0x3F924, symSize: 0x8 }
  - { offset: 0x3059D9, size: 0x8, addend: 0x0, symName: '___50-[IVSDeviceChangeMonitor listAvailableMicrophones]_block_invoke', symObjAddr: 0x3E784, symBinAddr: 0x3F92C, symSize: 0x2F0 }
  - { offset: 0x305A80, size: 0x8, addend: 0x0, symName: ___copy_helper_block_a8_32r, symObjAddr: 0x3EA74, symBinAddr: 0x3FC1C, symSize: 0x10 }
  - { offset: 0x305AA9, size: 0x8, addend: 0x0, symName: ___destroy_helper_block_a8_32r, symObjAddr: 0x3EA84, symBinAddr: 0x3FC2C, symSize: 0xC }
  - { offset: 0x305AC8, size: 0x8, addend: 0x0, symName: '___65-[IVSDeviceChangeMonitor listAvailableCamerasUsingInternalQueue:]_block_invoke', symObjAddr: 0x3EA90, symBinAddr: 0x3FC38, symSize: 0x204 }
  - { offset: 0x305B59, size: 0x8, addend: 0x0, symName: '___48-[IVSDeviceChangeMonitor checkForChangedDevices]_block_invoke', symObjAddr: 0x3EC94, symBinAddr: 0x3FE3C, symSize: 0x638 }
  - { offset: 0x305DA7, size: 0x8, addend: 0x0, symName: '___48-[IVSDeviceChangeMonitor checkForChangedDevices]_block_invoke_2', symObjAddr: 0x3F2CC, symBinAddr: 0x40474, symSize: 0x34 }
  - { offset: 0x305DF2, size: 0x8, addend: 0x0, symName: '___48-[IVSDeviceChangeMonitor checkForChangedDevices]_block_invoke.30', symObjAddr: 0x3F300, symBinAddr: 0x404A8, symSize: 0x34 }
  - { offset: 0xD28FA2, size: 0x8, addend: 0x0, symName: __ZN6twitch6Base64L8g_encmapE, symObjAddr: 0x19DE19, symBinAddr: 0x1B46E1, symSize: 0x0 }
  - { offset: 0xD28FBC, size: 0x8, addend: 0x0, symName: __ZN6twitch6Base64L8g_decmapE, symObjAddr: 0x19DE59, symBinAddr: 0x1B4721, symSize: 0x0 }
  - { offset: 0xBE633B, size: 0x8, addend: 0x0, symName: __ZN9resampler19SincResamplerStereoD1Ev, symObjAddr: 0x1558B4, symBinAddr: 0x14E1B4, symSize: 0x4 }
  - { offset: 0xBE71C5, size: 0x8, addend: 0x0, symName: __ZN9resampler19SincResamplerStereoD1Ev, symObjAddr: 0x1558B4, symBinAddr: 0x14E1B4, symSize: 0x4 }
  - { offset: 0xBE71E9, size: 0x8, addend: 0x0, symName: __ZN9resampler19SincResamplerStereoD1Ev, symObjAddr: 0x1558B4, symBinAddr: 0x14E1B4, symSize: 0x4 }
  - { offset: 0xBE7207, size: 0x8, addend: 0x0, symName: __ZN9resampler19SincResamplerStereoD1Ev, symObjAddr: 0x1558B4, symBinAddr: 0x14E1B4, symSize: 0x4 }
  - { offset: 0xBE722E, size: 0x8, addend: 0x0, symName: __ZN9resampler19SincResamplerStereoD0Ev, symObjAddr: 0x1558B8, symBinAddr: 0x14E1B8, symSize: 0x14 }
  - { offset: 0xBE72C6, size: 0x8, addend: 0x0, symName: __ZN9resampler19SincResamplerStereo10writeFrameEPKf, symObjAddr: 0x1558CC, symBinAddr: 0x14E1CC, symSize: 0x4C }
  - { offset: 0xBE73B0, size: 0x8, addend: 0x0, symName: __ZN9resampler19SincResamplerStereo9readFrameEPf, symObjAddr: 0x155918, symBinAddr: 0x14E218, symSize: 0x160 }
  - { offset: 0xA49D1A, size: 0x8, addend: 0x0, symName: _i2v_GENERAL_NAMES, symObjAddr: 0x10E980, symBinAddr: 0x108BC8, symSize: 0x7C }
  - { offset: 0xA49D33, size: 0x8, addend: 0x0, symName: _v3_alt, symObjAddr: 0x1E3DE0, symBinAddr: 0x1EAD98, symSize: 0x0 }
  - { offset: 0xA4B603, size: 0x8, addend: 0x0, symName: _i2v_GENERAL_NAMES, symObjAddr: 0x10E980, symBinAddr: 0x108BC8, symSize: 0x7C }
  - { offset: 0xA4B729, size: 0x8, addend: 0x0, symName: _i2v_GENERAL_NAME, symObjAddr: 0x10F73C, symBinAddr: 0x109984, symSize: 0x4D4 }
  - { offset: 0xA4BC76, size: 0x8, addend: 0x0, symName: _v2i_subject_alt, symObjAddr: 0x10E9FC, symBinAddr: 0x108C44, symSize: 0x1E4 }
  - { offset: 0xA4C0CE, size: 0x8, addend: 0x0, symName: _v2i_GENERAL_NAME_ex, symObjAddr: 0x10EEAC, symBinAddr: 0x1090F4, symSize: 0x618 }
  - { offset: 0xA4CA46, size: 0x8, addend: 0x0, symName: _copy_email, symObjAddr: 0x10F4C4, symBinAddr: 0x10970C, symSize: 0x278 }
  - { offset: 0xA4D07A, size: 0x8, addend: 0x0, symName: _v2i_issuer_alt, symObjAddr: 0x10EBE0, symBinAddr: 0x108E28, symSize: 0x2CC }
  - { offset: 0xA4D9CD, size: 0x8, addend: 0x0, symName: _GENERAL_NAME_print, symObjAddr: 0x10FC10, symBinAddr: 0x109E58, symSize: 0x1DC }
  - { offset: 0xC1E212, size: 0x8, addend: 0x0, symName: '__ZNSt3__110__function6__funcIZN6twitch4rtmp13NetConnectionC1ERKNS_10shared_ptrINS2_14SchedulerGuardEEERNS3_5Rtmp2EE3$_0NS_9allocatorISC_EEFvjNSA_11MessageTypeEjPKhmEED1Ev', symObjAddr: 0x15C63C, symBinAddr: 0x154C2C, symSize: 0x4 }
  - { offset: 0xC25DF5, size: 0x8, addend: 0x0, symName: __ZNSt3__112construct_atB8nn180100IN6twitch4rtmp19AMF0PropertyDecoderEJRA5_KcEPS3_EEPT_S9_DpOT0_, symObjAddr: 0x15DDC0, symBinAddr: 0x155FB4, symSize: 0x5C }
  - { offset: 0xC2C426, size: 0x8, addend: 0x0, symName: '__ZNSt3__110__function6__funcIZN6twitch4rtmp13NetConnectionC1ERKNS_10shared_ptrINS2_14SchedulerGuardEEERNS3_5Rtmp2EE3$_0NS_9allocatorISC_EEFvjNSA_11MessageTypeEjPKhmEED1Ev', symObjAddr: 0x15C63C, symBinAddr: 0x154C2C, symSize: 0x4 }
  - { offset: 0xC2C451, size: 0x8, addend: 0x0, symName: '__ZNSt3__110__function6__funcIZN6twitch4rtmp13NetConnectionC1ERKNS_10shared_ptrINS2_14SchedulerGuardEEERNS3_5Rtmp2EE3$_0NS_9allocatorISC_EEFvjNSA_11MessageTypeEjPKhmEED0Ev', symObjAddr: 0x15C640, symBinAddr: 0x154C30, symSize: 0x4 }
  - { offset: 0xC2C665, size: 0x8, addend: 0x0, symName: '__ZNKSt3__110__function6__funcIZN6twitch4rtmp13NetConnectionC1ERKNS_10shared_ptrINS2_14SchedulerGuardEEERNS3_5Rtmp2EE3$_0NS_9allocatorISC_EEFvjNSA_11MessageTypeEjPKhmEE7__cloneEv', symObjAddr: 0x15C644, symBinAddr: 0x154C34, symSize: 0x34 }
  - { offset: 0xC2C980, size: 0x8, addend: 0x0, symName: '__ZNKSt3__110__function6__funcIZN6twitch4rtmp13NetConnectionC1ERKNS_10shared_ptrINS2_14SchedulerGuardEEERNS3_5Rtmp2EE3$_0NS_9allocatorISC_EEFvjNSA_11MessageTypeEjPKhmEE7__cloneEPNS0_6__baseISI_EE', symObjAddr: 0x15C678, symBinAddr: 0x154C68, symSize: 0x14 }
  - { offset: 0xC2C9B9, size: 0x8, addend: 0x0, symName: '__ZNKSt3__110__function6__funcIZN6twitch4rtmp13NetConnectionC1ERKNS_10shared_ptrINS2_14SchedulerGuardEEERNS3_5Rtmp2EE3$_0NS_9allocatorISC_EEFvjNSA_11MessageTypeEjPKhmEE7__cloneEPNS0_6__baseISI_EE', symObjAddr: 0x15C678, symBinAddr: 0x154C68, symSize: 0x14 }
  - { offset: 0xC2C9EB, size: 0x8, addend: 0x0, symName: '__ZNKSt3__110__function6__funcIZN6twitch4rtmp13NetConnectionC1ERKNS_10shared_ptrINS2_14SchedulerGuardEEERNS3_5Rtmp2EE3$_0NS_9allocatorISC_EEFvjNSA_11MessageTypeEjPKhmEE7__cloneEPNS0_6__baseISI_EE', symObjAddr: 0x15C678, symBinAddr: 0x154C68, symSize: 0x14 }
  - { offset: 0xC2CA1D, size: 0x8, addend: 0x0, symName: '__ZNKSt3__110__function6__funcIZN6twitch4rtmp13NetConnectionC1ERKNS_10shared_ptrINS2_14SchedulerGuardEEERNS3_5Rtmp2EE3$_0NS_9allocatorISC_EEFvjNSA_11MessageTypeEjPKhmEE7__cloneEPNS0_6__baseISI_EE', symObjAddr: 0x15C678, symBinAddr: 0x154C68, symSize: 0x14 }
  - { offset: 0xC2CA33, size: 0x8, addend: 0x0, symName: '__ZNKSt3__110__function6__funcIZN6twitch4rtmp13NetConnectionC1ERKNS_10shared_ptrINS2_14SchedulerGuardEEERNS3_5Rtmp2EE3$_0NS_9allocatorISC_EEFvjNSA_11MessageTypeEjPKhmEE7__cloneEPNS0_6__baseISI_EE', symObjAddr: 0x15C678, symBinAddr: 0x154C68, symSize: 0x14 }
  - { offset: 0xC2CA48, size: 0x8, addend: 0x0, symName: '__ZNKSt3__110__function6__funcIZN6twitch4rtmp13NetConnectionC1ERKNS_10shared_ptrINS2_14SchedulerGuardEEERNS3_5Rtmp2EE3$_0NS_9allocatorISC_EEFvjNSA_11MessageTypeEjPKhmEE7__cloneEPNS0_6__baseISI_EE', symObjAddr: 0x15C678, symBinAddr: 0x154C68, symSize: 0x14 }
  - { offset: 0xC2CA5D, size: 0x8, addend: 0x0, symName: '__ZNKSt3__110__function6__funcIZN6twitch4rtmp13NetConnectionC1ERKNS_10shared_ptrINS2_14SchedulerGuardEEERNS3_5Rtmp2EE3$_0NS_9allocatorISC_EEFvjNSA_11MessageTypeEjPKhmEE7__cloneEPNS0_6__baseISI_EE', symObjAddr: 0x15C678, symBinAddr: 0x154C68, symSize: 0x14 }
  - { offset: 0xC2CA72, size: 0x8, addend: 0x0, symName: '__ZNKSt3__110__function6__funcIZN6twitch4rtmp13NetConnectionC1ERKNS_10shared_ptrINS2_14SchedulerGuardEEERNS3_5Rtmp2EE3$_0NS_9allocatorISC_EEFvjNSA_11MessageTypeEjPKhmEE7__cloneEPNS0_6__baseISI_EE', symObjAddr: 0x15C678, symBinAddr: 0x154C68, symSize: 0x14 }
  - { offset: 0xC2CA8A, size: 0x8, addend: 0x0, symName: '__ZNSt3__110__function6__funcIZN6twitch4rtmp13NetConnectionC1ERKNS_10shared_ptrINS2_14SchedulerGuardEEERNS3_5Rtmp2EE3$_0NS_9allocatorISC_EEFvjNSA_11MessageTypeEjPKhmEE7destroyEv', symObjAddr: 0x15C68C, symBinAddr: 0x154C7C, symSize: 0x4 }
  - { offset: 0xC2CADD, size: 0x8, addend: 0x0, symName: '__ZNSt3__110__function6__funcIZN6twitch4rtmp13NetConnectionC1ERKNS_10shared_ptrINS2_14SchedulerGuardEEERNS3_5Rtmp2EE3$_0NS_9allocatorISC_EEFvjNSA_11MessageTypeEjPKhmEE18destroy_deallocateEv', symObjAddr: 0x15C690, symBinAddr: 0x154C80, symSize: 0x4 }
  - { offset: 0xC2CB14, size: 0x8, addend: 0x0, symName: '__ZNSt3__110__function6__funcIZN6twitch4rtmp13NetConnectionC1ERKNS_10shared_ptrINS2_14SchedulerGuardEEERNS3_5Rtmp2EE3$_0NS_9allocatorISC_EEFvjNSA_11MessageTypeEjPKhmEE18destroy_deallocateEv', symObjAddr: 0x15C690, symBinAddr: 0x154C80, symSize: 0x4 }
  - { offset: 0xC2CB39, size: 0x8, addend: 0x0, symName: '__ZNSt3__110__function6__funcIZN6twitch4rtmp13NetConnectionC1ERKNS_10shared_ptrINS2_14SchedulerGuardEEERNS3_5Rtmp2EE3$_0NS_9allocatorISC_EEFvjNSA_11MessageTypeEjPKhmEE18destroy_deallocateEv', symObjAddr: 0x15C690, symBinAddr: 0x154C80, symSize: 0x4 }
  - { offset: 0xC2CB68, size: 0x8, addend: 0x0, symName: '__ZNSt3__110__function6__funcIZN6twitch4rtmp13NetConnectionC1ERKNS_10shared_ptrINS2_14SchedulerGuardEEERNS3_5Rtmp2EE3$_0NS_9allocatorISC_EEFvjNSA_11MessageTypeEjPKhmEE18destroy_deallocateEv', symObjAddr: 0x15C690, symBinAddr: 0x154C80, symSize: 0x4 }
  - { offset: 0xC2CB91, size: 0x8, addend: 0x0, symName: '__ZNSt3__110__function6__funcIZN6twitch4rtmp13NetConnectionC1ERKNS_10shared_ptrINS2_14SchedulerGuardEEERNS3_5Rtmp2EE3$_0NS_9allocatorISC_EEFvjNSA_11MessageTypeEjPKhmEE18destroy_deallocateEv', symObjAddr: 0x15C690, symBinAddr: 0x154C80, symSize: 0x4 }
  - { offset: 0xC2D70A, size: 0x8, addend: 0x0, symName: '__ZNSt3__110__function6__funcIZN6twitch4rtmp13NetConnectionC1ERKNS_10shared_ptrINS2_14SchedulerGuardEEERNS3_5Rtmp2EE3$_0NS_9allocatorISC_EEFvjNSA_11MessageTypeEjPKhmEEclEOjOSF_SK_OSH_Om', symObjAddr: 0x15C694, symBinAddr: 0x154C84, symSize: 0xE70 }
  - { offset: 0xC327AB, size: 0x8, addend: 0x0, symName: __ZNKSt3__18functionIFvRKN6twitch4rtmp13NetConnectionEjRKNS1_5ErrorEbEEclES5_jS8_b, symObjAddr: 0x15D504, symBinAddr: 0x155AF4, symSize: 0x3C }
  - { offset: 0xC328B9, size: 0x8, addend: 0x0, symName: __ZNKSt3__18functionIFvRKN6twitch4rtmp13NetConnectionEjRKNS1_5ErrorEbEEclES5_jS8_b, symObjAddr: 0x15D504, symBinAddr: 0x155AF4, symSize: 0x3C }
  - { offset: 0xC329C9, size: 0x8, addend: 0x0, symName: __ZNSt3__120__shared_ptr_emplaceIN6twitch4rtmp17AMF0NumberDecoderENS_9allocatorIS3_EEED1Ev, symObjAddr: 0x15D5F0, symBinAddr: 0x155B30, symSize: 0x10 }
  - { offset: 0xC329ED, size: 0x8, addend: 0x0, symName: __ZNSt3__120__shared_ptr_emplaceIN6twitch4rtmp17AMF0NumberDecoderENS_9allocatorIS3_EEED1Ev, symObjAddr: 0x15D5F0, symBinAddr: 0x155B30, symSize: 0x10 }
  - { offset: 0xC32A24, size: 0x8, addend: 0x0, symName: __ZNSt3__120__shared_ptr_emplaceIN6twitch4rtmp17AMF0NumberDecoderENS_9allocatorIS3_EEED0Ev, symObjAddr: 0x15D600, symBinAddr: 0x155B40, symSize: 0x20 }
  - { offset: 0xC32AF3, size: 0x8, addend: 0x0, symName: __ZNSt3__120__shared_ptr_emplaceIN6twitch4rtmp17AMF0NumberDecoderENS_9allocatorIS3_EEE16__on_zero_sharedEv, symObjAddr: 0x15D620, symBinAddr: 0x155B60, symSize: 0xC }
  - { offset: 0xC32B1D, size: 0x8, addend: 0x0, symName: __ZNSt3__120__shared_ptr_emplaceIN6twitch4rtmp17AMF0NumberDecoderENS_9allocatorIS3_EEE16__on_zero_sharedEv, symObjAddr: 0x15D620, symBinAddr: 0x155B60, symSize: 0xC }
  - { offset: 0xC32B3D, size: 0x8, addend: 0x0, symName: __ZNSt3__120__shared_ptr_emplaceIN6twitch4rtmp17AMF0NumberDecoderENS_9allocatorIS3_EEE16__on_zero_sharedEv, symObjAddr: 0x15D620, symBinAddr: 0x155B60, symSize: 0xC }
  - { offset: 0xC32B5D, size: 0x8, addend: 0x0, symName: __ZNSt3__120__shared_ptr_emplaceIN6twitch4rtmp17AMF0NumberDecoderENS_9allocatorIS3_EEE16__on_zero_sharedEv, symObjAddr: 0x15D620, symBinAddr: 0x155B60, symSize: 0xC }
  - { offset: 0xC32BE6, size: 0x8, addend: 0x0, symName: __ZNSt3__120__shared_ptr_emplaceIN6twitch4rtmp17AMF0NumberDecoderENS_9allocatorIS3_EEE21__on_zero_shared_weakEv, symObjAddr: 0x15D62C, symBinAddr: 0x155B6C, symSize: 0x4 }
  - { offset: 0xC32C1B, size: 0x8, addend: 0x0, symName: __ZNSt3__120__shared_ptr_emplaceIN6twitch4rtmp17AMF0NumberDecoderENS_9allocatorIS3_EEE21__on_zero_shared_weakEv, symObjAddr: 0x15D62C, symBinAddr: 0x155B6C, symSize: 0x4 }
  - { offset: 0xC32C40, size: 0x8, addend: 0x0, symName: __ZNSt3__120__shared_ptr_emplaceIN6twitch4rtmp17AMF0NumberDecoderENS_9allocatorIS3_EEE21__on_zero_shared_weakEv, symObjAddr: 0x15D62C, symBinAddr: 0x155B6C, symSize: 0x4 }
  - { offset: 0xC32C65, size: 0x8, addend: 0x0, symName: __ZNSt3__120__shared_ptr_emplaceIN6twitch4rtmp17AMF0NumberDecoderENS_9allocatorIS3_EEE21__on_zero_shared_weakEv, symObjAddr: 0x15D62C, symBinAddr: 0x155B6C, symSize: 0x4 }
  - { offset: 0xC32C95, size: 0x8, addend: 0x0, symName: __ZNSt3__120__shared_ptr_emplaceIN6twitch4rtmp17AMF0NumberDecoderENS_9allocatorIS3_EEE21__on_zero_shared_weakEv, symObjAddr: 0x15D62C, symBinAddr: 0x155B6C, symSize: 0x4 }
  - { offset: 0xC32CBF, size: 0x8, addend: 0x0, symName: __ZNSt3__120__shared_ptr_emplaceIN6twitch4rtmp17AMF0NumberDecoderENS_9allocatorIS3_EEE21__on_zero_shared_weakEv, symObjAddr: 0x15D62C, symBinAddr: 0x155B6C, symSize: 0x4 }
  - { offset: 0xC32D08, size: 0x8, addend: 0x0, symName: __ZNSt3__120__shared_ptr_emplaceIN6twitch4rtmp17AMF0StringDecoderENS_9allocatorIS3_EEED1Ev, symObjAddr: 0x15D630, symBinAddr: 0x155B70, symSize: 0x10 }
  - { offset: 0xC32D2C, size: 0x8, addend: 0x0, symName: __ZNSt3__120__shared_ptr_emplaceIN6twitch4rtmp17AMF0StringDecoderENS_9allocatorIS3_EEED1Ev, symObjAddr: 0x15D630, symBinAddr: 0x155B70, symSize: 0x10 }
  - { offset: 0xC32D63, size: 0x8, addend: 0x0, symName: __ZNSt3__120__shared_ptr_emplaceIN6twitch4rtmp17AMF0StringDecoderENS_9allocatorIS3_EEED0Ev, symObjAddr: 0x15D640, symBinAddr: 0x155B80, symSize: 0x20 }
  - { offset: 0xC32E32, size: 0x8, addend: 0x0, symName: __ZNSt3__120__shared_ptr_emplaceIN6twitch4rtmp17AMF0StringDecoderENS_9allocatorIS3_EEE16__on_zero_sharedEv, symObjAddr: 0x15D660, symBinAddr: 0x155BA0, symSize: 0xC }
  - { offset: 0xC32E5C, size: 0x8, addend: 0x0, symName: __ZNSt3__120__shared_ptr_emplaceIN6twitch4rtmp17AMF0StringDecoderENS_9allocatorIS3_EEE16__on_zero_sharedEv, symObjAddr: 0x15D660, symBinAddr: 0x155BA0, symSize: 0xC }
  - { offset: 0xC32E7C, size: 0x8, addend: 0x0, symName: __ZNSt3__120__shared_ptr_emplaceIN6twitch4rtmp17AMF0StringDecoderENS_9allocatorIS3_EEE16__on_zero_sharedEv, symObjAddr: 0x15D660, symBinAddr: 0x155BA0, symSize: 0xC }
  - { offset: 0xC32E9C, size: 0x8, addend: 0x0, symName: __ZNSt3__120__shared_ptr_emplaceIN6twitch4rtmp17AMF0StringDecoderENS_9allocatorIS3_EEE16__on_zero_sharedEv, symObjAddr: 0x15D660, symBinAddr: 0x155BA0, symSize: 0xC }
  - { offset: 0xC32F25, size: 0x8, addend: 0x0, symName: __ZNSt3__120__shared_ptr_emplaceIN6twitch4rtmp17AMF0StringDecoderENS_9allocatorIS3_EEE21__on_zero_shared_weakEv, symObjAddr: 0x15D66C, symBinAddr: 0x155BAC, symSize: 0x4 }
  - { offset: 0xC32F5A, size: 0x8, addend: 0x0, symName: __ZNSt3__120__shared_ptr_emplaceIN6twitch4rtmp17AMF0StringDecoderENS_9allocatorIS3_EEE21__on_zero_shared_weakEv, symObjAddr: 0x15D66C, symBinAddr: 0x155BAC, symSize: 0x4 }
  - { offset: 0xC32F7F, size: 0x8, addend: 0x0, symName: __ZNSt3__120__shared_ptr_emplaceIN6twitch4rtmp17AMF0StringDecoderENS_9allocatorIS3_EEE21__on_zero_shared_weakEv, symObjAddr: 0x15D66C, symBinAddr: 0x155BAC, symSize: 0x4 }
  - { offset: 0xC32FA4, size: 0x8, addend: 0x0, symName: __ZNSt3__120__shared_ptr_emplaceIN6twitch4rtmp17AMF0StringDecoderENS_9allocatorIS3_EEE21__on_zero_shared_weakEv, symObjAddr: 0x15D66C, symBinAddr: 0x155BAC, symSize: 0x4 }
  - { offset: 0xC32FD4, size: 0x8, addend: 0x0, symName: __ZNSt3__120__shared_ptr_emplaceIN6twitch4rtmp17AMF0StringDecoderENS_9allocatorIS3_EEE21__on_zero_shared_weakEv, symObjAddr: 0x15D66C, symBinAddr: 0x155BAC, symSize: 0x4 }
  - { offset: 0xC32FFE, size: 0x8, addend: 0x0, symName: __ZNSt3__120__shared_ptr_emplaceIN6twitch4rtmp17AMF0StringDecoderENS_9allocatorIS3_EEE21__on_zero_shared_weakEv, symObjAddr: 0x15D66C, symBinAddr: 0x155BAC, symSize: 0x4 }
  - { offset: 0xC332D9, size: 0x8, addend: 0x0, symName: '__ZNSt3__110__function6__funcIZN6twitch4rtmp13NetConnection7connectERKNS_12basic_stringIcNS_11char_traitsIcEENS_9allocatorIcEEEESC_SC_RKNS_8functionIFvNS4_9NetStatusEEEEE3$_0NS8_ISJ_EEFvjPKhmEED1Ev', symObjAddr: 0x15D9BC, symBinAddr: 0x155BB0, symSize: 0x5C }
  - { offset: 0xC334A5, size: 0x8, addend: 0x0, symName: '__ZNSt3__110__function6__funcIZN6twitch4rtmp13NetConnection7connectERKNS_12basic_stringIcNS_11char_traitsIcEENS_9allocatorIcEEEESC_SC_RKNS_8functionIFvNS4_9NetStatusEEEEE3$_0NS8_ISJ_EEFvjPKhmEED0Ev', symObjAddr: 0x15DA18, symBinAddr: 0x155C0C, symSize: 0x5C }
  - { offset: 0xC33880, size: 0x8, addend: 0x0, symName: '__ZNKSt3__110__function6__funcIZN6twitch4rtmp13NetConnection7connectERKNS_12basic_stringIcNS_11char_traitsIcEENS_9allocatorIcEEEESC_SC_RKNS_8functionIFvNS4_9NetStatusEEEEE3$_0NS8_ISJ_EEFvjPKhmEE7__cloneEv', symObjAddr: 0x15DA74, symBinAddr: 0x155C68, symSize: 0x44 }
  - { offset: 0xC33C6B, size: 0x8, addend: 0x0, symName: '__ZNKSt3__110__function6__funcIZN6twitch4rtmp13NetConnection7connectERKNS_12basic_stringIcNS_11char_traitsIcEENS_9allocatorIcEEEESC_SC_RKNS_8functionIFvNS4_9NetStatusEEEEE3$_0NS8_ISJ_EEFvjPKhmEE7__cloneEPNS0_6__baseISN_EE', symObjAddr: 0x15DAB8, symBinAddr: 0x155CAC, symSize: 0x20 }
  - { offset: 0xC33CA8, size: 0x8, addend: 0x0, symName: '__ZNKSt3__110__function6__funcIZN6twitch4rtmp13NetConnection7connectERKNS_12basic_stringIcNS_11char_traitsIcEENS_9allocatorIcEEEESC_SC_RKNS_8functionIFvNS4_9NetStatusEEEEE3$_0NS8_ISJ_EEFvjPKhmEE7__cloneEPNS0_6__baseISN_EE', symObjAddr: 0x15DAB8, symBinAddr: 0x155CAC, symSize: 0x20 }
  - { offset: 0xC33CDC, size: 0x8, addend: 0x0, symName: '__ZNKSt3__110__function6__funcIZN6twitch4rtmp13NetConnection7connectERKNS_12basic_stringIcNS_11char_traitsIcEENS_9allocatorIcEEEESC_SC_RKNS_8functionIFvNS4_9NetStatusEEEEE3$_0NS8_ISJ_EEFvjPKhmEE7__cloneEPNS0_6__baseISN_EE', symObjAddr: 0x15DAB8, symBinAddr: 0x155CAC, symSize: 0x20 }
  - { offset: 0xC33EBE, size: 0x8, addend: 0x0, symName: '__ZNSt3__110__function6__funcIZN6twitch4rtmp13NetConnection7connectERKNS_12basic_stringIcNS_11char_traitsIcEENS_9allocatorIcEEEESC_SC_RKNS_8functionIFvNS4_9NetStatusEEEEE3$_0NS8_ISJ_EEFvjPKhmEE7destroyEv', symObjAddr: 0x15DAD8, symBinAddr: 0x155CCC, symSize: 0x34 }
  - { offset: 0xC33EEA, size: 0x8, addend: 0x0, symName: '__ZNSt3__110__function6__funcIZN6twitch4rtmp13NetConnection7connectERKNS_12basic_stringIcNS_11char_traitsIcEENS_9allocatorIcEEEESC_SC_RKNS_8functionIFvNS4_9NetStatusEEEEE3$_0NS8_ISJ_EEFvjPKhmEE7destroyEv', symObjAddr: 0x15DAD8, symBinAddr: 0x155CCC, symSize: 0x34 }
  - { offset: 0xC33F0A, size: 0x8, addend: 0x0, symName: '__ZNSt3__110__function6__funcIZN6twitch4rtmp13NetConnection7connectERKNS_12basic_stringIcNS_11char_traitsIcEENS_9allocatorIcEEEESC_SC_RKNS_8functionIFvNS4_9NetStatusEEEEE3$_0NS8_ISJ_EEFvjPKhmEE7destroyEv', symObjAddr: 0x15DAD8, symBinAddr: 0x155CCC, symSize: 0x34 }
  - { offset: 0xC33F29, size: 0x8, addend: 0x0, symName: '__ZNSt3__110__function6__funcIZN6twitch4rtmp13NetConnection7connectERKNS_12basic_stringIcNS_11char_traitsIcEENS_9allocatorIcEEEESC_SC_RKNS_8functionIFvNS4_9NetStatusEEEEE3$_0NS8_ISJ_EEFvjPKhmEE7destroyEv', symObjAddr: 0x15DAD8, symBinAddr: 0x155CCC, symSize: 0x34 }
  - { offset: 0xC33F48, size: 0x8, addend: 0x0, symName: '__ZNSt3__110__function6__funcIZN6twitch4rtmp13NetConnection7connectERKNS_12basic_stringIcNS_11char_traitsIcEENS_9allocatorIcEEEESC_SC_RKNS_8functionIFvNS4_9NetStatusEEEEE3$_0NS8_ISJ_EEFvjPKhmEE7destroyEv', symObjAddr: 0x15DAD8, symBinAddr: 0x155CCC, symSize: 0x34 }
  - { offset: 0xC33F67, size: 0x8, addend: 0x0, symName: '__ZNSt3__110__function6__funcIZN6twitch4rtmp13NetConnection7connectERKNS_12basic_stringIcNS_11char_traitsIcEENS_9allocatorIcEEEESC_SC_RKNS_8functionIFvNS4_9NetStatusEEEEE3$_0NS8_ISJ_EEFvjPKhmEE7destroyEv', symObjAddr: 0x15DAD8, symBinAddr: 0x155CCC, symSize: 0x34 }
  - { offset: 0xC33F86, size: 0x8, addend: 0x0, symName: '__ZNSt3__110__function6__funcIZN6twitch4rtmp13NetConnection7connectERKNS_12basic_stringIcNS_11char_traitsIcEENS_9allocatorIcEEEESC_SC_RKNS_8functionIFvNS4_9NetStatusEEEEE3$_0NS8_ISJ_EEFvjPKhmEE7destroyEv', symObjAddr: 0x15DAD8, symBinAddr: 0x155CCC, symSize: 0x34 }
  - { offset: 0xC34065, size: 0x8, addend: 0x0, symName: '__ZNSt3__110__function6__funcIZN6twitch4rtmp13NetConnection7connectERKNS_12basic_stringIcNS_11char_traitsIcEENS_9allocatorIcEEEESC_SC_RKNS_8functionIFvNS4_9NetStatusEEEEE3$_0NS8_ISJ_EEFvjPKhmEE18destroy_deallocateEv', symObjAddr: 0x15DB0C, symBinAddr: 0x155D00, symSize: 0x50 }
  - { offset: 0xC34B67, size: 0x8, addend: 0x0, symName: '__ZNSt3__110__function6__funcIZN6twitch4rtmp13NetConnection7connectERKNS_12basic_stringIcNS_11char_traitsIcEENS_9allocatorIcEEEESC_SC_RKNS_8functionIFvNS4_9NetStatusEEEEE3$_0NS8_ISJ_EEFvjPKhmEEclEOjOSM_Om', symObjAddr: 0x15DB5C, symBinAddr: 0x155D50, symSize: 0x264 }
  - { offset: 0xC358EC, size: 0x8, addend: 0x0, symName: __ZNSt3__112construct_atB8nn180100IN6twitch4rtmp19AMF0PropertyDecoderEJRA5_KcEPS3_EEPT_S9_DpOT0_, symObjAddr: 0x15DDC0, symBinAddr: 0x155FB4, symSize: 0x5C }
  - { offset: 0xC35913, size: 0x8, addend: 0x0, symName: __ZNSt3__120__shared_ptr_emplaceIN6twitch4rtmp19AMF0PropertyDecoderENS_9allocatorIS3_EEED1Ev, symObjAddr: 0x15DE1C, symBinAddr: 0x156010, symSize: 0x10 }
  - { offset: 0xC35937, size: 0x8, addend: 0x0, symName: __ZNSt3__120__shared_ptr_emplaceIN6twitch4rtmp19AMF0PropertyDecoderENS_9allocatorIS3_EEED1Ev, symObjAddr: 0x15DE1C, symBinAddr: 0x156010, symSize: 0x10 }
  - { offset: 0xC3596E, size: 0x8, addend: 0x0, symName: __ZNSt3__120__shared_ptr_emplaceIN6twitch4rtmp19AMF0PropertyDecoderENS_9allocatorIS3_EEED0Ev, symObjAddr: 0x15DE2C, symBinAddr: 0x156020, symSize: 0x20 }
  - { offset: 0xC35A3D, size: 0x8, addend: 0x0, symName: __ZNSt3__120__shared_ptr_emplaceIN6twitch4rtmp19AMF0PropertyDecoderENS_9allocatorIS3_EEE16__on_zero_sharedEv, symObjAddr: 0x15DE4C, symBinAddr: 0x156040, symSize: 0xC }
  - { offset: 0xC35A67, size: 0x8, addend: 0x0, symName: __ZNSt3__120__shared_ptr_emplaceIN6twitch4rtmp19AMF0PropertyDecoderENS_9allocatorIS3_EEE16__on_zero_sharedEv, symObjAddr: 0x15DE4C, symBinAddr: 0x156040, symSize: 0xC }
  - { offset: 0xC35A87, size: 0x8, addend: 0x0, symName: __ZNSt3__120__shared_ptr_emplaceIN6twitch4rtmp19AMF0PropertyDecoderENS_9allocatorIS3_EEE16__on_zero_sharedEv, symObjAddr: 0x15DE4C, symBinAddr: 0x156040, symSize: 0xC }
  - { offset: 0xC35AA7, size: 0x8, addend: 0x0, symName: __ZNSt3__120__shared_ptr_emplaceIN6twitch4rtmp19AMF0PropertyDecoderENS_9allocatorIS3_EEE16__on_zero_sharedEv, symObjAddr: 0x15DE4C, symBinAddr: 0x156040, symSize: 0xC }
  - { offset: 0xC35B30, size: 0x8, addend: 0x0, symName: __ZNSt3__120__shared_ptr_emplaceIN6twitch4rtmp19AMF0PropertyDecoderENS_9allocatorIS3_EEE21__on_zero_shared_weakEv, symObjAddr: 0x15DE58, symBinAddr: 0x15604C, symSize: 0x4 }
  - { offset: 0xC35B65, size: 0x8, addend: 0x0, symName: __ZNSt3__120__shared_ptr_emplaceIN6twitch4rtmp19AMF0PropertyDecoderENS_9allocatorIS3_EEE21__on_zero_shared_weakEv, symObjAddr: 0x15DE58, symBinAddr: 0x15604C, symSize: 0x4 }
  - { offset: 0xC35B8A, size: 0x8, addend: 0x0, symName: __ZNSt3__120__shared_ptr_emplaceIN6twitch4rtmp19AMF0PropertyDecoderENS_9allocatorIS3_EEE21__on_zero_shared_weakEv, symObjAddr: 0x15DE58, symBinAddr: 0x15604C, symSize: 0x4 }
  - { offset: 0xC35BAF, size: 0x8, addend: 0x0, symName: __ZNSt3__120__shared_ptr_emplaceIN6twitch4rtmp19AMF0PropertyDecoderENS_9allocatorIS3_EEE21__on_zero_shared_weakEv, symObjAddr: 0x15DE58, symBinAddr: 0x15604C, symSize: 0x4 }
  - { offset: 0xC35BDF, size: 0x8, addend: 0x0, symName: __ZNSt3__120__shared_ptr_emplaceIN6twitch4rtmp19AMF0PropertyDecoderENS_9allocatorIS3_EEE21__on_zero_shared_weakEv, symObjAddr: 0x15DE58, symBinAddr: 0x15604C, symSize: 0x4 }
  - { offset: 0xC35C09, size: 0x8, addend: 0x0, symName: __ZNSt3__120__shared_ptr_emplaceIN6twitch4rtmp19AMF0PropertyDecoderENS_9allocatorIS3_EEE21__on_zero_shared_weakEv, symObjAddr: 0x15DE58, symBinAddr: 0x15604C, symSize: 0x4 }
  - { offset: 0xC35C52, size: 0x8, addend: 0x0, symName: __ZNSt3__120__shared_ptr_emplaceIN6twitch4rtmp7AMF0NopENS_9allocatorIS3_EEED1Ev, symObjAddr: 0x15DE5C, symBinAddr: 0x156050, symSize: 0x10 }
  - { offset: 0xC35C76, size: 0x8, addend: 0x0, symName: __ZNSt3__120__shared_ptr_emplaceIN6twitch4rtmp7AMF0NopENS_9allocatorIS3_EEED1Ev, symObjAddr: 0x15DE5C, symBinAddr: 0x156050, symSize: 0x10 }
  - { offset: 0xC35CAD, size: 0x8, addend: 0x0, symName: __ZNSt3__120__shared_ptr_emplaceIN6twitch4rtmp7AMF0NopENS_9allocatorIS3_EEED0Ev, symObjAddr: 0x15DE6C, symBinAddr: 0x156060, symSize: 0x20 }
  - { offset: 0xC35D7C, size: 0x8, addend: 0x0, symName: __ZNSt3__120__shared_ptr_emplaceIN6twitch4rtmp7AMF0NopENS_9allocatorIS3_EEE16__on_zero_sharedEv, symObjAddr: 0x15DE8C, symBinAddr: 0x156080, symSize: 0xC }
  - { offset: 0xC35DA6, size: 0x8, addend: 0x0, symName: __ZNSt3__120__shared_ptr_emplaceIN6twitch4rtmp7AMF0NopENS_9allocatorIS3_EEE16__on_zero_sharedEv, symObjAddr: 0x15DE8C, symBinAddr: 0x156080, symSize: 0xC }
  - { offset: 0xC35DC6, size: 0x8, addend: 0x0, symName: __ZNSt3__120__shared_ptr_emplaceIN6twitch4rtmp7AMF0NopENS_9allocatorIS3_EEE16__on_zero_sharedEv, symObjAddr: 0x15DE8C, symBinAddr: 0x156080, symSize: 0xC }
  - { offset: 0xC35DE6, size: 0x8, addend: 0x0, symName: __ZNSt3__120__shared_ptr_emplaceIN6twitch4rtmp7AMF0NopENS_9allocatorIS3_EEE16__on_zero_sharedEv, symObjAddr: 0x15DE8C, symBinAddr: 0x156080, symSize: 0xC }
  - { offset: 0xC35E6F, size: 0x8, addend: 0x0, symName: __ZNSt3__120__shared_ptr_emplaceIN6twitch4rtmp7AMF0NopENS_9allocatorIS3_EEE21__on_zero_shared_weakEv, symObjAddr: 0x15DE98, symBinAddr: 0x15608C, symSize: 0x4 }
  - { offset: 0xC35EA4, size: 0x8, addend: 0x0, symName: __ZNSt3__120__shared_ptr_emplaceIN6twitch4rtmp7AMF0NopENS_9allocatorIS3_EEE21__on_zero_shared_weakEv, symObjAddr: 0x15DE98, symBinAddr: 0x15608C, symSize: 0x4 }
  - { offset: 0xC35EC9, size: 0x8, addend: 0x0, symName: __ZNSt3__120__shared_ptr_emplaceIN6twitch4rtmp7AMF0NopENS_9allocatorIS3_EEE21__on_zero_shared_weakEv, symObjAddr: 0x15DE98, symBinAddr: 0x15608C, symSize: 0x4 }
  - { offset: 0xC35EEE, size: 0x8, addend: 0x0, symName: __ZNSt3__120__shared_ptr_emplaceIN6twitch4rtmp7AMF0NopENS_9allocatorIS3_EEE21__on_zero_shared_weakEv, symObjAddr: 0x15DE98, symBinAddr: 0x15608C, symSize: 0x4 }
  - { offset: 0xC35F1D, size: 0x8, addend: 0x0, symName: __ZNSt3__120__shared_ptr_emplaceIN6twitch4rtmp7AMF0NopENS_9allocatorIS3_EEE21__on_zero_shared_weakEv, symObjAddr: 0x15DE98, symBinAddr: 0x15608C, symSize: 0x4 }
  - { offset: 0xC35F46, size: 0x8, addend: 0x0, symName: __ZNSt3__120__shared_ptr_emplaceIN6twitch4rtmp7AMF0NopENS_9allocatorIS3_EEE21__on_zero_shared_weakEv, symObjAddr: 0x15DE98, symBinAddr: 0x15608C, symSize: 0x4 }
  - { offset: 0xC3604A, size: 0x8, addend: 0x0, symName: '__ZNSt3__110__function6__funcIZN6twitch4rtmp13NetConnection12createStreamERKNS_8functionIFvRKNS_10shared_ptrINS3_9NetStreamEEEEEEE3$_0NS_9allocatorISF_EEFvjPKhmEED1Ev', symObjAddr: 0x15E0F8, symBinAddr: 0x156090, symSize: 0x5C }
  - { offset: 0xC36216, size: 0x8, addend: 0x0, symName: '__ZNSt3__110__function6__funcIZN6twitch4rtmp13NetConnection12createStreamERKNS_8functionIFvRKNS_10shared_ptrINS3_9NetStreamEEEEEEE3$_0NS_9allocatorISF_EEFvjPKhmEED0Ev', symObjAddr: 0x15E154, symBinAddr: 0x1560EC, symSize: 0x5C }
  - { offset: 0xC365F1, size: 0x8, addend: 0x0, symName: '__ZNKSt3__110__function6__funcIZN6twitch4rtmp13NetConnection12createStreamERKNS_8functionIFvRKNS_10shared_ptrINS3_9NetStreamEEEEEEE3$_0NS_9allocatorISF_EEFvjPKhmEE7__cloneEv', symObjAddr: 0x15E1B0, symBinAddr: 0x156148, symSize: 0x44 }
  - { offset: 0xC369DC, size: 0x8, addend: 0x0, symName: '__ZNKSt3__110__function6__funcIZN6twitch4rtmp13NetConnection12createStreamERKNS_8functionIFvRKNS_10shared_ptrINS3_9NetStreamEEEEEEE3$_0NS_9allocatorISF_EEFvjPKhmEE7__cloneEPNS0_6__baseISK_EE', symObjAddr: 0x15E1F4, symBinAddr: 0x15618C, symSize: 0x20 }
  - { offset: 0xC36A19, size: 0x8, addend: 0x0, symName: '__ZNKSt3__110__function6__funcIZN6twitch4rtmp13NetConnection12createStreamERKNS_8functionIFvRKNS_10shared_ptrINS3_9NetStreamEEEEEEE3$_0NS_9allocatorISF_EEFvjPKhmEE7__cloneEPNS0_6__baseISK_EE', symObjAddr: 0x15E1F4, symBinAddr: 0x15618C, symSize: 0x20 }
  - { offset: 0xC36A4D, size: 0x8, addend: 0x0, symName: '__ZNKSt3__110__function6__funcIZN6twitch4rtmp13NetConnection12createStreamERKNS_8functionIFvRKNS_10shared_ptrINS3_9NetStreamEEEEEEE3$_0NS_9allocatorISF_EEFvjPKhmEE7__cloneEPNS0_6__baseISK_EE', symObjAddr: 0x15E1F4, symBinAddr: 0x15618C, symSize: 0x20 }
  - { offset: 0xC36C2F, size: 0x8, addend: 0x0, symName: '__ZNSt3__110__function6__funcIZN6twitch4rtmp13NetConnection12createStreamERKNS_8functionIFvRKNS_10shared_ptrINS3_9NetStreamEEEEEEE3$_0NS_9allocatorISF_EEFvjPKhmEE7destroyEv', symObjAddr: 0x15E214, symBinAddr: 0x1561AC, symSize: 0x34 }
  - { offset: 0xC36C5B, size: 0x8, addend: 0x0, symName: '__ZNSt3__110__function6__funcIZN6twitch4rtmp13NetConnection12createStreamERKNS_8functionIFvRKNS_10shared_ptrINS3_9NetStreamEEEEEEE3$_0NS_9allocatorISF_EEFvjPKhmEE7destroyEv', symObjAddr: 0x15E214, symBinAddr: 0x1561AC, symSize: 0x34 }
  - { offset: 0xC36C7B, size: 0x8, addend: 0x0, symName: '__ZNSt3__110__function6__funcIZN6twitch4rtmp13NetConnection12createStreamERKNS_8functionIFvRKNS_10shared_ptrINS3_9NetStreamEEEEEEE3$_0NS_9allocatorISF_EEFvjPKhmEE7destroyEv', symObjAddr: 0x15E214, symBinAddr: 0x1561AC, symSize: 0x34 }
  - { offset: 0xC36C9A, size: 0x8, addend: 0x0, symName: '__ZNSt3__110__function6__funcIZN6twitch4rtmp13NetConnection12createStreamERKNS_8functionIFvRKNS_10shared_ptrINS3_9NetStreamEEEEEEE3$_0NS_9allocatorISF_EEFvjPKhmEE7destroyEv', symObjAddr: 0x15E214, symBinAddr: 0x1561AC, symSize: 0x34 }
  - { offset: 0xC36CB9, size: 0x8, addend: 0x0, symName: '__ZNSt3__110__function6__funcIZN6twitch4rtmp13NetConnection12createStreamERKNS_8functionIFvRKNS_10shared_ptrINS3_9NetStreamEEEEEEE3$_0NS_9allocatorISF_EEFvjPKhmEE7destroyEv', symObjAddr: 0x15E214, symBinAddr: 0x1561AC, symSize: 0x34 }
  - { offset: 0xC36CD8, size: 0x8, addend: 0x0, symName: '__ZNSt3__110__function6__funcIZN6twitch4rtmp13NetConnection12createStreamERKNS_8functionIFvRKNS_10shared_ptrINS3_9NetStreamEEEEEEE3$_0NS_9allocatorISF_EEFvjPKhmEE7destroyEv', symObjAddr: 0x15E214, symBinAddr: 0x1561AC, symSize: 0x34 }
  - { offset: 0xC36CF7, size: 0x8, addend: 0x0, symName: '__ZNSt3__110__function6__funcIZN6twitch4rtmp13NetConnection12createStreamERKNS_8functionIFvRKNS_10shared_ptrINS3_9NetStreamEEEEEEE3$_0NS_9allocatorISF_EEFvjPKhmEE7destroyEv', symObjAddr: 0x15E214, symBinAddr: 0x1561AC, symSize: 0x34 }
  - { offset: 0xC36DD6, size: 0x8, addend: 0x0, symName: '__ZNSt3__110__function6__funcIZN6twitch4rtmp13NetConnection12createStreamERKNS_8functionIFvRKNS_10shared_ptrINS3_9NetStreamEEEEEEE3$_0NS_9allocatorISF_EEFvjPKhmEE18destroy_deallocateEv', symObjAddr: 0x15E248, symBinAddr: 0x1561E0, symSize: 0x50 }
  - { offset: 0xC379F9, size: 0x8, addend: 0x0, symName: '__ZNSt3__110__function6__funcIZN6twitch4rtmp13NetConnection12createStreamERKNS_8functionIFvRKNS_10shared_ptrINS3_9NetStreamEEEEEEE3$_0NS_9allocatorISF_EEFvjPKhmEEclEOjOSJ_Om', symObjAddr: 0x15E298, symBinAddr: 0x156230, symSize: 0x974 }
  - { offset: 0xC3AD9D, size: 0x8, addend: 0x0, symName: '__ZNSt3__110__function6__funcIZZN6twitch4rtmp13NetConnection12createStreamERKNS_8functionIFvRKNS_10shared_ptrINS3_9NetStreamEEEEEEENK3$_0clEjPKhmEUlRKS7_RKNS2_5ErrorEbE_NS_9allocatorISN_EEFvSJ_SM_bEED1Ev', symObjAddr: 0x15EC0C, symBinAddr: 0x156BA4, symSize: 0x4 }
  - { offset: 0xC3ADA8, size: 0x8, addend: 0x0, symName: '__ZNKSt3__110__function6__funcIZZN6twitch4rtmp13NetConnection12createStreamERKNS_8functionIFvRKNS_10shared_ptrINS3_9NetStreamEEEEEEENK3$_0clEjPKhmEUlRKS7_RKNS2_5ErrorEbE_NS_9allocatorISN_EEFvSJ_SM_bEE7__cloneEPNS0_6__baseISQ_EE', symObjAddr: 0x15EC48, symBinAddr: 0x156BE0, symSize: 0x14 }
  - { offset: 0xC3ADE1, size: 0x8, addend: 0x0, symName: '__ZNKSt3__110__function6__funcIZZN6twitch4rtmp13NetConnection12createStreamERKNS_8functionIFvRKNS_10shared_ptrINS3_9NetStreamEEEEEEENK3$_0clEjPKhmEUlRKS7_RKNS2_5ErrorEbE_NS_9allocatorISN_EEFvSJ_SM_bEE7__cloneEPNS0_6__baseISQ_EE', symObjAddr: 0x15EC48, symBinAddr: 0x156BE0, symSize: 0x14 }
  - { offset: 0xC3AE13, size: 0x8, addend: 0x0, symName: '__ZNKSt3__110__function6__funcIZZN6twitch4rtmp13NetConnection12createStreamERKNS_8functionIFvRKNS_10shared_ptrINS3_9NetStreamEEEEEEENK3$_0clEjPKhmEUlRKS7_RKNS2_5ErrorEbE_NS_9allocatorISN_EEFvSJ_SM_bEE7__cloneEPNS0_6__baseISQ_EE', symObjAddr: 0x15EC48, symBinAddr: 0x156BE0, symSize: 0x14 }
  - { offset: 0xC3AE45, size: 0x8, addend: 0x0, symName: '__ZNKSt3__110__function6__funcIZZN6twitch4rtmp13NetConnection12createStreamERKNS_8functionIFvRKNS_10shared_ptrINS3_9NetStreamEEEEEEENK3$_0clEjPKhmEUlRKS7_RKNS2_5ErrorEbE_NS_9allocatorISN_EEFvSJ_SM_bEE7__cloneEPNS0_6__baseISQ_EE', symObjAddr: 0x15EC48, symBinAddr: 0x156BE0, symSize: 0x14 }
  - { offset: 0xC3AE5B, size: 0x8, addend: 0x0, symName: '__ZNKSt3__110__function6__funcIZZN6twitch4rtmp13NetConnection12createStreamERKNS_8functionIFvRKNS_10shared_ptrINS3_9NetStreamEEEEEEENK3$_0clEjPKhmEUlRKS7_RKNS2_5ErrorEbE_NS_9allocatorISN_EEFvSJ_SM_bEE7__cloneEPNS0_6__baseISQ_EE', symObjAddr: 0x15EC48, symBinAddr: 0x156BE0, symSize: 0x14 }
  - { offset: 0xC3AE70, size: 0x8, addend: 0x0, symName: '__ZNKSt3__110__function6__funcIZZN6twitch4rtmp13NetConnection12createStreamERKNS_8functionIFvRKNS_10shared_ptrINS3_9NetStreamEEEEEEENK3$_0clEjPKhmEUlRKS7_RKNS2_5ErrorEbE_NS_9allocatorISN_EEFvSJ_SM_bEE7__cloneEPNS0_6__baseISQ_EE', symObjAddr: 0x15EC48, symBinAddr: 0x156BE0, symSize: 0x14 }
  - { offset: 0xC3AE85, size: 0x8, addend: 0x0, symName: '__ZNKSt3__110__function6__funcIZZN6twitch4rtmp13NetConnection12createStreamERKNS_8functionIFvRKNS_10shared_ptrINS3_9NetStreamEEEEEEENK3$_0clEjPKhmEUlRKS7_RKNS2_5ErrorEbE_NS_9allocatorISN_EEFvSJ_SM_bEE7__cloneEPNS0_6__baseISQ_EE', symObjAddr: 0x15EC48, symBinAddr: 0x156BE0, symSize: 0x14 }
  - { offset: 0xC3AE9A, size: 0x8, addend: 0x0, symName: '__ZNKSt3__110__function6__funcIZZN6twitch4rtmp13NetConnection12createStreamERKNS_8functionIFvRKNS_10shared_ptrINS3_9NetStreamEEEEEEENK3$_0clEjPKhmEUlRKS7_RKNS2_5ErrorEbE_NS_9allocatorISN_EEFvSJ_SM_bEE7__cloneEPNS0_6__baseISQ_EE', symObjAddr: 0x15EC48, symBinAddr: 0x156BE0, symSize: 0x14 }
  - { offset: 0xC3B069, size: 0x8, addend: 0x0, symName: '__ZNSt3__110__function6__funcIZZN6twitch4rtmp13NetConnection12createStreamERKNS_8functionIFvRKNS_10shared_ptrINS3_9NetStreamEEEEEEENK3$_0clEjPKhmEUlRKS7_RKNS2_5ErrorEbE_NS_9allocatorISN_EEFvSJ_SM_bEED1Ev', symObjAddr: 0x15EC0C, symBinAddr: 0x156BA4, symSize: 0x4 }
  - { offset: 0xC3B094, size: 0x8, addend: 0x0, symName: '__ZNSt3__110__function6__funcIZZN6twitch4rtmp13NetConnection12createStreamERKNS_8functionIFvRKNS_10shared_ptrINS3_9NetStreamEEEEEEENK3$_0clEjPKhmEUlRKS7_RKNS2_5ErrorEbE_NS_9allocatorISN_EEFvSJ_SM_bEED0Ev', symObjAddr: 0x15EC10, symBinAddr: 0x156BA8, symSize: 0x4 }
  - { offset: 0xC3B2A8, size: 0x8, addend: 0x0, symName: '__ZNKSt3__110__function6__funcIZZN6twitch4rtmp13NetConnection12createStreamERKNS_8functionIFvRKNS_10shared_ptrINS3_9NetStreamEEEEEEENK3$_0clEjPKhmEUlRKS7_RKNS2_5ErrorEbE_NS_9allocatorISN_EEFvSJ_SM_bEE7__cloneEv', symObjAddr: 0x15EC14, symBinAddr: 0x156BAC, symSize: 0x34 }
  - { offset: 0xC3B5C3, size: 0x8, addend: 0x0, symName: '__ZNSt3__110__function6__funcIZZN6twitch4rtmp13NetConnection12createStreamERKNS_8functionIFvRKNS_10shared_ptrINS3_9NetStreamEEEEEEENK3$_0clEjPKhmEUlRKS7_RKNS2_5ErrorEbE_NS_9allocatorISN_EEFvSJ_SM_bEE7destroyEv', symObjAddr: 0x15EC5C, symBinAddr: 0x156BF4, symSize: 0x4 }
  - { offset: 0xC3B616, size: 0x8, addend: 0x0, symName: '__ZNSt3__110__function6__funcIZZN6twitch4rtmp13NetConnection12createStreamERKNS_8functionIFvRKNS_10shared_ptrINS3_9NetStreamEEEEEEENK3$_0clEjPKhmEUlRKS7_RKNS2_5ErrorEbE_NS_9allocatorISN_EEFvSJ_SM_bEE18destroy_deallocateEv', symObjAddr: 0x15EC60, symBinAddr: 0x156BF8, symSize: 0x4 }
  - { offset: 0xC3B64D, size: 0x8, addend: 0x0, symName: '__ZNSt3__110__function6__funcIZZN6twitch4rtmp13NetConnection12createStreamERKNS_8functionIFvRKNS_10shared_ptrINS3_9NetStreamEEEEEEENK3$_0clEjPKhmEUlRKS7_RKNS2_5ErrorEbE_NS_9allocatorISN_EEFvSJ_SM_bEE18destroy_deallocateEv', symObjAddr: 0x15EC60, symBinAddr: 0x156BF8, symSize: 0x4 }
  - { offset: 0xC3B672, size: 0x8, addend: 0x0, symName: '__ZNSt3__110__function6__funcIZZN6twitch4rtmp13NetConnection12createStreamERKNS_8functionIFvRKNS_10shared_ptrINS3_9NetStreamEEEEEEENK3$_0clEjPKhmEUlRKS7_RKNS2_5ErrorEbE_NS_9allocatorISN_EEFvSJ_SM_bEE18destroy_deallocateEv', symObjAddr: 0x15EC60, symBinAddr: 0x156BF8, symSize: 0x4 }
  - { offset: 0xC3B6A1, size: 0x8, addend: 0x0, symName: '__ZNSt3__110__function6__funcIZZN6twitch4rtmp13NetConnection12createStreamERKNS_8functionIFvRKNS_10shared_ptrINS3_9NetStreamEEEEEEENK3$_0clEjPKhmEUlRKS7_RKNS2_5ErrorEbE_NS_9allocatorISN_EEFvSJ_SM_bEE18destroy_deallocateEv', symObjAddr: 0x15EC60, symBinAddr: 0x156BF8, symSize: 0x4 }
  - { offset: 0xC3B6CA, size: 0x8, addend: 0x0, symName: '__ZNSt3__110__function6__funcIZZN6twitch4rtmp13NetConnection12createStreamERKNS_8functionIFvRKNS_10shared_ptrINS3_9NetStreamEEEEEEENK3$_0clEjPKhmEUlRKS7_RKNS2_5ErrorEbE_NS_9allocatorISN_EEFvSJ_SM_bEE18destroy_deallocateEv', symObjAddr: 0x15EC60, symBinAddr: 0x156BF8, symSize: 0x4 }
  - { offset: 0xC3B7D0, size: 0x8, addend: 0x0, symName: '__ZNSt3__110__function6__funcIZZN6twitch4rtmp13NetConnection12createStreamERKNS_8functionIFvRKNS_10shared_ptrINS3_9NetStreamEEEEEEENK3$_0clEjPKhmEUlRKS7_RKNS2_5ErrorEbE_NS_9allocatorISN_EEFvSJ_SM_bEEclESJ_SM_Ob', symObjAddr: 0x15EC64, symBinAddr: 0x156BFC, symSize: 0x28 }
  - { offset: 0xC3B914, size: 0x8, addend: 0x0, symName: __ZNSt3__120__shared_ptr_emplaceIN6twitch4rtmp9NetStreamENS_9allocatorIS3_EEED1Ev, symObjAddr: 0x15EC8C, symBinAddr: 0x156C24, symSize: 0x10 }
  - { offset: 0xC3B938, size: 0x8, addend: 0x0, symName: __ZNSt3__120__shared_ptr_emplaceIN6twitch4rtmp9NetStreamENS_9allocatorIS3_EEED1Ev, symObjAddr: 0x15EC8C, symBinAddr: 0x156C24, symSize: 0x10 }
  - { offset: 0xC3B96F, size: 0x8, addend: 0x0, symName: __ZNSt3__120__shared_ptr_emplaceIN6twitch4rtmp9NetStreamENS_9allocatorIS3_EEED0Ev, symObjAddr: 0x15EC9C, symBinAddr: 0x156C34, symSize: 0x20 }
  - { offset: 0xC3BC23, size: 0x8, addend: 0x0, symName: __ZNSt3__120__shared_ptr_emplaceIN6twitch4rtmp9NetStreamENS_9allocatorIS3_EEE16__on_zero_sharedEv, symObjAddr: 0x15ECBC, symBinAddr: 0x156C54, symSize: 0xD0 }
  - { offset: 0xC3C34B, size: 0x8, addend: 0x0, symName: __ZNSt3__120__shared_ptr_emplaceIN6twitch4rtmp9NetStreamENS_9allocatorIS3_EEE21__on_zero_shared_weakEv, symObjAddr: 0x15ED8C, symBinAddr: 0x156D24, symSize: 0x4 }
  - { offset: 0xC3C380, size: 0x8, addend: 0x0, symName: __ZNSt3__120__shared_ptr_emplaceIN6twitch4rtmp9NetStreamENS_9allocatorIS3_EEE21__on_zero_shared_weakEv, symObjAddr: 0x15ED8C, symBinAddr: 0x156D24, symSize: 0x4 }
  - { offset: 0xC3C3A5, size: 0x8, addend: 0x0, symName: __ZNSt3__120__shared_ptr_emplaceIN6twitch4rtmp9NetStreamENS_9allocatorIS3_EEE21__on_zero_shared_weakEv, symObjAddr: 0x15ED8C, symBinAddr: 0x156D24, symSize: 0x4 }
  - { offset: 0xC3C3CA, size: 0x8, addend: 0x0, symName: __ZNSt3__120__shared_ptr_emplaceIN6twitch4rtmp9NetStreamENS_9allocatorIS3_EEE21__on_zero_shared_weakEv, symObjAddr: 0x15ED8C, symBinAddr: 0x156D24, symSize: 0x4 }
  - { offset: 0xC3C3FB, size: 0x8, addend: 0x0, symName: __ZNSt3__120__shared_ptr_emplaceIN6twitch4rtmp9NetStreamENS_9allocatorIS3_EEE21__on_zero_shared_weakEv, symObjAddr: 0x15ED8C, symBinAddr: 0x156D24, symSize: 0x4 }
  - { offset: 0xC3C426, size: 0x8, addend: 0x0, symName: __ZNSt3__120__shared_ptr_emplaceIN6twitch4rtmp9NetStreamENS_9allocatorIS3_EEE21__on_zero_shared_weakEv, symObjAddr: 0x15ED8C, symBinAddr: 0x156D24, symSize: 0x4 }
  - { offset: 0xC3C641, size: 0x8, addend: 0x0, symName: __ZN6twitch4rtmp13NetConnection15setErrorHandlerERKNSt3__18functionIFvRKS1_jRKNS_5ErrorEbEEE, symObjAddr: 0x15EDD8, symBinAddr: 0x156D28, symSize: 0x204 }
  - { offset: 0xA4DC41, size: 0x8, addend: 0x0, symName: _i2v_BASIC_CONSTRAINTS, symObjAddr: 0x10FDEC, symBinAddr: 0x10A034, symSize: 0x6C }
  - { offset: 0xA4DC5A, size: 0x8, addend: 0x0, symName: _v3_bcons, symObjAddr: 0x1E3F18, symBinAddr: 0x1EAED0, symSize: 0x0 }
  - { offset: 0xA4F357, size: 0x8, addend: 0x0, symName: _BASIC_CONSTRAINTS_it, symObjAddr: 0x1E2818, symBinAddr: 0x1E97D0, symSize: 0x0 }
  - { offset: 0xA4F36D, size: 0x8, addend: 0x0, symName: _BASIC_CONSTRAINTS_seq_tt, symObjAddr: 0x1E2850, symBinAddr: 0x1E9808, symSize: 0x0 }
  - { offset: 0xA4F418, size: 0x8, addend: 0x0, symName: _i2v_BASIC_CONSTRAINTS, symObjAddr: 0x10FDEC, symBinAddr: 0x10A034, symSize: 0x6C }
  - { offset: 0xA4F514, size: 0x8, addend: 0x0, symName: _v2i_BASIC_CONSTRAINTS, symObjAddr: 0x10FE58, symBinAddr: 0x10A0A0, symSize: 0x170 }
  - { offset: 0x42A2EA, size: 0x8, addend: 0x0, symName: '-[IVSBroadcastKeyValueObserver dealloc]', symObjAddr: 0x64320, symBinAddr: 0x643A0, symSize: 0x78 }
  - { offset: 0x42A5D5, size: 0x8, addend: 0x0, symName: '-[IVSBroadcastKeyValueObserver dealloc]', symObjAddr: 0x64320, symBinAddr: 0x643A0, symSize: 0x78 }
  - { offset: 0x42A65B, size: 0x8, addend: 0x0, symName: '-[IVSBroadcastKeyValueObserver observeValueForKeyPath:ofObject:change:context:]', symObjAddr: 0x64398, symBinAddr: 0x64418, symSize: 0xA0 }
  - { offset: 0x42A722, size: 0x8, addend: 0x0, symName: '-[IVSBroadcastKeyValueObserver .cxx_destruct]', symObjAddr: 0x64438, symBinAddr: 0x644B8, symSize: 0x38 }
  - { offset: 0xD5A88E, size: 0x8, addend: 0x0, symName: __ZN6twitch5debug11PrefixedLogD1Ev, symObjAddr: 0x18DB0C, symBinAddr: 0x184E60, symSize: 0x44 }
  - { offset: 0xD5B6DC, size: 0x8, addend: 0x0, symName: __ZN6twitch5debug11PrefixedLogD1Ev, symObjAddr: 0x18DB0C, symBinAddr: 0x184E60, symSize: 0x44 }
  - { offset: 0xD5B89F, size: 0x8, addend: 0x0, symName: __ZN6twitch5debug11PrefixedLogD0Ev, symObjAddr: 0x18DB50, symBinAddr: 0x184EA4, symSize: 0x44 }
  - { offset: 0xD5BAF1, size: 0x8, addend: 0x0, symName: __ZNK6twitch5debug11PrefixedLog3logENS_3Log5LevelEPKcPc, symObjAddr: 0x18DB94, symBinAddr: 0x184EE8, symSize: 0xA0 }
  - { offset: 0xD5BEAA, size: 0x8, addend: 0x0, symName: __ZN6twitch5debug11PrefixedLog8setLevelENS_3Log5LevelE, symObjAddr: 0x18DC34, symBinAddr: 0x184F88, symSize: 0x10 }
  - { offset: 0xD5BEE4, size: 0x8, addend: 0x0, symName: __ZN6twitch5debug11PrefixedLog8setLevelENS_3Log5LevelE, symObjAddr: 0x18DC34, symBinAddr: 0x184F88, symSize: 0x10 }
  - { offset: 0xD5BF0D, size: 0x8, addend: 0x0, symName: __ZNK6twitch5debug11PrefixedLog8getLevelEv, symObjAddr: 0x18DC44, symBinAddr: 0x184F98, symSize: 0x10 }
  - { offset: 0xD5BF37, size: 0x8, addend: 0x0, symName: __ZNK6twitch5debug11PrefixedLog8getLevelEv, symObjAddr: 0x18DC44, symBinAddr: 0x184F98, symSize: 0x10 }
  - { offset: 0xD5C0F7, size: 0x8, addend: 0x0, symName: __ZN6twitch5debug11PrefixedLogC1ENSt3__110shared_ptrINS_3LogEEEPKcz, symObjAddr: 0x18DC54, symBinAddr: 0x184FA8, symSize: 0xD8 }
  - { offset: 0xD0B29F, size: 0x8, addend: 0x0, symName: __ZN4bssl22tls13_client_handshakeEPNS_13SSL_HANDSHAKEE, symObjAddr: 0x1820A4, symBinAddr: 0x179948, symSize: 0x2A68 }
  - { offset: 0xD0B2BE, size: 0x8, addend: 0x0, symName: __ZN4bsslL7kZeroesE, symObjAddr: 0x19DD50, symBinAddr: 0x1B4618, symSize: 0x0 }
  - { offset: 0xD0BA65, size: 0x8, addend: 0x0, symName: __ZN4bssl22tls13_client_handshakeEPNS_13SSL_HANDSHAKEE, symObjAddr: 0x1820A4, symBinAddr: 0x179948, symSize: 0x2A68 }
  - { offset: 0xD117F2, size: 0x8, addend: 0x0, symName: __ZN4bsslL16close_early_dataEPNS_13SSL_HANDSHAKEE22ssl_encryption_level_t, symObjAddr: 0x184B0C, symBinAddr: 0x17C3B0, symSize: 0x11C }
  - { offset: 0x977F29, size: 0x8, addend: 0x0, symName: __ZNK6twitch3ios11ImageSender6getTagEv, symObjAddr: 0xE09B4, symBinAddr: 0xDB024, symSize: 0x2C }
  - { offset: 0x977F3D, size: 0x8, addend: 0x0, symName: __ZNSt3__19__any_imp17__unique_typeinfoINS_6vectorINS_4pairINS_8weak_ptrIN6twitch8ReceiverINS5_13PictureSampleENS5_5ErrorEEEEES8_EENS_9allocatorISB_EEEEE4__idE, symObjAddr: 0x192878, symBinAddr: 0x1A9148, symSize: 0x0 }
  - { offset: 0x97C234, size: 0x8, addend: 0x0, symName: __ZNK6twitch3ios11ImageSender6getTagEv, symObjAddr: 0xE09B4, symBinAddr: 0xDB024, symSize: 0x2C }
  - { offset: 0x97C28D, size: 0x8, addend: 0x0, symName: __ZNK6twitch3ios11ImageSender6getTagEv, symObjAddr: 0xE09B4, symBinAddr: 0xDB024, symSize: 0x2C }
  - { offset: 0x97C821, size: 0x8, addend: 0x0, symName: __ZN6twitch11MultiSenderINS_13PictureSampleENS_5ErrorEE9setOutputERKNSt3__110shared_ptrINS_8ReceiverIS1_S2_EEEE, symObjAddr: 0xE09E0, symBinAddr: 0xDB050, symSize: 0x1B4 }
  - { offset: 0x97CFEB, size: 0x8, addend: 0x0, symName: __ZN6twitch3ios11ImageSenderD1Ev, symObjAddr: 0xE0B94, symBinAddr: 0xDB204, symSize: 0xA8 }
  - { offset: 0x97D211, size: 0x8, addend: 0x0, symName: __ZN6twitch3ios11ImageSenderD1Ev, symObjAddr: 0xE0B94, symBinAddr: 0xDB204, symSize: 0xA8 }
  - { offset: 0x97D51E, size: 0x8, addend: 0x0, symName: __ZN6twitch3ios11ImageSenderD0Ev, symObjAddr: 0xE0C3C, symBinAddr: 0xDB2AC, symSize: 0xA8 }
  - { offset: 0x97D829, size: 0x8, addend: 0x0, symName: __ZN6twitch3ios11ImageSender7receiveERKNS_13PictureSampleE, symObjAddr: 0xE0CE4, symBinAddr: 0xDB354, symSize: 0x10 }
  - { offset: 0x97D864, size: 0x8, addend: 0x0, symName: __ZN6twitch11MultiSenderINS_13PictureSampleENS_5ErrorEE4sendIS2_Li0EEES2_RKS1_, symObjAddr: 0xE11AC, symBinAddr: 0xDB81C, symSize: 0x70C }
  - { offset: 0x980A22, size: 0x8, addend: 0x0, symName: __ZN6twitch3ios11ImageSender7receiveERKNS_11ErrorSampleE, symObjAddr: 0xE0CF4, symBinAddr: 0xDB364, symSize: 0x10 }
  - { offset: 0x980A5F, size: 0x8, addend: 0x0, symName: __ZThn40_N6twitch3ios11ImageSenderD1Ev, symObjAddr: 0xE0D04, symBinAddr: 0xDB374, symSize: 0xA4 }
  - { offset: 0x980D70, size: 0x8, addend: 0x0, symName: __ZThn40_N6twitch3ios11ImageSenderD0Ev, symObjAddr: 0xE0DA8, symBinAddr: 0xDB418, symSize: 0xAC }
  - { offset: 0x9810BE, size: 0x8, addend: 0x0, symName: __ZThn80_N6twitch3ios11ImageSender7receiveERKNS_13PictureSampleE, symObjAddr: 0xE0E54, symBinAddr: 0xDB4C4, symSize: 0x10 }
  - { offset: 0x981108, size: 0x8, addend: 0x0, symName: __ZThn80_N6twitch3ios11ImageSenderD1Ev, symObjAddr: 0xE0E64, symBinAddr: 0xDB4D4, symSize: 0xA4 }
  - { offset: 0x9813F9, size: 0x8, addend: 0x0, symName: __ZThn80_N6twitch3ios11ImageSenderD0Ev, symObjAddr: 0xE0F08, symBinAddr: 0xDB578, symSize: 0xAC }
  - { offset: 0x981740, size: 0x8, addend: 0x0, symName: __ZThn88_N6twitch3ios11ImageSender7receiveERKNS_11ErrorSampleE, symObjAddr: 0xE0FB4, symBinAddr: 0xDB624, symSize: 0x10 }
  - { offset: 0x98178C, size: 0x8, addend: 0x0, symName: __ZThn88_N6twitch3ios11ImageSenderD1Ev, symObjAddr: 0xE0FC4, symBinAddr: 0xDB634, symSize: 0xA4 }
  - { offset: 0x981A7D, size: 0x8, addend: 0x0, symName: __ZThn88_N6twitch3ios11ImageSenderD0Ev, symObjAddr: 0xE1068, symBinAddr: 0xDB6D8, symSize: 0xAC }
  - { offset: 0x981DA0, size: 0x8, addend: 0x0, symName: __ZN6twitch11MultiSenderINS_13PictureSampleENS_5ErrorEED1Ev, symObjAddr: 0xE1114, symBinAddr: 0xDB784, symSize: 0x4C }
  - { offset: 0x981E98, size: 0x8, addend: 0x0, symName: __ZN6twitch11MultiSenderINS_13PictureSampleENS_5ErrorEED0Ev, symObjAddr: 0xE1160, symBinAddr: 0xDB7D0, symSize: 0x4C }
  - { offset: 0x982D21, size: 0x8, addend: 0x0, symName: __ZN6twitch16MultiSenderErrorINS_13PictureSampleENS_5ErrorEE14receiverErrorsEv, symObjAddr: 0xE18B8, symBinAddr: 0xDBF28, symSize: 0x3C }
  - { offset: 0x983267, size: 0x8, addend: 0x0, symName: __ZNSt3__19__any_imp13_SmallHandlerINS_6vectorINS_4pairINS_8weak_ptrIN6twitch8ReceiverINS5_13PictureSampleENS5_5ErrorEEEEES8_EENS_9allocatorISB_EEEEE8__handleB8nn180100ENS0_7_ActionEPKNS_3anyEPSH_PKSt9type_infoPKv, symObjAddr: 0xE1A94, symBinAddr: 0xDBF64, symSize: 0x184 }
  - { offset: 0x9DFCCD, size: 0x8, addend: 0x0, symName: _asn1_enc_save, symObjAddr: 0xF17AC, symBinAddr: 0xEBA54, symSize: 0xE8 }
  - { offset: 0x9E01EB, size: 0x8, addend: 0x0, symName: _asn1_enc_save, symObjAddr: 0xF17AC, symBinAddr: 0xEBA54, symSize: 0xE8 }
  - { offset: 0x9E036B, size: 0x8, addend: 0x0, symName: _asn1_do_adb, symObjAddr: 0xF1894, symBinAddr: 0xEBB3C, symSize: 0xB8 }
  - { offset: 0xCF4DF6, size: 0x8, addend: 0x0, symName: __ZN4bsslL36ssl_crypto_x509_check_client_CA_listEP22stack_st_CRYPTO_BUFFER, symObjAddr: 0x17BCA8, symBinAddr: 0x17354C, symSize: 0xCC }
  - { offset: 0xCF4E16, size: 0x8, addend: 0x0, symName: __ZN4bssl22ssl_crypto_x509_methodE, symObjAddr: 0x1E8210, symBinAddr: 0x1EF1C8, symSize: 0x0 }
  - { offset: 0xCF4FF5, size: 0x8, addend: 0x0, symName: __ZN4bsslL36ssl_crypto_x509_check_client_CA_listEP22stack_st_CRYPTO_BUFFER, symObjAddr: 0x17BCA8, symBinAddr: 0x17354C, symSize: 0xCC }
  - { offset: 0xCF5023, size: 0x8, addend: 0x0, symName: __ZN4bsslL36ssl_crypto_x509_check_client_CA_listEP22stack_st_CRYPTO_BUFFER, symObjAddr: 0x17BCA8, symBinAddr: 0x17354C, symSize: 0xCC }
  - { offset: 0xCF5057, size: 0x8, addend: 0x0, symName: __ZN4bsslL36ssl_crypto_x509_check_client_CA_listEP22stack_st_CRYPTO_BUFFER, symObjAddr: 0x17BCA8, symBinAddr: 0x17354C, symSize: 0xCC }
  - { offset: 0xCF5076, size: 0x8, addend: 0x0, symName: __ZN4bsslL36ssl_crypto_x509_check_client_CA_listEP22stack_st_CRYPTO_BUFFER, symObjAddr: 0x17BCA8, symBinAddr: 0x17354C, symSize: 0xCC }
  - { offset: 0xCF52A0, size: 0x8, addend: 0x0, symName: __ZN4bsslL26ssl_crypto_x509_cert_clearEPNS_4CERTE, symObjAddr: 0x17BD74, symBinAddr: 0x173618, symSize: 0xFC }
  - { offset: 0xCF55BA, size: 0x8, addend: 0x0, symName: __ZN4bsslL25ssl_crypto_x509_cert_freeEPNS_4CERTE, symObjAddr: 0x17BE70, symBinAddr: 0x173714, symSize: 0x24 }
  - { offset: 0xCF5603, size: 0x8, addend: 0x0, symName: __ZN4bsslL24ssl_crypto_x509_cert_dupEPNS_4CERTEPKS0_, symObjAddr: 0x17BE94, symBinAddr: 0x173738, symSize: 0x38 }
  - { offset: 0xCF566E, size: 0x8, addend: 0x0, symName: __ZN4bsslL39ssl_crypto_x509_cert_flush_cached_chainEPNS_4CERTE, symObjAddr: 0x17BECC, symBinAddr: 0x173770, symSize: 0xBC }
  - { offset: 0xCF5891, size: 0x8, addend: 0x0, symName: __ZN4bsslL38ssl_crypto_x509_cert_flush_cached_leafEPNS_4CERTE, symObjAddr: 0x17BF88, symBinAddr: 0x17382C, symSize: 0x44 }
  - { offset: 0xCF5988, size: 0x8, addend: 0x0, symName: __ZN4bsslL37ssl_crypto_x509_session_cache_objectsEP14ssl_session_st, symObjAddr: 0x17BFCC, symBinAddr: 0x173870, symSize: 0x464 }
  - { offset: 0xCF6AD6, size: 0x8, addend: 0x0, symName: __ZN4bsslL27ssl_crypto_x509_session_dupEP14ssl_session_stPKS0_, symObjAddr: 0x17C430, symBinAddr: 0x173CD4, symSize: 0x68 }
  - { offset: 0xCF6B80, size: 0x8, addend: 0x0, symName: __ZN4bsslL29ssl_crypto_x509_session_clearEP14ssl_session_st, symObjAddr: 0x17C498, symBinAddr: 0x173D3C, symSize: 0x16C }
  - { offset: 0xCF700D, size: 0x8, addend: 0x0, symName: __ZN4bsslL41ssl_crypto_x509_session_verify_cert_chainEP14ssl_session_stPNS_13SSL_HANDSHAKEEPh, symObjAddr: 0x17C604, symBinAddr: 0x173EA8, symSize: 0x274 }
  - { offset: 0xCF7572, size: 0x8, addend: 0x0, symName: __ZN4bsslL40ssl_crypto_x509_hs_flush_cached_ca_namesEPNS_13SSL_HANDSHAKEE, symObjAddr: 0x17C878, symBinAddr: 0x17411C, symSize: 0xBC }
  - { offset: 0xCF77A4, size: 0x8, addend: 0x0, symName: __ZN4bsslL23ssl_crypto_x509_ssl_newEPNS_13SSL_HANDSHAKEE, symObjAddr: 0x17C934, symBinAddr: 0x1741D8, symSize: 0x4C }
  - { offset: 0xCF7813, size: 0x8, addend: 0x0, symName: __ZN4bsslL31ssl_crypto_x509_ssl_config_freeEPNS_10SSL_CONFIGE, symObjAddr: 0x17C980, symBinAddr: 0x174224, symSize: 0xC0 }
  - { offset: 0xCF7A53, size: 0x8, addend: 0x0, symName: __ZN4bsslL42ssl_crypto_x509_ssl_flush_cached_client_CAEPNS_10SSL_CONFIGE, symObjAddr: 0x17CA40, symBinAddr: 0x1742E4, symSize: 0xBC }
  - { offset: 0xCF7DBD, size: 0x8, addend: 0x0, symName: __ZN4bsslL40ssl_crypto_x509_ssl_auto_chain_if_neededEPNS_13SSL_HANDSHAKEE, symObjAddr: 0x17CAFC, symBinAddr: 0x1743A0, symSize: 0x430 }
  - { offset: 0xCF8DAB, size: 0x8, addend: 0x0, symName: __ZN4bsslL27ssl_crypto_x509_ssl_ctx_newEP10ssl_ctx_st, symObjAddr: 0x17CF2C, symBinAddr: 0x1747D0, symSize: 0x140 }
  - { offset: 0xCF8FD2, size: 0x8, addend: 0x0, symName: __ZN4bsslL28ssl_crypto_x509_ssl_ctx_freeEP10ssl_ctx_st, symObjAddr: 0x17D06C, symBinAddr: 0x174910, symSize: 0xC8 }
  - { offset: 0xCF8FF9, size: 0x8, addend: 0x0, symName: __ZN4bsslL28ssl_crypto_x509_ssl_ctx_freeEP10ssl_ctx_st, symObjAddr: 0x17D06C, symBinAddr: 0x174910, symSize: 0xC8 }
  - { offset: 0xCF9266, size: 0x8, addend: 0x0, symName: __ZN4bsslL46ssl_crypto_x509_ssl_ctx_flush_cached_client_CAEP10ssl_ctx_st, symObjAddr: 0x17D134, symBinAddr: 0x1749D8, symSize: 0xBC }
  - { offset: 0xCFB459, size: 0x8, addend: 0x0, symName: _sk_X509_call_free_func, symObjAddr: 0x17D1F0, symBinAddr: 0x174A94, symSize: 0xC }
  - { offset: 0xD096FE, size: 0x8, addend: 0x0, symName: __ZN4bssl37tls13_get_cert_verify_signature_inputEPNS_13SSL_HANDSHAKEEPNS_5ArrayIhEENS_25ssl_cert_verify_context_tE, symObjAddr: 0x181E9C, symBinAddr: 0x179740, symSize: 0x168 }
  - { offset: 0xD0971D, size: 0x8, addend: 0x0, symName: __ZN4bssl21kTLS12DowngradeRandomE, symObjAddr: 0x19DCC4, symBinAddr: 0x1B458C, symSize: 0x0 }
  - { offset: 0xD09737, size: 0x8, addend: 0x0, symName: __ZN4bssl21kTLS13DowngradeRandomE, symObjAddr: 0x19DCCC, symBinAddr: 0x1B4594, symSize: 0x0 }
  - { offset: 0xD09751, size: 0x8, addend: 0x0, symName: __ZN4bssl21kJDK11DowngradeRandomE, symObjAddr: 0x19DCD4, symBinAddr: 0x1B459C, symSize: 0x0 }
  - { offset: 0xD0975F, size: 0x8, addend: 0x0, symName: __ZN4bssl37tls13_get_cert_verify_signature_inputEPNS_13SSL_HANDSHAKEEPNS_5ArrayIhEENS_25ssl_cert_verify_context_tE, symObjAddr: 0x181E9C, symBinAddr: 0x179740, symSize: 0x168 }
  - { offset: 0xD09789, size: 0x8, addend: 0x0, symName: __ZZN4bssl37tls13_get_cert_verify_signature_inputEPNS_13SSL_HANDSHAKEEPNS_5ArrayIhEENS_25ssl_cert_verify_context_tEE8kContext, symObjAddr: 0x19DCDC, symBinAddr: 0x1B45A4, symSize: 0x0 }
  - { offset: 0xD0979F, size: 0x8, addend: 0x0, symName: __ZZN4bssl37tls13_get_cert_verify_signature_inputEPNS_13SSL_HANDSHAKEEPNS_5ArrayIhEENS_25ssl_cert_verify_context_tEE8kContext_0, symObjAddr: 0x19DCFE, symBinAddr: 0x1B45C6, symSize: 0x0 }
  - { offset: 0xD097B5, size: 0x8, addend: 0x0, symName: __ZZN4bssl37tls13_get_cert_verify_signature_inputEPNS_13SSL_HANDSHAKEEPNS_5ArrayIhEENS_25ssl_cert_verify_context_tEE8kContext_1, symObjAddr: 0x19DD20, symBinAddr: 0x1B45E8, symSize: 0x0 }
  - { offset: 0xD09A09, size: 0x8, addend: 0x0, symName: __ZN4bssl20tls13_add_key_updateEP6ssl_sti, symObjAddr: 0x182004, symBinAddr: 0x1798A8, symSize: 0xA0 }
  - { offset: 0x9D50EC, size: 0x8, addend: 0x0, symName: _ASN1_INTEGER_cmp, symObjAddr: 0xECD68, symBinAddr: 0xE7010, symSize: 0x4C }
  - { offset: 0x9D51B4, size: 0x8, addend: 0x0, symName: _ASN1_INTEGER_cmp, symObjAddr: 0xECD68, symBinAddr: 0xE7010, symSize: 0x4C }
  - { offset: 0x9D521F, size: 0x8, addend: 0x0, symName: _ASN1_INTEGER_get, symObjAddr: 0xECDB4, symBinAddr: 0xE705C, symSize: 0x60 }
  - { offset: 0x95AE70, size: 0x8, addend: 0x0, symName: __ZN6twitch3ios22CoreVideoRenderContext19createPictureSampleERKN3glm3vecILi2EfLNS2_9qualifierE0EEENS_11PixelFormatERKNSt3__112basic_stringIcNS9_11char_traitsIcEENS9_9allocatorIcEEEENS_10AccessModeE, symObjAddr: 0xDCCBC, symBinAddr: 0xD7528, symSize: 0x8A8 }
  - { offset: 0x95D4B5, size: 0x8, addend: 0x0, symName: __ZN6twitch3ios22CoreVideoRenderContext19createPictureSampleERKN3glm3vecILi2EfLNS2_9qualifierE0EEENS_11PixelFormatERKNSt3__112basic_stringIcNS9_11char_traitsIcEENS9_9allocatorIcEEEENS_10AccessModeE, symObjAddr: 0xDCCBC, symBinAddr: 0xD7528, symSize: 0x8A8 }
  - { offset: 0x960361, size: 0x8, addend: 0x0, symName: __ZNSt3__14pairIN6twitch14BroadcastErrorENS1_13PictureSampleEEC2B8nn180100IRS2_S3_Li0EEEOT_OT0_, symObjAddr: 0xDDB00, symBinAddr: 0xD836C, symSize: 0x10C }
  - { offset: 0x96061F, size: 0x8, addend: 0x0, symName: __ZNSt3__14pairIN6twitch5ErrorENS1_13PictureSampleEEC2B8nn180100INS1_14BroadcastErrorES3_Li0EEEONS0_IT_T0_EE, symObjAddr: 0xDDC0C, symBinAddr: 0xD8478, symSize: 0x18C }
  - { offset: 0x9610C2, size: 0x8, addend: 0x0, symName: __ZNSt3__113__assoc_stateINS_4pairIN6twitch5ErrorENS2_13PictureSampleEEEE9set_valueIRKS5_EEvOT_, symObjAddr: 0xDDA38, symBinAddr: 0xD82A4, symSize: 0x88 }
  - { offset: 0x96128F, size: 0x8, addend: 0x0, symName: __ZNSt3__120__shared_ptr_emplaceIN6twitch3ios11ImageBufferENS_9allocatorIS3_EEED1Ev, symObjAddr: 0xDDAC0, symBinAddr: 0xD832C, symSize: 0x10 }
  - { offset: 0x9615AA, size: 0x8, addend: 0x0, symName: __ZN6twitch3ios22CoreVideoRenderContext19createPictureSampleEPvRKN3glm3vecILi2EfLNS3_9qualifierE0EEENS_11PixelFormatERKNSt3__112basic_stringIcNSA_11char_traitsIcEENSA_9allocatorIcEEEENS_10AccessModeE, symObjAddr: 0xDD564, symBinAddr: 0xD7DD0, symSize: 0x4C8 }
  - { offset: 0x962ACB, size: 0x8, addend: 0x0, symName: __ZN6twitch3ios22CoreVideoRenderContext19requestUpdateTargetERKNS_13PictureSampleE, symObjAddr: 0xDDA2C, symBinAddr: 0xD8298, symSize: 0x4 }
  - { offset: 0x962AF8, size: 0x8, addend: 0x0, symName: __ZNK6twitch3ios22CoreVideoRenderContext7isValidEv, symObjAddr: 0xDDA30, symBinAddr: 0xD829C, symSize: 0x8 }
  - { offset: 0x962C3B, size: 0x8, addend: 0x0, symName: __ZNSt3__120__shared_ptr_emplaceIN6twitch3ios11ImageBufferENS_9allocatorIS3_EEED1Ev, symObjAddr: 0xDDAC0, symBinAddr: 0xD832C, symSize: 0x10 }
  - { offset: 0x962C5F, size: 0x8, addend: 0x0, symName: __ZNSt3__120__shared_ptr_emplaceIN6twitch3ios11ImageBufferENS_9allocatorIS3_EEED1Ev, symObjAddr: 0xDDAC0, symBinAddr: 0xD832C, symSize: 0x10 }
  - { offset: 0x962C96, size: 0x8, addend: 0x0, symName: __ZNSt3__120__shared_ptr_emplaceIN6twitch3ios11ImageBufferENS_9allocatorIS3_EEED0Ev, symObjAddr: 0xDDAD0, symBinAddr: 0xD833C, symSize: 0x20 }
  - { offset: 0x962D65, size: 0x8, addend: 0x0, symName: __ZNSt3__120__shared_ptr_emplaceIN6twitch3ios11ImageBufferENS_9allocatorIS3_EEE16__on_zero_sharedEv, symObjAddr: 0xDDAF0, symBinAddr: 0xD835C, symSize: 0xC }
  - { offset: 0x962D8F, size: 0x8, addend: 0x0, symName: __ZNSt3__120__shared_ptr_emplaceIN6twitch3ios11ImageBufferENS_9allocatorIS3_EEE16__on_zero_sharedEv, symObjAddr: 0xDDAF0, symBinAddr: 0xD835C, symSize: 0xC }
  - { offset: 0x962DAF, size: 0x8, addend: 0x0, symName: __ZNSt3__120__shared_ptr_emplaceIN6twitch3ios11ImageBufferENS_9allocatorIS3_EEE16__on_zero_sharedEv, symObjAddr: 0xDDAF0, symBinAddr: 0xD835C, symSize: 0xC }
  - { offset: 0x962DCF, size: 0x8, addend: 0x0, symName: __ZNSt3__120__shared_ptr_emplaceIN6twitch3ios11ImageBufferENS_9allocatorIS3_EEE16__on_zero_sharedEv, symObjAddr: 0xDDAF0, symBinAddr: 0xD835C, symSize: 0xC }
  - { offset: 0x962E58, size: 0x8, addend: 0x0, symName: __ZNSt3__120__shared_ptr_emplaceIN6twitch3ios11ImageBufferENS_9allocatorIS3_EEE21__on_zero_shared_weakEv, symObjAddr: 0xDDAFC, symBinAddr: 0xD8368, symSize: 0x4 }
  - { offset: 0x962E8D, size: 0x8, addend: 0x0, symName: __ZNSt3__120__shared_ptr_emplaceIN6twitch3ios11ImageBufferENS_9allocatorIS3_EEE21__on_zero_shared_weakEv, symObjAddr: 0xDDAFC, symBinAddr: 0xD8368, symSize: 0x4 }
  - { offset: 0x962EB2, size: 0x8, addend: 0x0, symName: __ZNSt3__120__shared_ptr_emplaceIN6twitch3ios11ImageBufferENS_9allocatorIS3_EEE21__on_zero_shared_weakEv, symObjAddr: 0xDDAFC, symBinAddr: 0xD8368, symSize: 0x4 }
  - { offset: 0x962ED7, size: 0x8, addend: 0x0, symName: __ZNSt3__120__shared_ptr_emplaceIN6twitch3ios11ImageBufferENS_9allocatorIS3_EEE21__on_zero_shared_weakEv, symObjAddr: 0xDDAFC, symBinAddr: 0xD8368, symSize: 0x4 }
  - { offset: 0x962F08, size: 0x8, addend: 0x0, symName: __ZNSt3__120__shared_ptr_emplaceIN6twitch3ios11ImageBufferENS_9allocatorIS3_EEE21__on_zero_shared_weakEv, symObjAddr: 0xDDAFC, symBinAddr: 0xD8368, symSize: 0x4 }
  - { offset: 0x962F33, size: 0x8, addend: 0x0, symName: __ZNSt3__120__shared_ptr_emplaceIN6twitch3ios11ImageBufferENS_9allocatorIS3_EEE21__on_zero_shared_weakEv, symObjAddr: 0xDDAFC, symBinAddr: 0xD8368, symSize: 0x4 }
  - { offset: 0x963276, size: 0x8, addend: 0x0, symName: __ZN6twitch3ios22CoreVideoRenderContextC2Eb, symObjAddr: 0xDDE68, symBinAddr: 0xD8604, symSize: 0xA8 }
  - { offset: 0x9632BC, size: 0x8, addend: 0x0, symName: __ZN6twitch3ios22CoreVideoRenderContextC2Eb, symObjAddr: 0xDDE68, symBinAddr: 0xD8604, symSize: 0xA8 }
  - { offset: 0x9632E3, size: 0x8, addend: 0x0, symName: __ZN6twitch3ios22CoreVideoRenderContextC2Eb, symObjAddr: 0xDDE68, symBinAddr: 0xD8604, symSize: 0xA8 }
  - { offset: 0x96330A, size: 0x8, addend: 0x0, symName: __ZN6twitch3ios22CoreVideoRenderContextC2Eb, symObjAddr: 0xDDE68, symBinAddr: 0xD8604, symSize: 0xA8 }
  - { offset: 0xA477C7, size: 0x8, addend: 0x0, symName: _i2v_AUTHORITY_KEYID, symObjAddr: 0x10E520, symBinAddr: 0x108768, symSize: 0xD8 }
  - { offset: 0xA477E0, size: 0x8, addend: 0x0, symName: _v3_akey_id, symObjAddr: 0x1E4050, symBinAddr: 0x1EB008, symSize: 0x0 }
  - { offset: 0xA490D8, size: 0x8, addend: 0x0, symName: _i2v_AUTHORITY_KEYID, symObjAddr: 0x10E520, symBinAddr: 0x108768, symSize: 0xD8 }
  - { offset: 0xA492F8, size: 0x8, addend: 0x0, symName: _v2i_AUTHORITY_KEYID, symObjAddr: 0x10E5F8, symBinAddr: 0x108840, symSize: 0x388 }
  - { offset: 0x9D686E, size: 0x8, addend: 0x0, symName: _table_cmp, symObjAddr: 0xED668, symBinAddr: 0xE7910, symSize: 0x10 }
  - { offset: 0x9D6888, size: 0x8, addend: 0x0, symName: _tbl_standard, symObjAddr: 0x192B28, symBinAddr: 0x1A93F8, symSize: 0x0 }
  - { offset: 0x9D695E, size: 0x8, addend: 0x0, symName: _table_cmp, symObjAddr: 0xED668, symBinAddr: 0xE7910, symSize: 0x10 }
  - { offset: 0xD2A859, size: 0x8, addend: 0x0, symName: __ZN6twitch21ChunkedCircularBufferIhE7advanceEl, symObjAddr: 0x18838C, symBinAddr: 0x17FBA0, symSize: 0x1CC }
  - { offset: 0xD2E894, size: 0x8, addend: 0x0, symName: __ZNSt3__114__split_bufferIPN6twitch21ChunkedCircularBufferIhE10ChunkRangeENS_9allocatorIS5_EEE9push_backEOS5_, symObjAddr: 0x189010, symBinAddr: 0x180754, symSize: 0x110 }
  - { offset: 0xD3003F, size: 0x8, addend: 0x0, symName: __ZN6twitch21ChunkedCircularBufferIhE7advanceEl, symObjAddr: 0x18838C, symBinAddr: 0x17FBA0, symSize: 0x1CC }
  - { offset: 0xD303B0, size: 0x8, addend: 0x0, symName: __ZNSt3__15dequeIN6twitch21ChunkedCircularBufferIhE10ChunkRangeENS_9allocatorIS4_EEE5eraseENS_16__deque_iteratorIS4_PKS4_RS9_PKSA_lLl170EEESE_, symObjAddr: 0x188558, symBinAddr: 0x17FD6C, symSize: 0x3F0 }
  - { offset: 0xD31650, size: 0x8, addend: 0x0, symName: __ZNKSt3__120__move_backward_loopINS_17_ClassicAlgPolicyEEclB8nn180100IPN6twitch21ChunkedCircularBufferIhE10ChunkRangeENS_16__deque_iteratorIS7_S8_RS7_PS8_lLl170EEELi0EEENS_4pairIT_T0_EESE_SE_SF_, symObjAddr: 0x188AC0, symBinAddr: 0x180238, symSize: 0xE0 }
  - { offset: 0xD318AE, size: 0x8, addend: 0x0, symName: __ZNKSt3__111__move_loopINS_17_ClassicAlgPolicyEEclB8nn180100IPN6twitch21ChunkedCircularBufferIhE10ChunkRangeENS_16__deque_iteratorIS7_S8_RS7_PS8_lLl170EEELi0EEENS_4pairIT_T0_EESE_SE_SF_, symObjAddr: 0x1889E4, symBinAddr: 0x18015C, symSize: 0xDC }
  - { offset: 0xD32266, size: 0x8, addend: 0x0, symName: __ZN6twitch21ChunkedCircularBufferIhE8endChunkEv, symObjAddr: 0x188BA0, symBinAddr: 0x180318, symSize: 0x43C }
  - { offset: 0xD3344B, size: 0x8, addend: 0x0, symName: __ZNSt3__114__split_bufferIPN6twitch21ChunkedCircularBufferIhE10ChunkRangeENS_9allocatorIS5_EEE9push_backEOS5_, symObjAddr: 0x189010, symBinAddr: 0x180754, symSize: 0x110 }
  - { offset: 0xD34007, size: 0x8, addend: 0x0, symName: __ZNSt3__15dequeIN6twitch21ChunkedCircularBufferIhE10ChunkRangeENS_9allocatorIS4_EEE10push_frontEOS4_, symObjAddr: 0x189344, symBinAddr: 0x180864, symSize: 0x300 }
  - { offset: 0xD130FC, size: 0x8, addend: 0x0, symName: __ZN4bssl23tls13_init_key_scheduleEPNS_13SSL_HANDSHAKEENS_4SpanIKhEE, symObjAddr: 0x184C28, symBinAddr: 0x17C4CC, symSize: 0x98 }
  - { offset: 0xD1311B, size: 0x8, addend: 0x0, symName: __ZN4bsslL18kTLS13LabelDerivedE, symObjAddr: 0x19DD90, symBinAddr: 0x1B4658, symSize: 0x0 }
  - { offset: 0xD13135, size: 0x8, addend: 0x0, symName: __ZN4bsslL29kTLS13LabelClientEarlyTrafficE, symObjAddr: 0x19DD98, symBinAddr: 0x1B4660, symSize: 0x0 }
  - { offset: 0xD1314F, size: 0x8, addend: 0x0, symName: __ZN4bsslL33kTLS13LabelClientHandshakeTrafficE, symObjAddr: 0x19DDA4, symBinAddr: 0x1B466C, symSize: 0x0 }
  - { offset: 0xD13169, size: 0x8, addend: 0x0, symName: __ZN4bsslL33kTLS13LabelServerHandshakeTrafficE, symObjAddr: 0x19DDB1, symBinAddr: 0x1B4679, symSize: 0x0 }
  - { offset: 0xD13183, size: 0x8, addend: 0x0, symName: __ZN4bsslL35kTLS13LabelClientApplicationTrafficE, symObjAddr: 0x19DDBE, symBinAddr: 0x1B4686, symSize: 0x0 }
  - { offset: 0xD1319D, size: 0x8, addend: 0x0, symName: __ZN4bsslL35kTLS13LabelServerApplicationTrafficE, symObjAddr: 0x19DDCB, symBinAddr: 0x1B4693, symSize: 0x0 }
  - { offset: 0xD131B7, size: 0x8, addend: 0x0, symName: __ZN4bsslL19kTLS13LabelExporterE, symObjAddr: 0x19DDD8, symBinAddr: 0x1B46A0, symSize: 0x0 }
  - { offset: 0xD131D2, size: 0x8, addend: 0x0, symName: __ZN4bsslL29kTLS13LabelApplicationTrafficE, symObjAddr: 0x19DDE3, symBinAddr: 0x1B46AB, symSize: 0x0 }
  - { offset: 0xD131ED, size: 0x8, addend: 0x0, symName: __ZN4bsslL21kTLS13LabelResumptionE, symObjAddr: 0x19DDEF, symBinAddr: 0x1B46B7, symSize: 0x0 }
  - { offset: 0xD13208, size: 0x8, addend: 0x0, symName: __ZN4bsslL19kTLS13LabelFinishedE, symObjAddr: 0x19DE05, symBinAddr: 0x1B46CD, symSize: 0x0 }
  - { offset: 0xD13223, size: 0x8, addend: 0x0, symName: __ZN4bsslL24kTLS13LabelResumptionPSKE, symObjAddr: 0x19DDFA, symBinAddr: 0x1B46C2, symSize: 0x0 }
  - { offset: 0xD1323E, size: 0x8, addend: 0x0, symName: __ZN4bsslL20kTLS13LabelPSKBinderE, symObjAddr: 0x19DE0E, symBinAddr: 0x1B46D6, symSize: 0x0 }
  - { offset: 0xD1332F, size: 0x8, addend: 0x0, symName: __ZN4bssl23tls13_init_key_scheduleEPNS_13SSL_HANDSHAKEENS_4SpanIKhEE, symObjAddr: 0x184C28, symBinAddr: 0x17C4CC, symSize: 0x98 }
  - { offset: 0xD134EB, size: 0x8, addend: 0x0, symName: __ZN4bsslL17init_key_scheduleEPNS_13SSL_HANDSHAKEEtPK13ssl_cipher_st, symObjAddr: 0x184CC0, symBinAddr: 0x17C564, symSize: 0x54 }
  - { offset: 0xD13619, size: 0x8, addend: 0x0, symName: __ZN4bssl26tls13_advance_key_scheduleEPNS_13SSL_HANDSHAKEENS_4SpanIKhEE, symObjAddr: 0x184D14, symBinAddr: 0x17C5B8, symSize: 0xE4 }
  - { offset: 0xD13624, size: 0x8, addend: 0x0, symName: __ZN4bssl26tls13_advance_key_scheduleEPNS_13SSL_HANDSHAKEENS_4SpanIKhEE, symObjAddr: 0x184D14, symBinAddr: 0x17C5B8, symSize: 0xE4 }
  - { offset: 0xD137C4, size: 0x8, addend: 0x0, symName: __ZN4bsslL17hkdf_expand_labelENS_4SpanIhEEPK9env_md_stNS0_IKhEENS0_IKcEES6_, symObjAddr: 0x184DF8, symBinAddr: 0x17C69C, symSize: 0x2D4 }
  - { offset: 0xD13E88, size: 0x8, addend: 0x0, symName: __ZN4bssl21tls13_set_traffic_keyEP6ssl_st22ssl_encryption_level_t20evp_aead_direction_tPK14ssl_session_stNS_4SpanIKhEE, symObjAddr: 0x1850CC, symBinAddr: 0x17C970, symSize: 0x354 }
  - { offset: 0xD14A58, size: 0x8, addend: 0x0, symName: __ZN4bsslL13derive_secretEPNS_13SSL_HANDSHAKEENS_4SpanIhEENS2_IKcEE, symObjAddr: 0x185420, symBinAddr: 0x17CCC4, symSize: 0xB0 }
  - { offset: 0xD14B2F, size: 0x8, addend: 0x0, symName: __ZN4bssl30tls13_derive_handshake_secretsEPNS_13SSL_HANDSHAKEE, symObjAddr: 0x1854D0, symBinAddr: 0x17CD74, symSize: 0xB0 }
  - { offset: 0xD14C20, size: 0x8, addend: 0x0, symName: __ZN4bssl24tls13_rotate_traffic_keyEP6ssl_st20evp_aead_direction_t, symObjAddr: 0x185580, symBinAddr: 0x17CE24, symSize: 0xEC }
  - { offset: 0xD14D8B, size: 0x8, addend: 0x0, symName: __ZN4bssl18tls13_finished_macEPNS_13SSL_HANDSHAKEEPhPmb, symObjAddr: 0x18566C, symBinAddr: 0x17CF10, symSize: 0xB4 }
  - { offset: 0xD14E75, size: 0x8, addend: 0x0, symName: __ZN4bsslL17tls13_verify_dataEPhPmPK9env_md_sttNS_4SpanIKhEES7_, symObjAddr: 0x185720, symBinAddr: 0x17CFC4, symSize: 0xC4 }
  - { offset: 0xD14F61, size: 0x8, addend: 0x0, symName: __ZN4bssl24tls13_derive_session_pskEP14ssl_session_stNS_4SpanIKhEE, symObjAddr: 0x1857E4, symBinAddr: 0x17D088, symSize: 0x60 }
  - { offset: 0xD15108, size: 0x8, addend: 0x0, symName: __ZN4bssl22tls13_write_psk_binderEPNS_13SSL_HANDSHAKEENS_4SpanIhEE, symObjAddr: 0x185844, symBinAddr: 0x17D0E8, symSize: 0x290 }
  - { offset: 0x9DE305, size: 0x8, addend: 0x0, symName: _asn1_item_ex_combine_new, symObjAddr: 0xF1284, symBinAddr: 0xEB52C, symSize: 0x2D8 }
  - { offset: 0x9DEDE5, size: 0x8, addend: 0x0, symName: _asn1_item_ex_combine_new, symObjAddr: 0xF1284, symBinAddr: 0xEB52C, symSize: 0x2D8 }
  - { offset: 0x9DF14C, size: 0x8, addend: 0x0, symName: _ASN1_template_new, symObjAddr: 0xF155C, symBinAddr: 0xEB804, symSize: 0x100 }
  - { offset: 0x9DF28E, size: 0x8, addend: 0x0, symName: _ASN1_primitive_new, symObjAddr: 0xF165C, symBinAddr: 0xEB904, symSize: 0x10C }
  - { offset: 0x9DF3DF, size: 0x8, addend: 0x0, symName: _asn1_primitive_clear, symObjAddr: 0xF1768, symBinAddr: 0xEBA10, symSize: 0x44 }
  - { offset: 0xA147CB, size: 0x8, addend: 0x0, symName: _kTriples, symObjAddr: 0x19AA3C, symBinAddr: 0x1B1304, symSize: 0x0 }
  - { offset: 0x9E292D, size: 0x8, addend: 0x0, symName: _BN_bn2cbb_padded, symObjAddr: 0xF233C, symBinAddr: 0xEC5E4, symSize: 0x4C }
  - { offset: 0x9E2AAF, size: 0x8, addend: 0x0, symName: _BN_bn2cbb_padded, symObjAddr: 0xF233C, symBinAddr: 0xEC5E4, symSize: 0x4C }
  - { offset: 0x953D84, size: 0x8, addend: 0x0, symName: __ZN6twitch3ios22CoreImageRenderContextD1Ev, symObjAddr: 0xDB778, symBinAddr: 0xD5FE4, symSize: 0x4 }
  - { offset: 0x954E28, size: 0x8, addend: 0x0, symName: __ZN6twitch3ios22CoreImageRenderContextD1Ev, symObjAddr: 0xDB778, symBinAddr: 0xD5FE4, symSize: 0x4 }
  - { offset: 0x954E4C, size: 0x8, addend: 0x0, symName: __ZN6twitch3ios22CoreImageRenderContextD1Ev, symObjAddr: 0xDB778, symBinAddr: 0xD5FE4, symSize: 0x4 }
  - { offset: 0x954E75, size: 0x8, addend: 0x0, symName: __ZN6twitch3ios22CoreImageRenderContextD0Ev, symObjAddr: 0xDB77C, symBinAddr: 0xD5FE8, symSize: 0x14 }
  - { offset: 0x95501F, size: 0x8, addend: 0x0, symName: __ZN6twitch3ios22CoreImageRenderContext5startEv, symObjAddr: 0xDB790, symBinAddr: 0xD5FFC, symSize: 0x1A0 }
  - { offset: 0x955919, size: 0x8, addend: 0x0, symName: __ZN6twitch3ios22CoreImageRenderContext4execERKNSt3__112basic_stringIcNS2_11char_traitsIcEENS2_9allocatorIcEEEENS2_8functionIFNS_5ErrorERNS_13RenderContextEEEE, symObjAddr: 0xDB930, symBinAddr: 0xD619C, symSize: 0x4F0 }
  - { offset: 0x957275, size: 0x8, addend: 0x0, symName: __ZN6twitch3ios22CoreImageRenderContext13endRenderPassEv, symObjAddr: 0xDCAA4, symBinAddr: 0xD7310, symSize: 0x210 }
  - { offset: 0x957C1B, size: 0x8, addend: 0x0, symName: __ZN6twitch3ios22CoreImageRenderContext5applyENSt3__112basic_stringIcNS2_11char_traitsIcEENS2_9allocatorIcEEEERKNS_13PictureSampleESB_b, symObjAddr: 0xDBE20, symBinAddr: 0xD668C, symSize: 0x60C }
  - { offset: 0x9587CE, size: 0x8, addend: 0x0, symName: __ZN6twitch3ios22CoreImageRenderContext15startRenderPassERKNS_13PictureSampleE, symObjAddr: 0xDC5D0, symBinAddr: 0xD6E3C, symSize: 0x4D4 }
  - { offset: 0x95A189, size: 0x8, addend: 0x0, symName: __ZN6twitch3ios22CoreImageRenderContext5clearERKNS_13PictureSampleE, symObjAddr: 0xDC42C, symBinAddr: 0xD6C98, symSize: 0x194 }
  - { offset: 0x95A8FE, size: 0x8, addend: 0x0, symName: __ZN6twitch3ios22CoreImageRenderContext12rendererNameEv, symObjAddr: 0xDC5C0, symBinAddr: 0xD6E2C, symSize: 0x10 }
  - { offset: 0x95AB5E, size: 0x8, addend: 0x0, symName: __ZN6twitch3ios22CoreVideoRenderContextD1Ev, symObjAddr: 0xDCCB4, symBinAddr: 0xD7520, symSize: 0x4 }
  - { offset: 0x95AB87, size: 0x8, addend: 0x0, symName: __ZN6twitch3ios22CoreVideoRenderContextD0Ev, symObjAddr: 0xDCCB8, symBinAddr: 0xD7524, symSize: 0x4 }
  - { offset: 0xA613A, size: 0x8, addend: 0x0, symName: '-[IVSAudioDeviceStatsReceiver init]', symObjAddr: 0x2400, symBinAddr: 0x5220, symSize: 0x1C0 }
  - { offset: 0xA89A3, size: 0x8, addend: 0x0, symName: __ZNSt3__125__throw_bad_function_callB8nn180100Ev, symObjAddr: 0x2B34, symBinAddr: 0x5954, symSize: 0xC }
  - { offset: 0xA89C1, size: 0x8, addend: 0x0, symName: '__ZNSt3__110__function6__funcIZ35-[IVSAudioDeviceStatsReceiver init]E3$_0NS_9allocatorIS2_EEFN6twitch5ErrorERKNS5_13ControlSampleEEED1Ev', symObjAddr: 0x2B40, symBinAddr: 0x5960, symSize: 0x28 }
  - { offset: 0xA9DD1, size: 0x8, addend: 0x0, symName: '-[IVSAudioDeviceStatsReceiver init]', symObjAddr: 0x2400, symBinAddr: 0x5220, symSize: 0x1C0 }
  - { offset: 0xAB325, size: 0x8, addend: 0x0, symName: '-[IVSAudioDeviceStatsReceiver controlSampleReceived:]', symObjAddr: 0x25C0, symBinAddr: 0x53E0, symSize: 0x2AC }
  - { offset: 0xAB91D, size: 0x8, addend: 0x0, symName: '-[IVSAudioDeviceStatsReceiver statsCallback]', symObjAddr: 0x286C, symBinAddr: 0x568C, symSize: 0x8 }
  - { offset: 0xAB954, size: 0x8, addend: 0x0, symName: '-[IVSAudioDeviceStatsReceiver setStatsCallback:]', symObjAddr: 0x2874, symBinAddr: 0x5694, symSize: 0x8 }
  - { offset: 0xAB993, size: 0x8, addend: 0x0, symName: '-[IVSAudioDeviceStatsReceiver .cxx_destruct]', symObjAddr: 0x287C, symBinAddr: 0x569C, symSize: 0x2C }
  - { offset: 0xAB9F2, size: 0x8, addend: 0x0, symName: __ZNSt3__110shared_ptrIN6twitch8ReceiverINS1_13ControlSampleENS1_5ErrorEEEED2B8nn180100Ev, symObjAddr: 0x28B0, symBinAddr: 0x56D0, symSize: 0x50 }
  - { offset: 0xABAB0, size: 0x8, addend: 0x0, symName: '-[IVSAudioDeviceStatsReceiver .cxx_construct]', symObjAddr: 0x28A8, symBinAddr: 0x56C8, symSize: 0x8 }
  - { offset: 0xABAE8, size: 0x8, addend: 0x0, symName: '-[IVSAudioDeviceStatsReceiver .cxx_construct]', symObjAddr: 0x28A8, symBinAddr: 0x56C8, symSize: 0x8 }
  - { offset: 0xABB07, size: 0x8, addend: 0x0, symName: '-[IVSAudioDeviceStatsReceiver .cxx_construct]', symObjAddr: 0x28A8, symBinAddr: 0x56C8, symSize: 0x8 }
  - { offset: 0xABB26, size: 0x8, addend: 0x0, symName: '___53-[IVSAudioDeviceStatsReceiver controlSampleReceived:]_block_invoke', symObjAddr: 0x2900, symBinAddr: 0x5720, symSize: 0x10 }
  - { offset: 0xABB7D, size: 0x8, addend: 0x0, symName: ___copy_helper_block_a8_32s40b, symObjAddr: 0x2910, symBinAddr: 0x5730, symSize: 0x34 }
  - { offset: 0xABBA6, size: 0x8, addend: 0x0, symName: ___destroy_helper_block_a8_32s40s, symObjAddr: 0x2944, symBinAddr: 0x5764, symSize: 0x28 }
  - { offset: 0xABBC5, size: 0x8, addend: 0x0, symName: '-[IVSAudioDeviceStats initWithPeak:rms:]', symObjAddr: 0x296C, symBinAddr: 0x578C, symSize: 0x78 }
  - { offset: 0xABC1C, size: 0x8, addend: 0x0, symName: '-[IVSAudioDeviceStats description]', symObjAddr: 0x29E4, symBinAddr: 0x5804, symSize: 0x60 }
  - { offset: 0xABC53, size: 0x8, addend: 0x0, symName: '-[IVSAudioDeviceStats peak]', symObjAddr: 0x2A44, symBinAddr: 0x5864, symSize: 0x8 }
  - { offset: 0xABC88, size: 0x8, addend: 0x0, symName: '-[IVSAudioDeviceStats rms]', symObjAddr: 0x2A4C, symBinAddr: 0x586C, symSize: 0x8 }
  - { offset: 0xABCBD, size: 0x8, addend: 0x0, symName: __ZN6twitch10Attachable10onAttachedEv, symObjAddr: 0x2A54, symBinAddr: 0x5874, symSize: 0x4 }
  - { offset: 0xABD34, size: 0x8, addend: 0x0, symName: __ZN6twitch10InlineSinkINS_13ControlSampleEE7receiveERKS1_, symObjAddr: 0x2A58, symBinAddr: 0x5878, symSize: 0x24 }
  - { offset: 0xABDCB, size: 0x8, addend: 0x0, symName: __ZN6twitch10InlineSinkINS_13ControlSampleEED1Ev, symObjAddr: 0x2A7C, symBinAddr: 0x589C, symSize: 0x5C }
  - { offset: 0xABDFA, size: 0x8, addend: 0x0, symName: __ZN6twitch10InlineSinkINS_13ControlSampleEED1Ev, symObjAddr: 0x2A7C, symBinAddr: 0x589C, symSize: 0x5C }
  - { offset: 0xABEE4, size: 0x8, addend: 0x0, symName: __ZN6twitch10InlineSinkINS_13ControlSampleEED0Ev, symObjAddr: 0x2AD8, symBinAddr: 0x58F8, symSize: 0x5C }
  - { offset: 0xAC082, size: 0x8, addend: 0x0, symName: '__ZNSt3__110__function6__funcIZ35-[IVSAudioDeviceStatsReceiver init]E3$_0NS_9allocatorIS2_EEFN6twitch5ErrorERKNS5_13ControlSampleEEED1Ev', symObjAddr: 0x2B40, symBinAddr: 0x5960, symSize: 0x28 }
  - { offset: 0xAC1B1, size: 0x8, addend: 0x0, symName: '__ZNSt3__110__function6__funcIZ35-[IVSAudioDeviceStatsReceiver init]E3$_0NS_9allocatorIS2_EEFN6twitch5ErrorERKNS5_13ControlSampleEEED0Ev', symObjAddr: 0x2B68, symBinAddr: 0x5988, symSize: 0x28 }
  - { offset: 0xAC4D5, size: 0x8, addend: 0x0, symName: '__ZNKSt3__110__function6__funcIZ35-[IVSAudioDeviceStatsReceiver init]E3$_0NS_9allocatorIS2_EEFN6twitch5ErrorERKNS5_13ControlSampleEEE7__cloneEv', symObjAddr: 0x2B90, symBinAddr: 0x59B0, symSize: 0x40 }
  - { offset: 0xAC856, size: 0x8, addend: 0x0, symName: '__ZNKSt3__110__function6__funcIZ35-[IVSAudioDeviceStatsReceiver init]E3$_0NS_9allocatorIS2_EEFN6twitch5ErrorERKNS5_13ControlSampleEEE7__cloneEPNS0_6__baseISA_EE', symObjAddr: 0x2BD0, symBinAddr: 0x59F0, symSize: 0x1C }
  - { offset: 0xACA33, size: 0x8, addend: 0x0, symName: '__ZNSt3__110__function6__funcIZ35-[IVSAudioDeviceStatsReceiver init]E3$_0NS_9allocatorIS2_EEFN6twitch5ErrorERKNS5_13ControlSampleEEE7destroyEv', symObjAddr: 0x2BEC, symBinAddr: 0x5A0C, symSize: 0x8 }
  - { offset: 0xACB3F, size: 0x8, addend: 0x0, symName: '__ZNSt3__110__function6__funcIZ35-[IVSAudioDeviceStatsReceiver init]E3$_0NS_9allocatorIS2_EEFN6twitch5ErrorERKNS5_13ControlSampleEEE18destroy_deallocateEv', symObjAddr: 0x2BF4, symBinAddr: 0x5A14, symSize: 0x28 }
  - { offset: 0xACD81, size: 0x8, addend: 0x0, symName: '__ZNSt3__110__function6__funcIZ35-[IVSAudioDeviceStatsReceiver init]E3$_0NS_9allocatorIS2_EEFN6twitch5ErrorERKNS5_13ControlSampleEEEclES9_', symObjAddr: 0x2C1C, symBinAddr: 0x5A3C, symSize: 0x50 }
  - { offset: 0xACEBC, size: 0x8, addend: 0x0, symName: __ZNSt3__120__shared_ptr_emplaceIN6twitch10InlineSinkINS1_13ControlSampleEEENS_9allocatorIS4_EEED1Ev, symObjAddr: 0x2C6C, symBinAddr: 0x5A8C, symSize: 0x10 }
  - { offset: 0xACEE0, size: 0x8, addend: 0x0, symName: __ZNSt3__120__shared_ptr_emplaceIN6twitch10InlineSinkINS1_13ControlSampleEEENS_9allocatorIS4_EEED1Ev, symObjAddr: 0x2C6C, symBinAddr: 0x5A8C, symSize: 0x10 }
  - { offset: 0xACF17, size: 0x8, addend: 0x0, symName: __ZNSt3__120__shared_ptr_emplaceIN6twitch10InlineSinkINS1_13ControlSampleEEENS_9allocatorIS4_EEED0Ev, symObjAddr: 0x2C7C, symBinAddr: 0x5A9C, symSize: 0x20 }
  - { offset: 0xACFE6, size: 0x8, addend: 0x0, symName: __ZNSt3__120__shared_ptr_emplaceIN6twitch10InlineSinkINS1_13ControlSampleEEENS_9allocatorIS4_EEE16__on_zero_sharedEv, symObjAddr: 0x2C9C, symBinAddr: 0x5ABC, symSize: 0xC }
  - { offset: 0xAD010, size: 0x8, addend: 0x0, symName: __ZNSt3__120__shared_ptr_emplaceIN6twitch10InlineSinkINS1_13ControlSampleEEENS_9allocatorIS4_EEE16__on_zero_sharedEv, symObjAddr: 0x2C9C, symBinAddr: 0x5ABC, symSize: 0xC }
  - { offset: 0xAD030, size: 0x8, addend: 0x0, symName: __ZNSt3__120__shared_ptr_emplaceIN6twitch10InlineSinkINS1_13ControlSampleEEENS_9allocatorIS4_EEE16__on_zero_sharedEv, symObjAddr: 0x2C9C, symBinAddr: 0x5ABC, symSize: 0xC }
  - { offset: 0xAD050, size: 0x8, addend: 0x0, symName: __ZNSt3__120__shared_ptr_emplaceIN6twitch10InlineSinkINS1_13ControlSampleEEENS_9allocatorIS4_EEE16__on_zero_sharedEv, symObjAddr: 0x2C9C, symBinAddr: 0x5ABC, symSize: 0xC }
  - { offset: 0xAD0D9, size: 0x8, addend: 0x0, symName: __ZNSt3__120__shared_ptr_emplaceIN6twitch10InlineSinkINS1_13ControlSampleEEENS_9allocatorIS4_EEE21__on_zero_shared_weakEv, symObjAddr: 0x2CA8, symBinAddr: 0x5AC8, symSize: 0x4 }
  - { offset: 0xAD10E, size: 0x8, addend: 0x0, symName: __ZNSt3__120__shared_ptr_emplaceIN6twitch10InlineSinkINS1_13ControlSampleEEENS_9allocatorIS4_EEE21__on_zero_shared_weakEv, symObjAddr: 0x2CA8, symBinAddr: 0x5AC8, symSize: 0x4 }
  - { offset: 0xAD133, size: 0x8, addend: 0x0, symName: __ZNSt3__120__shared_ptr_emplaceIN6twitch10InlineSinkINS1_13ControlSampleEEENS_9allocatorIS4_EEE21__on_zero_shared_weakEv, symObjAddr: 0x2CA8, symBinAddr: 0x5AC8, symSize: 0x4 }
  - { offset: 0xAD158, size: 0x8, addend: 0x0, symName: __ZNSt3__120__shared_ptr_emplaceIN6twitch10InlineSinkINS1_13ControlSampleEEENS_9allocatorIS4_EEE21__on_zero_shared_weakEv, symObjAddr: 0x2CA8, symBinAddr: 0x5AC8, symSize: 0x4 }
  - { offset: 0xAD187, size: 0x8, addend: 0x0, symName: __ZNSt3__120__shared_ptr_emplaceIN6twitch10InlineSinkINS1_13ControlSampleEEENS_9allocatorIS4_EEE21__on_zero_shared_weakEv, symObjAddr: 0x2CA8, symBinAddr: 0x5AC8, symSize: 0x4 }
  - { offset: 0xAD1B0, size: 0x8, addend: 0x0, symName: __ZNSt3__120__shared_ptr_emplaceIN6twitch10InlineSinkINS1_13ControlSampleEEENS_9allocatorIS4_EEE21__on_zero_shared_weakEv, symObjAddr: 0x2CA8, symBinAddr: 0x5AC8, symSize: 0x4 }
  - { offset: 0xBE241A, size: 0x8, addend: 0x0, symName: __ZN9resampler22PolyphaseResamplerMonoD1Ev, symObjAddr: 0x155464, symBinAddr: 0x14DD64, symSize: 0x4 }
  - { offset: 0xBE3150, size: 0x8, addend: 0x0, symName: __ZN9resampler22PolyphaseResamplerMonoD1Ev, symObjAddr: 0x155464, symBinAddr: 0x14DD64, symSize: 0x4 }
  - { offset: 0xBE3174, size: 0x8, addend: 0x0, symName: __ZN9resampler22PolyphaseResamplerMonoD1Ev, symObjAddr: 0x155464, symBinAddr: 0x14DD64, symSize: 0x4 }
  - { offset: 0xBE3191, size: 0x8, addend: 0x0, symName: __ZN9resampler22PolyphaseResamplerMonoD1Ev, symObjAddr: 0x155464, symBinAddr: 0x14DD64, symSize: 0x4 }
  - { offset: 0xBE31B0, size: 0x8, addend: 0x0, symName: __ZN9resampler22PolyphaseResamplerMonoD1Ev, symObjAddr: 0x155464, symBinAddr: 0x14DD64, symSize: 0x4 }
  - { offset: 0xBE31D7, size: 0x8, addend: 0x0, symName: __ZN9resampler22PolyphaseResamplerMonoD0Ev, symObjAddr: 0x155468, symBinAddr: 0x14DD68, symSize: 0x14 }
  - { offset: 0xBE328D, size: 0x8, addend: 0x0, symName: __ZN9resampler22PolyphaseResamplerMono10writeFrameEPKf, symObjAddr: 0x15547C, symBinAddr: 0x14DD7C, symSize: 0x38 }
  - { offset: 0xBE331C, size: 0x8, addend: 0x0, symName: __ZN9resampler22PolyphaseResamplerMono9readFrameEPf, symObjAddr: 0x1554B4, symBinAddr: 0x14DDB4, symSize: 0x90 }
  - { offset: 0x5DA8AD, size: 0x8, addend: 0x0, symName: __ZNSt3__120__shared_ptr_emplaceIN6twitch10AudioMixerENS_9allocatorIS2_EEED1Ev, symObjAddr: 0x8A584, symBinAddr: 0x88610, symSize: 0x10 }
  - { offset: 0x5DD115, size: 0x8, addend: 0x0, symName: __ZNSt3__112__destroy_atB8nn180100IN6twitch9PCMSampleELi0EEEvPT_, symObjAddr: 0x8A82C, symBinAddr: 0x88868, symSize: 0x68 }
  - { offset: 0x5DD933, size: 0x8, addend: 0x0, symName: __ZNSt3__112construct_atB8nn180100IN6twitch9PCMSampleEJRKS2_EPS2_EEPT_S7_DpOT0_, symObjAddr: 0x8B790, symBinAddr: 0x896C0, symSize: 0x104 }
  - { offset: 0x5DDC0A, size: 0x8, addend: 0x0, symName: __ZNSt3__119__allocate_at_leastB8nn180100INS_9allocatorIN6twitch9PCMSampleEEEEENS_19__allocation_resultINS_16allocator_traitsIT_E7pointerEEERS7_m, symObjAddr: 0x8B894, symBinAddr: 0x897C4, symSize: 0x48 }
  - { offset: 0x5DED52, size: 0x8, addend: 0x0, symName: __ZN6twitch10AudioMixer4stopEv, symObjAddr: 0x8A654, symBinAddr: 0x886E0, symSize: 0xB4 }
  - { offset: 0x5E1550, size: 0x8, addend: 0x0, symName: __ZNSt3__120__shared_ptr_emplaceIN6twitch10AudioMixerENS_9allocatorIS2_EEED1Ev, symObjAddr: 0x8A584, symBinAddr: 0x88610, symSize: 0x10 }
  - { offset: 0x5E1574, size: 0x8, addend: 0x0, symName: __ZNSt3__120__shared_ptr_emplaceIN6twitch10AudioMixerENS_9allocatorIS2_EEED1Ev, symObjAddr: 0x8A584, symBinAddr: 0x88610, symSize: 0x10 }
  - { offset: 0x5E15AB, size: 0x8, addend: 0x0, symName: __ZNSt3__120__shared_ptr_emplaceIN6twitch10AudioMixerENS_9allocatorIS2_EEED0Ev, symObjAddr: 0x8A594, symBinAddr: 0x88620, symSize: 0x20 }
  - { offset: 0x5E1694, size: 0x8, addend: 0x0, symName: __ZNSt3__120__shared_ptr_emplaceIN6twitch10AudioMixerENS_9allocatorIS2_EEE16__on_zero_sharedEv, symObjAddr: 0x8A5B4, symBinAddr: 0x88640, symSize: 0x8 }
  - { offset: 0x5E16BE, size: 0x8, addend: 0x0, symName: __ZNSt3__120__shared_ptr_emplaceIN6twitch10AudioMixerENS_9allocatorIS2_EEE16__on_zero_sharedEv, symObjAddr: 0x8A5B4, symBinAddr: 0x88640, symSize: 0x8 }
  - { offset: 0x5E16DE, size: 0x8, addend: 0x0, symName: __ZNSt3__120__shared_ptr_emplaceIN6twitch10AudioMixerENS_9allocatorIS2_EEE16__on_zero_sharedEv, symObjAddr: 0x8A5B4, symBinAddr: 0x88640, symSize: 0x8 }
  - { offset: 0x5E1765, size: 0x8, addend: 0x0, symName: __ZN6twitch10AudioMixerD2Ev, symObjAddr: 0x8A5C0, symBinAddr: 0x8864C, symSize: 0x94 }
  - { offset: 0x5E1B54, size: 0x8, addend: 0x0, symName: __ZNSt3__120__shared_ptr_emplaceIN6twitch10AudioMixerENS_9allocatorIS2_EEE21__on_zero_shared_weakEv, symObjAddr: 0x8A5BC, symBinAddr: 0x88648, symSize: 0x4 }
  - { offset: 0x5E1B89, size: 0x8, addend: 0x0, symName: __ZNSt3__120__shared_ptr_emplaceIN6twitch10AudioMixerENS_9allocatorIS2_EEE21__on_zero_shared_weakEv, symObjAddr: 0x8A5BC, symBinAddr: 0x88648, symSize: 0x4 }
  - { offset: 0x5E1BAE, size: 0x8, addend: 0x0, symName: __ZNSt3__120__shared_ptr_emplaceIN6twitch10AudioMixerENS_9allocatorIS2_EEE21__on_zero_shared_weakEv, symObjAddr: 0x8A5BC, symBinAddr: 0x88648, symSize: 0x4 }
  - { offset: 0x5E1BD3, size: 0x8, addend: 0x0, symName: __ZNSt3__120__shared_ptr_emplaceIN6twitch10AudioMixerENS_9allocatorIS2_EEE21__on_zero_shared_weakEv, symObjAddr: 0x8A5BC, symBinAddr: 0x88648, symSize: 0x4 }
  - { offset: 0x5E1C02, size: 0x8, addend: 0x0, symName: __ZNSt3__120__shared_ptr_emplaceIN6twitch10AudioMixerENS_9allocatorIS2_EEE21__on_zero_shared_weakEv, symObjAddr: 0x8A5BC, symBinAddr: 0x88648, symSize: 0x4 }
  - { offset: 0x5E1C2B, size: 0x8, addend: 0x0, symName: __ZNSt3__120__shared_ptr_emplaceIN6twitch10AudioMixerENS_9allocatorIS2_EEE21__on_zero_shared_weakEv, symObjAddr: 0x8A5BC, symBinAddr: 0x88648, symSize: 0x4 }
  - { offset: 0x5E1D60, size: 0x8, addend: 0x0, symName: __ZNSt3__16vectorIN6twitch9PCMSampleENS_9allocatorIS2_EEE16__destroy_vectorclB8nn180100Ev, symObjAddr: 0x8A708, symBinAddr: 0x88794, symSize: 0x70 }
  - { offset: 0x5E1EA5, size: 0x8, addend: 0x0, symName: __ZNSt3__112__hash_tableINS_17__hash_value_typeINS_12basic_stringIcNS_11char_traitsIcEENS_9allocatorIcEEEEN6twitch9MediaTimeEEENS_22__unordered_map_hasherIS7_SA_NS_4hashIS7_EENS_8equal_toIS7_EELb1EEENS_21__unordered_map_equalIS7_SA_SF_SD_Lb1EEENS5_ISA_EEED2Ev, symObjAddr: 0x8A778, symBinAddr: 0x88804, symSize: 0x64 }
  - { offset: 0x5E2959, size: 0x8, addend: 0x0, symName: __ZNSt3__110__function6__funcIZN6twitch10AudioMixer4stopEvEUlvE_NS_9allocatorIS4_EEFvvEED1Ev, symObjAddr: 0x8A894, symBinAddr: 0x888D0, symSize: 0x4 }
  - { offset: 0x5E2984, size: 0x8, addend: 0x0, symName: __ZNSt3__110__function6__funcIZN6twitch10AudioMixer4stopEvEUlvE_NS_9allocatorIS4_EEFvvEED0Ev, symObjAddr: 0x8A898, symBinAddr: 0x888D4, symSize: 0x4 }
  - { offset: 0x5E2B98, size: 0x8, addend: 0x0, symName: __ZNKSt3__110__function6__funcIZN6twitch10AudioMixer4stopEvEUlvE_NS_9allocatorIS4_EEFvvEE7__cloneEv, symObjAddr: 0x8A89C, symBinAddr: 0x888D8, symSize: 0x34 }
  - { offset: 0x5E2EB3, size: 0x8, addend: 0x0, symName: __ZNKSt3__110__function6__funcIZN6twitch10AudioMixer4stopEvEUlvE_NS_9allocatorIS4_EEFvvEE7__cloneEPNS0_6__baseIS7_EE, symObjAddr: 0x8A8D0, symBinAddr: 0x8890C, symSize: 0x14 }
  - { offset: 0x5E2EEC, size: 0x8, addend: 0x0, symName: __ZNKSt3__110__function6__funcIZN6twitch10AudioMixer4stopEvEUlvE_NS_9allocatorIS4_EEFvvEE7__cloneEPNS0_6__baseIS7_EE, symObjAddr: 0x8A8D0, symBinAddr: 0x8890C, symSize: 0x14 }
  - { offset: 0x5E2F1E, size: 0x8, addend: 0x0, symName: __ZNKSt3__110__function6__funcIZN6twitch10AudioMixer4stopEvEUlvE_NS_9allocatorIS4_EEFvvEE7__cloneEPNS0_6__baseIS7_EE, symObjAddr: 0x8A8D0, symBinAddr: 0x8890C, symSize: 0x14 }
  - { offset: 0x5E2F50, size: 0x8, addend: 0x0, symName: __ZNKSt3__110__function6__funcIZN6twitch10AudioMixer4stopEvEUlvE_NS_9allocatorIS4_EEFvvEE7__cloneEPNS0_6__baseIS7_EE, symObjAddr: 0x8A8D0, symBinAddr: 0x8890C, symSize: 0x14 }
  - { offset: 0x5E2F66, size: 0x8, addend: 0x0, symName: __ZNKSt3__110__function6__funcIZN6twitch10AudioMixer4stopEvEUlvE_NS_9allocatorIS4_EEFvvEE7__cloneEPNS0_6__baseIS7_EE, symObjAddr: 0x8A8D0, symBinAddr: 0x8890C, symSize: 0x14 }
  - { offset: 0x5E2F7B, size: 0x8, addend: 0x0, symName: __ZNKSt3__110__function6__funcIZN6twitch10AudioMixer4stopEvEUlvE_NS_9allocatorIS4_EEFvvEE7__cloneEPNS0_6__baseIS7_EE, symObjAddr: 0x8A8D0, symBinAddr: 0x8890C, symSize: 0x14 }
  - { offset: 0x5E2F90, size: 0x8, addend: 0x0, symName: __ZNKSt3__110__function6__funcIZN6twitch10AudioMixer4stopEvEUlvE_NS_9allocatorIS4_EEFvvEE7__cloneEPNS0_6__baseIS7_EE, symObjAddr: 0x8A8D0, symBinAddr: 0x8890C, symSize: 0x14 }
  - { offset: 0x5E2FA5, size: 0x8, addend: 0x0, symName: __ZNKSt3__110__function6__funcIZN6twitch10AudioMixer4stopEvEUlvE_NS_9allocatorIS4_EEFvvEE7__cloneEPNS0_6__baseIS7_EE, symObjAddr: 0x8A8D0, symBinAddr: 0x8890C, symSize: 0x14 }
  - { offset: 0x5E2FBD, size: 0x8, addend: 0x0, symName: __ZNSt3__110__function6__funcIZN6twitch10AudioMixer4stopEvEUlvE_NS_9allocatorIS4_EEFvvEE7destroyEv, symObjAddr: 0x8A8E4, symBinAddr: 0x88920, symSize: 0x4 }
  - { offset: 0x5E3010, size: 0x8, addend: 0x0, symName: __ZNSt3__110__function6__funcIZN6twitch10AudioMixer4stopEvEUlvE_NS_9allocatorIS4_EEFvvEE18destroy_deallocateEv, symObjAddr: 0x8A8E8, symBinAddr: 0x88924, symSize: 0x4 }
  - { offset: 0x5E3047, size: 0x8, addend: 0x0, symName: __ZNSt3__110__function6__funcIZN6twitch10AudioMixer4stopEvEUlvE_NS_9allocatorIS4_EEFvvEE18destroy_deallocateEv, symObjAddr: 0x8A8E8, symBinAddr: 0x88924, symSize: 0x4 }
  - { offset: 0x5E306C, size: 0x8, addend: 0x0, symName: __ZNSt3__110__function6__funcIZN6twitch10AudioMixer4stopEvEUlvE_NS_9allocatorIS4_EEFvvEE18destroy_deallocateEv, symObjAddr: 0x8A8E8, symBinAddr: 0x88924, symSize: 0x4 }
  - { offset: 0x5E309B, size: 0x8, addend: 0x0, symName: __ZNSt3__110__function6__funcIZN6twitch10AudioMixer4stopEvEUlvE_NS_9allocatorIS4_EEFvvEE18destroy_deallocateEv, symObjAddr: 0x8A8E8, symBinAddr: 0x88924, symSize: 0x4 }
  - { offset: 0x5E30C4, size: 0x8, addend: 0x0, symName: __ZNSt3__110__function6__funcIZN6twitch10AudioMixer4stopEvEUlvE_NS_9allocatorIS4_EEFvvEE18destroy_deallocateEv, symObjAddr: 0x8A8E8, symBinAddr: 0x88924, symSize: 0x4 }
  - { offset: 0x5E319C, size: 0x8, addend: 0x0, symName: __ZNSt3__110__function6__funcIZN6twitch10AudioMixer4stopEvEUlvE_NS_9allocatorIS4_EEFvvEEclEv, symObjAddr: 0x8A8EC, symBinAddr: 0x88928, symSize: 0x10 }
  - { offset: 0x5E32C7, size: 0x8, addend: 0x0, symName: __ZN6twitch7ISenderINS_11ErrorSampleENS_5ErrorEED1Ev, symObjAddr: 0x8A8FC, symBinAddr: 0x88938, symSize: 0x4 }
  - { offset: 0x5E32EE, size: 0x8, addend: 0x0, symName: __ZN6twitch7ISenderINS_11ErrorSampleENS_5ErrorEED0Ev, symObjAddr: 0x8A900, symBinAddr: 0x8893C, symSize: 0x4 }
  - { offset: 0x5E33DE, size: 0x8, addend: 0x0, symName: __ZN6twitch6SenderINS_11ErrorSampleENS_5ErrorEE9setOutputERKNSt3__110shared_ptrINS_8ReceiverIS1_S2_EEEE, symObjAddr: 0x8A904, symBinAddr: 0x88940, symSize: 0x2C }
  - { offset: 0x5E3416, size: 0x8, addend: 0x0, symName: __ZN6twitch6SenderINS_11ErrorSampleENS_5ErrorEE9setOutputERKNSt3__110shared_ptrINS_8ReceiverIS1_S2_EEEE, symObjAddr: 0x8A904, symBinAddr: 0x88940, symSize: 0x2C }
  - { offset: 0x5E343D, size: 0x8, addend: 0x0, symName: __ZN6twitch6SenderINS_11ErrorSampleENS_5ErrorEE9setOutputERKNSt3__110shared_ptrINS_8ReceiverIS1_S2_EEEE, symObjAddr: 0x8A904, symBinAddr: 0x88940, symSize: 0x2C }
  - { offset: 0x5E345B, size: 0x8, addend: 0x0, symName: __ZN6twitch6SenderINS_11ErrorSampleENS_5ErrorEE9setOutputERKNSt3__110shared_ptrINS_8ReceiverIS1_S2_EEEE, symObjAddr: 0x8A904, symBinAddr: 0x88940, symSize: 0x2C }
  - { offset: 0x5E355B, size: 0x8, addend: 0x0, symName: __ZN6twitch6SenderINS_11ErrorSampleENS_5ErrorEE11unsetOutputERKNSt3__110shared_ptrINS_8ReceiverIS1_S2_EEEE, symObjAddr: 0x8A930, symBinAddr: 0x8896C, symSize: 0x18 }
  - { offset: 0x5E3642, size: 0x8, addend: 0x0, symName: __ZN6twitch6SenderINS_11ErrorSampleENS_5ErrorEED1Ev, symObjAddr: 0x8A948, symBinAddr: 0x88984, symSize: 0xC }
  - { offset: 0x5E368B, size: 0x8, addend: 0x0, symName: __ZN6twitch6SenderINS_11ErrorSampleENS_5ErrorEED0Ev, symObjAddr: 0x8A954, symBinAddr: 0x88990, symSize: 0x1C }
  - { offset: 0x5E39DA, size: 0x8, addend: 0x0, symName: __ZN6twitch10AudioMixer7receiveERKNS_9PCMSampleE, symObjAddr: 0x8A970, symBinAddr: 0x889AC, symSize: 0x4C8 }
  - { offset: 0x5E42AE, size: 0x8, addend: 0x0, symName: __ZNSt3__112__hash_tableINS_17__hash_value_typeINS_12basic_stringIcNS_11char_traitsIcEENS_9allocatorIcEEEEN6twitch9MediaTimeEEENS_22__unordered_map_hasherIS7_SA_NS_4hashIS7_EENS_8equal_toIS7_EELb1EEENS_21__unordered_map_equalIS7_SA_SF_SD_Lb1EEENS5_ISA_EEE14__erase_uniqueIS7_EEmRKT_, symObjAddr: 0x8AEF4, symBinAddr: 0x88F30, symSize: 0x16C }
  - { offset: 0x5E4992, size: 0x8, addend: 0x0, symName: __ZNSt3__112__hash_tableINS_17__hash_value_typeINS_12basic_stringIcNS_11char_traitsIcEENS_9allocatorIcEEEEN6twitch9MediaTimeEEENS_22__unordered_map_hasherIS7_SA_NS_4hashIS7_EENS_8equal_toIS7_EELb1EEENS_21__unordered_map_equalIS7_SA_SF_SD_Lb1EEENS5_ISA_EEE25__emplace_unique_key_argsIS7_JRKNS_21piecewise_construct_tENS_5tupleIJRKS7_EEENSP_IJEEEEEENS_4pairINS_15__hash_iteratorIPNS_11__hash_nodeISA_PvEEEEbEERKT_DpOT0_, symObjAddr: 0x8B16C, symBinAddr: 0x8909C, symSize: 0x42C }
  - { offset: 0x5E56A1, size: 0x8, addend: 0x0, symName: __ZNSt3__16vectorIN6twitch9PCMSampleENS_9allocatorIS2_EEE9push_backB8nn180100ERKS2_, symObjAddr: 0x8B598, symBinAddr: 0x894C8, symSize: 0x1F8 }
  - { offset: 0x5E56CA, size: 0x8, addend: 0x0, symName: __ZNSt3__16vectorIN6twitch9PCMSampleENS_9allocatorIS2_EEE9push_backB8nn180100ERKS2_, symObjAddr: 0x8B598, symBinAddr: 0x894C8, symSize: 0x1F8 }
  - { offset: 0x5E5D3B, size: 0x8, addend: 0x0, symName: __ZNSt3__112construct_atB8nn180100IN6twitch9PCMSampleEJRKS2_EPS2_EEPT_S7_DpOT0_, symObjAddr: 0x8B790, symBinAddr: 0x896C0, symSize: 0x104 }
  - { offset: 0x5E5D4C, size: 0x8, addend: 0x0, symName: __ZN6twitch10AudioMixerD1Ev, symObjAddr: 0x8AE38, symBinAddr: 0x88E74, symSize: 0x4 }
  - { offset: 0x5E5D70, size: 0x8, addend: 0x0, symName: __ZN6twitch10AudioMixerD1Ev, symObjAddr: 0x8AE38, symBinAddr: 0x88E74, symSize: 0x4 }
  - { offset: 0x5E5D7B, size: 0x8, addend: 0x0, symName: __ZN6twitch10AudioMixerD0Ev, symObjAddr: 0x8AE3C, symBinAddr: 0x88E78, symSize: 0x14 }
  - { offset: 0x5E5DC8, size: 0x8, addend: 0x0, symName: __ZNK6twitch10AudioMixer6getTagEv, symObjAddr: 0x8AE50, symBinAddr: 0x88E8C, symSize: 0x2C }
  - { offset: 0x5E5E1D, size: 0x8, addend: 0x0, symName: __ZNK6twitch10AudioMixer6getTagEv, symObjAddr: 0x8AE50, symBinAddr: 0x88E8C, symSize: 0x2C }
  - { offset: 0x5E5E74, size: 0x8, addend: 0x0, symName: __ZTv0_n24_NK6twitch10AudioMixer6getTagEv, symObjAddr: 0x8AE7C, symBinAddr: 0x88EB8, symSize: 0x38 }
  - { offset: 0x5E5F0D, size: 0x8, addend: 0x0, symName: __ZThn8_N6twitch10AudioMixerD1Ev, symObjAddr: 0x8AEB4, symBinAddr: 0x88EF0, symSize: 0x8 }
  - { offset: 0x5E5F69, size: 0x8, addend: 0x0, symName: __ZThn8_N6twitch10AudioMixerD0Ev, symObjAddr: 0x8AEBC, symBinAddr: 0x88EF8, symSize: 0x18 }
  - { offset: 0x5E5FC9, size: 0x8, addend: 0x0, symName: __ZThn32_N6twitch10AudioMixerD1Ev, symObjAddr: 0x8AED4, symBinAddr: 0x88F10, symSize: 0x8 }
  - { offset: 0x5E600B, size: 0x8, addend: 0x0, symName: __ZThn32_N6twitch10AudioMixerD0Ev, symObjAddr: 0x8AEDC, symBinAddr: 0x88F18, symSize: 0x18 }
  - { offset: 0xF2FE2, size: 0x8, addend: 0x0, symName: '-[IVSBackgroundImageSourceImpl initWithDescriptor:renderContext:targetFramerate:onComplete:]', symObjAddr: 0xF38C, symBinAddr: 0x114EC, symSize: 0xF4 }
  - { offset: 0xF68E6, size: 0x8, addend: 0x0, symName: '-[IVSBackgroundImageSourceImpl initWithDescriptor:renderContext:targetFramerate:onComplete:]', symObjAddr: 0xF38C, symBinAddr: 0x114EC, symSize: 0xF4 }
  - { offset: 0xF6970, size: 0x8, addend: 0x0, symName: '-[IVSBackgroundImageSourceImpl sourceRemoved]', symObjAddr: 0xF480, symBinAddr: 0x115E0, symSize: 0x4C }
  - { offset: 0xF6D20, size: 0x8, addend: 0x0, symName: '-[IVSBackgroundImageSourceImpl finish]', symObjAddr: 0xF4CC, symBinAddr: 0x1162C, symSize: 0x1C8 }
  - { offset: 0xF785F, size: 0x8, addend: 0x0, symName: __ZN6twitch13PictureSampleC2Ev, symObjAddr: 0xF9AC, symBinAddr: 0x11B0C, symSize: 0xD8 }
  - { offset: 0xF7FC2, size: 0x8, addend: 0x0, symName: __ZNSt3__16vectorINS_10shared_ptrIN6twitch17ImageFrameMessageEEENS_9allocatorIS4_EEE16__destroy_vectorclB8nn180100Ev, symObjAddr: 0xFA84, symBinAddr: 0x11BE4, symSize: 0x70 }
  - { offset: 0xF814F, size: 0x8, addend: 0x0, symName: '-[IVSBackgroundImageSourceImpl addPixelBuffer:]', symObjAddr: 0xF694, symBinAddr: 0x117F4, symSize: 0xEC }
  - { offset: 0xF8263, size: 0x8, addend: 0x0, symName: '-[IVSBackgroundImageSourceImpl invokeOnCompleteOnce:]', symObjAddr: 0xF780, symBinAddr: 0x118E0, symSize: 0xA4 }
  - { offset: 0xF82EC, size: 0x8, addend: 0x0, symName: '-[IVSBackgroundImageSourceImpl onComplete]', symObjAddr: 0xF824, symBinAddr: 0x11984, symSize: 0x10 }
  - { offset: 0xF8324, size: 0x8, addend: 0x0, symName: '-[IVSBackgroundImageSourceImpl onCompleteOnce]', symObjAddr: 0xF834, symBinAddr: 0x11994, symSize: 0x10 }
  - { offset: 0xF835C, size: 0x8, addend: 0x0, symName: '-[IVSBackgroundImageSourceImpl lastPTS]', symObjAddr: 0xF844, symBinAddr: 0x119A4, symSize: 0x20 }
  - { offset: 0xF8392, size: 0x8, addend: 0x0, symName: '-[IVSBackgroundImageSourceImpl setLastPTS:]', symObjAddr: 0xF864, symBinAddr: 0x119C4, symSize: 0x20 }
  - { offset: 0xF83D1, size: 0x8, addend: 0x0, symName: '-[IVSBackgroundImageSourceImpl frameDuration]', symObjAddr: 0xF884, symBinAddr: 0x119E4, symSize: 0x20 }
  - { offset: 0xF8407, size: 0x8, addend: 0x0, symName: '-[IVSBackgroundImageSourceImpl setFrameDuration:]', symObjAddr: 0xF8A4, symBinAddr: 0x11A04, symSize: 0x20 }
  - { offset: 0xF8446, size: 0x8, addend: 0x0, symName: '-[IVSBackgroundImageSourceImpl .cxx_destruct]', symObjAddr: 0xF8C4, symBinAddr: 0x11A24, symSize: 0x14 }
  - { offset: 0xF847A, size: 0x8, addend: 0x0, symName: '___53-[IVSBackgroundImageSourceImpl invokeOnCompleteOnce:]_block_invoke', symObjAddr: 0xF8D8, symBinAddr: 0x11A38, symSize: 0x6C }
  - { offset: 0xF84DB, size: 0x8, addend: 0x0, symName: ___copy_helper_block_a8_32s40s, symObjAddr: 0xF944, symBinAddr: 0x11AA4, symSize: 0x28 }
  - { offset: 0xF84FF, size: 0x8, addend: 0x0, symName: '___53-[IVSBackgroundImageSourceImpl invokeOnCompleteOnce:]_block_invoke_2', symObjAddr: 0xF96C, symBinAddr: 0x11ACC, symSize: 0x40 }
  - { offset: 0xF8C96, size: 0x8, addend: 0x0, symName: __ZNK6twitch13PictureSample13getTrackingIDEv, symObjAddr: 0xFB44, symBinAddr: 0x11C54, symSize: 0x2C }
  - { offset: 0xF8CF0, size: 0x8, addend: 0x0, symName: __ZNK6twitch13PictureSample13getTrackingIDEv, symObjAddr: 0xFB44, symBinAddr: 0x11C54, symSize: 0x2C }
  - { offset: 0x9DB382, size: 0x8, addend: 0x0, symName: _ASN1_item_ex_i2d, symObjAddr: 0xEFF08, symBinAddr: 0xEA1B0, symSize: 0x42C }
  - { offset: 0x9DBE1E, size: 0x8, addend: 0x0, symName: _ASN1_item_ex_i2d, symObjAddr: 0xEFF08, symBinAddr: 0xEA1B0, symSize: 0x42C }
  - { offset: 0x9DC1D6, size: 0x8, addend: 0x0, symName: _asn1_template_ex_i2d, symObjAddr: 0xF0334, symBinAddr: 0xEA5DC, symSize: 0x494 }
  - { offset: 0x9DC8DC, size: 0x8, addend: 0x0, symName: _asn1_i2d_ex_primitive, symObjAddr: 0xF07C8, symBinAddr: 0xEAA70, symSize: 0x140 }
  - { offset: 0x9DCB6D, size: 0x8, addend: 0x0, symName: _asn1_ex_i2c, symObjAddr: 0xF0908, symBinAddr: 0xEABB0, symSize: 0x3D8 }
  - { offset: 0x9DCD87, size: 0x8, addend: 0x0, symName: _der_cmp, symObjAddr: 0xF0CE0, symBinAddr: 0xEAF88, symSize: 0x44 }
  - { offset: 0x9DCEAA, size: 0x8, addend: 0x0, symName: _ASN1_item_i2d, symObjAddr: 0xF0D24, symBinAddr: 0xEAFCC, symSize: 0xD8 }
  - { offset: 0xB2DB38, size: 0x8, addend: 0x0, symName: __ZN6twitch9MediaType10Type_AudioE, symObjAddr: 0x19D9B0, symBinAddr: 0x1B4278, symSize: 0x0 }
  - { offset: 0xB2DB4C, size: 0x8, addend: 0x0, symName: __ZN6twitch9MediaType10Type_VideoE, symObjAddr: 0x19D998, symBinAddr: 0x1B4260, symSize: 0x0 }
  - { offset: 0xB2DB60, size: 0x8, addend: 0x0, symName: __ZN6twitch9MediaType9Type_TextE, symObjAddr: 0x19D9C8, symBinAddr: 0x1B4290, symSize: 0x0 }
  - { offset: 0xB2DB74, size: 0x8, addend: 0x0, symName: __ZN6twitch9MediaType23Application_OctetStreamE, symObjAddr: 0x34F2978, symBinAddr: 0x2016D8, symSize: 0x0 }
  - { offset: 0xB2DB88, size: 0x8, addend: 0x0, symName: __ZN6twitch9MediaType26Application_Apple_MPEG_URLE, symObjAddr: 0x34F29D8, symBinAddr: 0x201738, symSize: 0x0 }
  - { offset: 0xB2DB9C, size: 0x8, addend: 0x0, symName: __ZN6twitch9MediaType20Application_MPEG_URLE, symObjAddr: 0x34F2A38, symBinAddr: 0x201798, symSize: 0x0 }
  - { offset: 0xB2DBB0, size: 0x8, addend: 0x0, symName: __ZN6twitch9MediaType16Application_JsonE, symObjAddr: 0x34F2A98, symBinAddr: 0x2017F8, symSize: 0x0 }
  - { offset: 0xB2DBC4, size: 0x8, addend: 0x0, symName: __ZN6twitch9MediaType23Application_Twitch_ClipE, symObjAddr: 0x34F2AF8, symBinAddr: 0x201858, symSize: 0x0 }
  - { offset: 0xB2DBD8, size: 0x8, addend: 0x0, symName: __ZN6twitch9MediaType18Binary_OctetStreamE, symObjAddr: 0x34F2B58, symBinAddr: 0x2018B8, symSize: 0x0 }
  - { offset: 0xB2DBEC, size: 0x8, addend: 0x0, symName: __ZN6twitch9MediaType9Video_AV1E, symObjAddr: 0x34F2BB8, symBinAddr: 0x201918, symSize: 0x0 }
  - { offset: 0xB2DC00, size: 0x8, addend: 0x0, symName: __ZN6twitch9MediaType9Video_AVCE, symObjAddr: 0x34F2C18, symBinAddr: 0x201978, symSize: 0x0 }
  - { offset: 0xB2DC14, size: 0x8, addend: 0x0, symName: __ZN6twitch9MediaType10Video_HEVCE, symObjAddr: 0x34F31E0, symBinAddr: 0x201F40, symSize: 0x0 }
  - { offset: 0xB2DC28, size: 0x8, addend: 0x0, symName: __ZN6twitch9MediaType9Audio_AACE, symObjAddr: 0x34F2C78, symBinAddr: 0x2019D8, symSize: 0x0 }
  - { offset: 0xB2DC3C, size: 0x8, addend: 0x0, symName: __ZN6twitch9MediaType9Audio_MP4E, symObjAddr: 0x34F2CD8, symBinAddr: 0x201A38, symSize: 0x0 }
  - { offset: 0xB2DC50, size: 0x8, addend: 0x0, symName: __ZN6twitch9MediaType10Audio_OpusE, symObjAddr: 0x34F2D38, symBinAddr: 0x201A98, symSize: 0x0 }
  - { offset: 0xB2DC64, size: 0x8, addend: 0x0, symName: __ZN6twitch9MediaType9Audio_PCME, symObjAddr: 0x34F2D98, symBinAddr: 0x201AF8, symSize: 0x0 }
  - { offset: 0xB2DC78, size: 0x8, addend: 0x0, symName: __ZN6twitch9MediaType9Video_MP4E, symObjAddr: 0x34F2DF8, symBinAddr: 0x201B58, symSize: 0x0 }
  - { offset: 0xB2DC8C, size: 0x8, addend: 0x0, symName: __ZN6twitch9MediaType10Video_MP2TE, symObjAddr: 0x34F2E58, symBinAddr: 0x201BB8, symSize: 0x0 }
  - { offset: 0xB2DCA0, size: 0x8, addend: 0x0, symName: __ZN6twitch9MediaType10Video_NV12E, symObjAddr: 0x34F2EB8, symBinAddr: 0x201C18, symSize: 0x0 }
  - { offset: 0xB2DCB4, size: 0x8, addend: 0x0, symName: __ZN6twitch9MediaType10Video_NV21E, symObjAddr: 0x34F2F18, symBinAddr: 0x201C78, symSize: 0x0 }
  - { offset: 0xB2DCC8, size: 0x8, addend: 0x0, symName: __ZN6twitch9MediaType15Video_QuicktimeE, symObjAddr: 0x34F2F78, symBinAddr: 0x201CD8, symSize: 0x0 }
  - { offset: 0xB2DCDC, size: 0x8, addend: 0x0, symName: __ZN6twitch9MediaType9Video_VP9E, symObjAddr: 0x34F2FD8, symBinAddr: 0x201D38, symSize: 0x0 }
  - { offset: 0xB2DCF0, size: 0x8, addend: 0x0, symName: __ZN6twitch9MediaType8Text_VTTE, symObjAddr: 0x34F3038, symBinAddr: 0x201D98, symSize: 0x0 }
  - { offset: 0xB2DD04, size: 0x8, addend: 0x0, symName: __ZN6twitch9MediaType8Text_ID3E, symObjAddr: 0x34F3098, symBinAddr: 0x201DF8, symSize: 0x0 }
  - { offset: 0xB2DD18, size: 0x8, addend: 0x0, symName: __ZN6twitch9MediaType9Text_JsonE, symObjAddr: 0x34F30F8, symBinAddr: 0x201E58, symSize: 0x0 }
  - { offset: 0xB2DD2C, size: 0x8, addend: 0x0, symName: __ZN6twitch9MediaType10Text_PlainE, symObjAddr: 0x34F3158, symBinAddr: 0x201EB8, symSize: 0x0 }
  - { offset: 0xB2DD46, size: 0x8, addend: 0x0, symName: __ZN6twitchL28IVSPLAYER_SUPPORTED_DECODERSE, symObjAddr: 0x34F31B8, symBinAddr: 0x201F18, symSize: 0x0 }
  - { offset: 0xB2E1C7, size: 0x8, addend: 0x0, symName: __ZNSt3__112__destroy_atB8nn180100IN6twitch9MediaTypeELi0EEEvPT_, symObjAddr: 0x142370, symBinAddr: 0x13B4F0, symSize: 0x64 }
  - { offset: 0xB2F5EA, size: 0x8, addend: 0x0, symName: __ZN6twitch9MediaTypeC2ERKNSt3__112basic_stringIcNS1_11char_traitsIcEENS1_9allocatorIcEEEES9_S9_, symObjAddr: 0x1420B8, symBinAddr: 0x13B238, symSize: 0x1FC }
  - { offset: 0xB3021F, size: 0x8, addend: 0x0, symName: __ZNK6twitch9MediaType30HashMediaTypesForCodecEqualityclERKS0_, symObjAddr: 0x1423D4, symBinAddr: 0x13B554, symSize: 0x74 }
  - { offset: 0xB305D5, size: 0x8, addend: 0x0, symName: __ZN6twitch9MediaTypeD1Ev, symObjAddr: 0x1422B4, symBinAddr: 0x13B434, symSize: 0x60 }
  - { offset: 0xB30C77, size: 0x8, addend: 0x0, symName: __ZNSt3__113unordered_setIN6twitch9MediaTypeENS2_30HashMediaTypesForCodecEqualityENS2_41DirectlyCompareMediaTypesForCodecEqualityENS_9allocatorIS2_EEED1B8nn180100Ev, symObjAddr: 0x142314, symBinAddr: 0x13B494, symSize: 0x5C }
  - { offset: 0x34686E, size: 0x8, addend: 0x0, symName: '-[IVSMixedImageDeviceSource initWithConfiguration:device:]', symObjAddr: 0x48824, symBinAddr: 0x49704, symSize: 0x104 }
  - { offset: 0x347283, size: 0x8, addend: 0x0, symName: '-[IVSMixedImageDeviceSource initWithConfiguration:device:]', symObjAddr: 0x48824, symBinAddr: 0x49704, symSize: 0x104 }
  - { offset: 0x3472DA, size: 0x8, addend: 0x0, symName: '-[IVSMixedImageDeviceSource setDevice:]', symObjAddr: 0x48928, symBinAddr: 0x49808, symSize: 0x1E8 }
  - { offset: 0x34734B, size: 0x8, addend: 0x0, symName: '-[IVSMixedImageDeviceSource transitionToConfiguration:duration:onComplete:]', symObjAddr: 0x48B10, symBinAddr: 0x499F0, symSize: 0x158 }
  - { offset: 0x3473C5, size: 0x8, addend: 0x0, symName: '-[IVSMixedImageDeviceSource mixerBound:]', symObjAddr: 0x48C68, symBinAddr: 0x49B48, symSize: 0x50 }
  - { offset: 0x347408, size: 0x8, addend: 0x0, symName: '-[IVSMixedImageDeviceSource mixerUnbound:]', symObjAddr: 0x48CB8, symBinAddr: 0x49B98, symSize: 0x50 }
  - { offset: 0x34744B, size: 0x8, addend: 0x0, symName: '-[IVSMixedImageDeviceSource device]', symObjAddr: 0x48D08, symBinAddr: 0x49BE8, symSize: 0x8 }
  - { offset: 0x347482, size: 0x8, addend: 0x0, symName: '-[IVSMixedImageDeviceSource configuration]', symObjAddr: 0x48D10, symBinAddr: 0x49BF0, symSize: 0x8 }
  - { offset: 0x3474B9, size: 0x8, addend: 0x0, symName: '-[IVSMixedImageDeviceSource boundMixers]', symObjAddr: 0x48D18, symBinAddr: 0x49BF8, symSize: 0x8 }
  - { offset: 0x3474F0, size: 0x8, addend: 0x0, symName: '-[IVSMixedImageDeviceSource setBoundMixers:]', symObjAddr: 0x48D20, symBinAddr: 0x49C00, symSize: 0xC }
  - { offset: 0x347531, size: 0x8, addend: 0x0, symName: '-[IVSMixedImageDeviceSource uuid]', symObjAddr: 0x48D2C, symBinAddr: 0x49C0C, symSize: 0x8 }
  - { offset: 0x347568, size: 0x8, addend: 0x0, symName: '-[IVSMixedImageDeviceSource setUuid:]', symObjAddr: 0x48D34, symBinAddr: 0x49C14, symSize: 0xC }
  - { offset: 0x3475A9, size: 0x8, addend: 0x0, symName: '-[IVSMixedImageDeviceSource .cxx_destruct]', symObjAddr: 0x48D40, symBinAddr: 0x49C20, symSize: 0x48 }
  - { offset: 0xCA159A, size: 0x8, addend: 0x0, symName: __ZN6twitch4rtmp9RtmpState23handleIncomingChunkSizeENS0_11ChunkHeaderEPKh, symObjAddr: 0x16B200, symBinAddr: 0x162C18, symSize: 0x1C }
  - { offset: 0xCA16E8, size: 0x8, addend: 0x0, symName: __ZN6twitch4rtmp9RtmpState21handleIncomingControlENS0_11ChunkHeaderEPKh, symObjAddr: 0x16B23C, symBinAddr: 0x162C54, symSize: 0x2A0 }
  - { offset: 0xCA39A2, size: 0x8, addend: 0x0, symName: __ZN6twitch4rtmp9RtmpState23handleIncomingChunkSizeENS0_11ChunkHeaderEPKh, symObjAddr: 0x16B200, symBinAddr: 0x162C18, symSize: 0x1C }
  - { offset: 0xCA3A37, size: 0x8, addend: 0x0, symName: __ZN6twitch4rtmp9RtmpState22handleIncomingAbortMsgENS0_11ChunkHeaderEPKh, symObjAddr: 0x16B21C, symBinAddr: 0x162C34, symSize: 0x10 }
  - { offset: 0xCA3A6F, size: 0x8, addend: 0x0, symName: __ZN6twitch4rtmp9RtmpState22handleIncomingAbortMsgENS0_11ChunkHeaderEPKh, symObjAddr: 0x16B21C, symBinAddr: 0x162C34, symSize: 0x10 }
  - { offset: 0xCA3A9A, size: 0x8, addend: 0x0, symName: __ZN6twitch4rtmp9RtmpState23handleIncomingBytesReadENS0_11ChunkHeaderEPKh, symObjAddr: 0x16B22C, symBinAddr: 0x162C44, symSize: 0x10 }
  - { offset: 0xCA3AD2, size: 0x8, addend: 0x0, symName: __ZN6twitch4rtmp9RtmpState23handleIncomingBytesReadENS0_11ChunkHeaderEPKh, symObjAddr: 0x16B22C, symBinAddr: 0x162C44, symSize: 0x10 }
  - { offset: 0xCA3D7C, size: 0x8, addend: 0x0, symName: __ZN6twitch4rtmp9RtmpState24handleIncomingWinacksizeENS0_11ChunkHeaderEPKh, symObjAddr: 0x16B4DC, symBinAddr: 0x162EF4, symSize: 0x1C }
  - { offset: 0xCA3E0F, size: 0x8, addend: 0x0, symName: __ZN6twitch4rtmp9RtmpState20handleIncomingPeerBWENS0_11ChunkHeaderEPKh, symObjAddr: 0x16B4F8, symBinAddr: 0x162F10, symSize: 0x1C }
  - { offset: 0xCA3EA2, size: 0x8, addend: 0x0, symName: __ZN6twitch4rtmp9RtmpState24handleIncomingEdgeOriginENS0_11ChunkHeaderEPKh, symObjAddr: 0x16B514, symBinAddr: 0x162F2C, symSize: 0x10 }
  - { offset: 0xCA3EDA, size: 0x8, addend: 0x0, symName: __ZN6twitch4rtmp9RtmpState24handleIncomingEdgeOriginENS0_11ChunkHeaderEPKh, symObjAddr: 0x16B514, symBinAddr: 0x162F2C, symSize: 0x10 }
  - { offset: 0xCA3F05, size: 0x8, addend: 0x0, symName: __ZN6twitch4rtmp9RtmpState19handleIncomingAudioENS0_11ChunkHeaderEPKh, symObjAddr: 0x16B524, symBinAddr: 0x162F3C, symSize: 0x10 }
  - { offset: 0xCA3F3D, size: 0x8, addend: 0x0, symName: __ZN6twitch4rtmp9RtmpState19handleIncomingAudioENS0_11ChunkHeaderEPKh, symObjAddr: 0x16B524, symBinAddr: 0x162F3C, symSize: 0x10 }
  - { offset: 0xCA3F69, size: 0x8, addend: 0x0, symName: __ZN6twitch4rtmp9RtmpState19handleIncomingVideoENS0_11ChunkHeaderEPKh, symObjAddr: 0x16B534, symBinAddr: 0x162F4C, symSize: 0x10 }
  - { offset: 0xCA3FA4, size: 0x8, addend: 0x0, symName: __ZN6twitch4rtmp9RtmpState19handleIncomingVideoENS0_11ChunkHeaderEPKh, symObjAddr: 0x16B534, symBinAddr: 0x162F4C, symSize: 0x10 }
  - { offset: 0xCA3FD0, size: 0x8, addend: 0x0, symName: __ZN6twitch4rtmp9RtmpState22handleIncomingAmf3DataENS0_11ChunkHeaderEPKh, symObjAddr: 0x16B544, symBinAddr: 0x162F5C, symSize: 0x10 }
  - { offset: 0xCA400B, size: 0x8, addend: 0x0, symName: __ZN6twitch4rtmp9RtmpState22handleIncomingAmf3DataENS0_11ChunkHeaderEPKh, symObjAddr: 0x16B544, symBinAddr: 0x162F5C, symSize: 0x10 }
  - { offset: 0xCA4037, size: 0x8, addend: 0x0, symName: __ZN6twitch4rtmp9RtmpState30handleIncomingAmf3SharedObjectENS0_11ChunkHeaderEPh, symObjAddr: 0x16B554, symBinAddr: 0x162F6C, symSize: 0x10 }
  - { offset: 0xCA4072, size: 0x8, addend: 0x0, symName: __ZN6twitch4rtmp9RtmpState30handleIncomingAmf3SharedObjectENS0_11ChunkHeaderEPh, symObjAddr: 0x16B554, symBinAddr: 0x162F6C, symSize: 0x10 }
  - { offset: 0xCA409E, size: 0x8, addend: 0x0, symName: __ZN6twitch4rtmp9RtmpState18handleIncomingAmf3ENS0_11ChunkHeaderEPKh, symObjAddr: 0x16B564, symBinAddr: 0x162F7C, symSize: 0x10 }
  - { offset: 0xCA40D9, size: 0x8, addend: 0x0, symName: __ZN6twitch4rtmp9RtmpState18handleIncomingAmf3ENS0_11ChunkHeaderEPKh, symObjAddr: 0x16B564, symBinAddr: 0x162F7C, symSize: 0x10 }
  - { offset: 0xCA4105, size: 0x8, addend: 0x0, symName: __ZN6twitch4rtmp9RtmpState22handleIncomingAmf0DataENS0_11ChunkHeaderEPKh, symObjAddr: 0x16B574, symBinAddr: 0x162F8C, symSize: 0x10 }
  - { offset: 0xCA4140, size: 0x8, addend: 0x0, symName: __ZN6twitch4rtmp9RtmpState22handleIncomingAmf0DataENS0_11ChunkHeaderEPKh, symObjAddr: 0x16B574, symBinAddr: 0x162F8C, symSize: 0x10 }
  - { offset: 0xCA416C, size: 0x8, addend: 0x0, symName: __ZN6twitch4rtmp9RtmpState30handleIncomingAmf0SharedObjectENS0_11ChunkHeaderEPKh, symObjAddr: 0x16B584, symBinAddr: 0x162F9C, symSize: 0x10 }
  - { offset: 0xCA41A7, size: 0x8, addend: 0x0, symName: __ZN6twitch4rtmp9RtmpState30handleIncomingAmf0SharedObjectENS0_11ChunkHeaderEPKh, symObjAddr: 0x16B584, symBinAddr: 0x162F9C, symSize: 0x10 }
  - { offset: 0xCA41D3, size: 0x8, addend: 0x0, symName: __ZN6twitch4rtmp9RtmpState18handleIncomingAmf0ENS0_11ChunkHeaderEPKh, symObjAddr: 0x16B594, symBinAddr: 0x162FAC, symSize: 0x10 }
  - { offset: 0xCA420E, size: 0x8, addend: 0x0, symName: __ZN6twitch4rtmp9RtmpState18handleIncomingAmf0ENS0_11ChunkHeaderEPKh, symObjAddr: 0x16B594, symBinAddr: 0x162FAC, symSize: 0x10 }
  - { offset: 0xCA423A, size: 0x8, addend: 0x0, symName: __ZN6twitch4rtmp9RtmpState23handleIncomingAggregateENS0_11ChunkHeaderEPKh, symObjAddr: 0x16B5A4, symBinAddr: 0x162FBC, symSize: 0x10 }
  - { offset: 0xCA4275, size: 0x8, addend: 0x0, symName: __ZN6twitch4rtmp9RtmpState23handleIncomingAggregateENS0_11ChunkHeaderEPKh, symObjAddr: 0x16B5A4, symBinAddr: 0x162FBC, symSize: 0x10 }
  - { offset: 0xCA42A1, size: 0x8, addend: 0x0, symName: __ZN6twitch4rtmp9RtmpState15onEnterInternalEv, symObjAddr: 0x16B5B4, symBinAddr: 0x162FCC, symSize: 0x4 }
  - { offset: 0xCA441D, size: 0x8, addend: 0x0, symName: __ZN6twitch4rtmp9RtmpState20pollForInputInternalEv, symObjAddr: 0x16B5B8, symBinAddr: 0x162FD0, symSize: 0x6EC }
  - { offset: 0xCA5063, size: 0x8, addend: 0x0, symName: __ZN6twitch4rtmp9RtmpState15appendChunkDataEPKhmRNS0_18RtmpMessageDetailsE, symObjAddr: 0x16BCA4, symBinAddr: 0x1636BC, symSize: 0x4DC }
  - { offset: 0x309271, size: 0x8, addend: 0x0, symName: '-[IVSDeviceDiscovery init]', symObjAddr: 0x40B00, symBinAddr: 0x41CA8, symSize: 0xB4 }
  - { offset: 0x30A70F, size: 0x8, addend: 0x0, symName: '-[IVSDeviceDiscovery init]', symObjAddr: 0x40B00, symBinAddr: 0x41CA8, symSize: 0xB4 }
  - { offset: 0x30A765, size: 0x8, addend: 0x0, symName: '-[IVSDeviceDiscovery dealloc]', symObjAddr: 0x40BB4, symBinAddr: 0x41D5C, symSize: 0x50 }
  - { offset: 0x30A7D0, size: 0x8, addend: 0x0, symName: '-[IVSDeviceDiscovery addDelegate:]', symObjAddr: 0x40C04, symBinAddr: 0x41DAC, symSize: 0xC }
  - { offset: 0x30A816, size: 0x8, addend: 0x0, symName: '-[IVSDeviceDiscovery addDelegate:]', symObjAddr: 0x40C04, symBinAddr: 0x41DAC, symSize: 0xC }
  - { offset: 0x30A832, size: 0x8, addend: 0x0, symName: '-[IVSDeviceDiscovery removeDelegate:]', symObjAddr: 0x40C10, symBinAddr: 0x41DB8, symSize: 0xC }
  - { offset: 0x30A878, size: 0x8, addend: 0x0, symName: '-[IVSDeviceDiscovery removeDelegate:]', symObjAddr: 0x40C10, symBinAddr: 0x41DB8, symSize: 0xC }
  - { offset: 0x30A894, size: 0x8, addend: 0x0, symName: '-[IVSDeviceDiscovery listLocalDevices]', symObjAddr: 0x40C1C, symBinAddr: 0x41DC4, symSize: 0x11C }
  - { offset: 0x30AD55, size: 0x8, addend: 0x0, symName: '-[IVSDeviceDiscovery createImageSourceWithName:]', symObjAddr: 0x40D38, symBinAddr: 0x41EE0, symSize: 0x190 }
  - { offset: 0x30B252, size: 0x8, addend: 0x0, symName: '-[IVSDeviceDiscovery createAudioSourceWithName:]', symObjAddr: 0x40EC8, symBinAddr: 0x42070, symSize: 0xA0 }
  - { offset: 0x30B2B9, size: 0x8, addend: 0x0, symName: '-[IVSDeviceDiscovery createMixedImageDeviceWithConfiguration:]', symObjAddr: 0x40F68, symBinAddr: 0x42110, symSize: 0x4C }
  - { offset: 0x30B2FE, size: 0x8, addend: 0x0, symName: '-[IVSDeviceDiscovery createMixedAudioDeviceWithConfiguration:]', symObjAddr: 0x40FB4, symBinAddr: 0x4215C, symSize: 0x4C }
  - { offset: 0x30B343, size: 0x8, addend: 0x0, symName: '-[IVSDeviceDiscovery devicesAdded:]', symObjAddr: 0x41000, symBinAddr: 0x421A8, symSize: 0x140 }
  - { offset: 0x30B3BF, size: 0x8, addend: 0x0, symName: '-[IVSDeviceDiscovery devicesRemoved:]', symObjAddr: 0x41140, symBinAddr: 0x422E8, symSize: 0x140 }
  - { offset: 0x30B43B, size: 0x8, addend: 0x0, symName: '-[IVSDeviceDiscovery .cxx_destruct]', symObjAddr: 0x41280, symBinAddr: 0x42428, symSize: 0x34 }
  - { offset: 0x30B47F, size: 0x8, addend: 0x0, symName: '-[IVSDeviceDiscovery .cxx_construct]', symObjAddr: 0x412B4, symBinAddr: 0x4245C, symSize: 0x24 }
  - { offset: 0xCEE36A, size: 0x8, addend: 0x0, symName: __ZN4bssl3NewI14ssl_session_stJRPKNS_15SSL_X509_METHODEEEEPT_DpOT0_, symObjAddr: 0x17ABA0, symBinAddr: 0x1724CC, symSize: 0xF0 }
  - { offset: 0xCEE389, size: 0x8, addend: 0x0, symName: __ZN4bsslL15g_ex_data_classE, symObjAddr: 0x202F38, symBinAddr: 0x2008C8, symSize: 0x0 }
  - { offset: 0xCEE4DF, size: 0x8, addend: 0x0, symName: __ZN4bssl3NewI14ssl_session_stJRPKNS_15SSL_X509_METHODEEEEPT_DpOT0_, symObjAddr: 0x17ABA0, symBinAddr: 0x1724CC, symSize: 0xF0 }
  - { offset: 0xCEE6F4, size: 0x8, addend: 0x0, symName: __ZN4bssl15SSL_SESSION_dupEP14ssl_session_sti, symObjAddr: 0x17AC90, symBinAddr: 0x1725BC, symSize: 0x468 }
  - { offset: 0xCEF843, size: 0x8, addend: 0x0, symName: __ZN4bssl23ssl_session_rebase_timeEP6ssl_stP14ssl_session_st, symObjAddr: 0x17B310, symBinAddr: 0x172C3C, symSize: 0x6C }
  - { offset: 0xCEF8FA, size: 0x8, addend: 0x0, symName: __ZN4bssl22ssl_session_get_digestEPK14ssl_session_st, symObjAddr: 0x17B3C0, symBinAddr: 0x172CA8, symSize: 0x4C }
  - { offset: 0xCEF92E, size: 0x8, addend: 0x0, symName: __ZN4bssl22ssl_session_get_digestEPK14ssl_session_st, symObjAddr: 0x17B3C0, symBinAddr: 0x172CA8, symSize: 0x4C }
  - { offset: 0xCEF970, size: 0x8, addend: 0x0, symName: __ZN4bssl19ssl_get_new_sessionEPNS_13SSL_HANDSHAKEEi, symObjAddr: 0x17B40C, symBinAddr: 0x172CF4, symSize: 0x16C }
  - { offset: 0xCEFD3F, size: 0x8, addend: 0x0, symName: __ZN4bssl28ssl_session_is_context_validEPKNS_13SSL_HANDSHAKEEPK14ssl_session_st, symObjAddr: 0x17B578, symBinAddr: 0x172E60, symSize: 0x60 }
  - { offset: 0xCEFDDD, size: 0x8, addend: 0x0, symName: __ZN4bsslL23SSL_SESSION_list_removeEP10ssl_ctx_stP14ssl_session_st, symObjAddr: 0x17B5F4, symBinAddr: 0x172EDC, symSize: 0x64 }
  - { offset: 0xCF13FF, size: 0x8, addend: 0x0, symName: _SSL_SESSION_free, symObjAddr: 0x17B0F8, symBinAddr: 0x172A24, symSize: 0x218 }
  - { offset: 0xCF21B0, size: 0x8, addend: 0x0, symName: __Z29lh_SSL_SESSION_call_hash_funcPFjPKvES0_, symObjAddr: 0x17B5D8, symBinAddr: 0x172EC0, symSize: 0xC }
  - { offset: 0xCF21E5, size: 0x8, addend: 0x0, symName: __Z28lh_SSL_SESSION_call_cmp_funcPFiPKvS0_ES0_S0_, symObjAddr: 0x17B5E4, symBinAddr: 0x172ECC, symSize: 0x10 }
  - { offset: 0xCF229D, size: 0x8, addend: 0x0, symName: _SSL_CTX_flush_sessions, symObjAddr: 0x17B658, symBinAddr: 0x172F40, symSize: 0xD0 }
  - { offset: 0xCF249B, size: 0x8, addend: 0x0, symName: __ZL17timeout_doall_argP14ssl_session_stPv, symObjAddr: 0x17B728, symBinAddr: 0x173010, symSize: 0x8C }
  - { offset: 0xCF24A6, size: 0x8, addend: 0x0, symName: __ZL17timeout_doall_argP14ssl_session_stPv, symObjAddr: 0x17B728, symBinAddr: 0x173010, symSize: 0x8C }
  - { offset: 0x2BFE15, size: 0x8, addend: 0x0, symName: '+[IVSBroadcastSingleton shared]', symObjAddr: 0x36864, symBinAddr: 0x37AF8, symSize: 0x74 }
  - { offset: 0x2BFE23, size: 0x8, addend: 0x0, symName: '+[IVSBroadcastSingleton shared]', symObjAddr: 0x36864, symBinAddr: 0x37AF8, symSize: 0x74 }
  - { offset: 0x2BFE4D, size: 0x8, addend: 0x0, symName: '__ZZ31+[IVSBroadcastSingleton shared]E9singleton', symObjAddr: 0x34F20E8, symBinAddr: 0x200E48, symSize: 0x0 }
  - { offset: 0x2BFE63, size: 0x8, addend: 0x0, symName: '__ZZ31+[IVSBroadcastSingleton shared]E9onceToken', symObjAddr: 0x34F20F0, symBinAddr: 0x200E50, symSize: 0x0 }
  - { offset: 0x2D2A1C, size: 0x8, addend: 0x0, symName: __ZNSt3__110shared_ptrIN6twitch3ios12GCDSchedulerEE18__enable_weak_thisB8nn180100IS3_S3_vEEvPKNS_23enable_shared_from_thisIT_EEPT0_, symObjAddr: 0x37574, symBinAddr: 0x387AC, symSize: 0x94 }
  - { offset: 0x2D2EF0, size: 0x8, addend: 0x0, symName: '___31+[IVSBroadcastSingleton shared]_block_invoke', symObjAddr: 0x368D8, symBinAddr: 0x37B6C, symSize: 0x28 }
  - { offset: 0x2D3328, size: 0x8, addend: 0x0, symName: '-[IVSBroadcastSingleton deviceQueue]', symObjAddr: 0x36900, symBinAddr: 0x37B94, symSize: 0x108 }
  - { offset: 0x2D3BC7, size: 0x8, addend: 0x0, symName: '-[IVSBroadcastSingleton audioController]', symObjAddr: 0x36A08, symBinAddr: 0x37C9C, symSize: 0xE4 }
  - { offset: 0x2D3E14, size: 0x8, addend: 0x0, symName: '-[IVSBroadcastSingleton camera]', symObjAddr: 0x36AEC, symBinAddr: 0x37D80, symSize: 0x1B4 }
  - { offset: 0x2D448B, size: 0x8, addend: 0x0, symName: '-[IVSBroadcastSingleton metalResourceCache]', symObjAddr: 0x36CA0, symBinAddr: 0x37F34, symSize: 0x138 }
  - { offset: 0x2D5508, size: 0x8, addend: 0x0, symName: '-[IVSBroadcastSingleton renderContext]', symObjAddr: 0x36DD8, symBinAddr: 0x3806C, symSize: 0x3A4 }
  - { offset: 0x2D6AE2, size: 0x8, addend: 0x0, symName: '-[IVSBroadcastSingleton deviceChangeMonitor]', symObjAddr: 0x3717C, symBinAddr: 0x38410, symSize: 0x9C }
  - { offset: 0x2D70A1, size: 0x8, addend: 0x0, symName: '-[IVSBroadcastSingleton logger]', symObjAddr: 0x37218, symBinAddr: 0x384AC, symSize: 0x15C }
  - { offset: 0x2D7927, size: 0x8, addend: 0x0, symName: '-[IVSBroadcastSingleton deviceQueueInternal]', symObjAddr: 0x37374, symBinAddr: 0x38608, symSize: 0x18 }
  - { offset: 0x2D795E, size: 0x8, addend: 0x0, symName: '-[IVSBroadcastSingleton setDeviceQueueInternal:]', symObjAddr: 0x3738C, symBinAddr: 0x38620, symSize: 0xC }
  - { offset: 0x2D799F, size: 0x8, addend: 0x0, symName: '-[IVSBroadcastSingleton audioCont]', symObjAddr: 0x37398, symBinAddr: 0x3862C, symSize: 0x18 }
  - { offset: 0x2D79D6, size: 0x8, addend: 0x0, symName: '-[IVSBroadcastSingleton setAudioCont:]', symObjAddr: 0x373B0, symBinAddr: 0x38644, symSize: 0xC }
  - { offset: 0x2D7A17, size: 0x8, addend: 0x0, symName: '-[IVSBroadcastSingleton cam]', symObjAddr: 0x373BC, symBinAddr: 0x38650, symSize: 0x18 }
  - { offset: 0x2D7A4E, size: 0x8, addend: 0x0, symName: '-[IVSBroadcastSingleton setCam:]', symObjAddr: 0x373D4, symBinAddr: 0x38668, symSize: 0xC }
  - { offset: 0x2D7A8F, size: 0x8, addend: 0x0, symName: '-[IVSBroadcastSingleton monitor]', symObjAddr: 0x373E0, symBinAddr: 0x38674, symSize: 0x18 }
  - { offset: 0x2D7AC6, size: 0x8, addend: 0x0, symName: '-[IVSBroadcastSingleton setMonitor:]', symObjAddr: 0x373F8, symBinAddr: 0x3868C, symSize: 0xC }
  - { offset: 0x2D7B45, size: 0x8, addend: 0x0, symName: '-[IVSBroadcastSingleton .cxx_destruct]', symObjAddr: 0x37404, symBinAddr: 0x38698, symSize: 0x74 }
  - { offset: 0x2D7CEE, size: 0x8, addend: 0x0, symName: '-[IVSBroadcastSingleton .cxx_construct]', symObjAddr: 0x37478, symBinAddr: 0x3870C, symSize: 0x24 }
  - { offset: 0x2D7D26, size: 0x8, addend: 0x0, symName: '-[IVSBroadcastSingleton .cxx_construct]', symObjAddr: 0x37478, symBinAddr: 0x3870C, symSize: 0x24 }
  - { offset: 0x2D7D46, size: 0x8, addend: 0x0, symName: '-[IVSBroadcastSingleton .cxx_construct]', symObjAddr: 0x37478, symBinAddr: 0x3870C, symSize: 0x24 }
  - { offset: 0x2D7E11, size: 0x8, addend: 0x0, symName: __ZNSt3__120__shared_ptr_emplaceIN6twitch5OSLogENS_9allocatorIS2_EEED1Ev, symObjAddr: 0x374F8, symBinAddr: 0x38730, symSize: 0x10 }
  - { offset: 0x2D7E35, size: 0x8, addend: 0x0, symName: __ZNSt3__120__shared_ptr_emplaceIN6twitch5OSLogENS_9allocatorIS2_EEED1Ev, symObjAddr: 0x374F8, symBinAddr: 0x38730, symSize: 0x10 }
  - { offset: 0x2D7E6C, size: 0x8, addend: 0x0, symName: __ZNSt3__120__shared_ptr_emplaceIN6twitch5OSLogENS_9allocatorIS2_EEED0Ev, symObjAddr: 0x37508, symBinAddr: 0x38740, symSize: 0x20 }
  - { offset: 0x2D7F3B, size: 0x8, addend: 0x0, symName: __ZNSt3__120__shared_ptr_emplaceIN6twitch5OSLogENS_9allocatorIS2_EEE16__on_zero_sharedEv, symObjAddr: 0x37528, symBinAddr: 0x38760, symSize: 0xC }
  - { offset: 0x2D7F65, size: 0x8, addend: 0x0, symName: __ZNSt3__120__shared_ptr_emplaceIN6twitch5OSLogENS_9allocatorIS2_EEE16__on_zero_sharedEv, symObjAddr: 0x37528, symBinAddr: 0x38760, symSize: 0xC }
  - { offset: 0x2D7F85, size: 0x8, addend: 0x0, symName: __ZNSt3__120__shared_ptr_emplaceIN6twitch5OSLogENS_9allocatorIS2_EEE16__on_zero_sharedEv, symObjAddr: 0x37528, symBinAddr: 0x38760, symSize: 0xC }
  - { offset: 0x2D7FA5, size: 0x8, addend: 0x0, symName: __ZNSt3__120__shared_ptr_emplaceIN6twitch5OSLogENS_9allocatorIS2_EEE16__on_zero_sharedEv, symObjAddr: 0x37528, symBinAddr: 0x38760, symSize: 0xC }
  - { offset: 0x2D802E, size: 0x8, addend: 0x0, symName: __ZNSt3__120__shared_ptr_emplaceIN6twitch5OSLogENS_9allocatorIS2_EEE21__on_zero_shared_weakEv, symObjAddr: 0x37534, symBinAddr: 0x3876C, symSize: 0x4 }
  - { offset: 0x2D8063, size: 0x8, addend: 0x0, symName: __ZNSt3__120__shared_ptr_emplaceIN6twitch5OSLogENS_9allocatorIS2_EEE21__on_zero_shared_weakEv, symObjAddr: 0x37534, symBinAddr: 0x3876C, symSize: 0x4 }
  - { offset: 0x2D8088, size: 0x8, addend: 0x0, symName: __ZNSt3__120__shared_ptr_emplaceIN6twitch5OSLogENS_9allocatorIS2_EEE21__on_zero_shared_weakEv, symObjAddr: 0x37534, symBinAddr: 0x3876C, symSize: 0x4 }
  - { offset: 0x2D80AD, size: 0x8, addend: 0x0, symName: __ZNSt3__120__shared_ptr_emplaceIN6twitch5OSLogENS_9allocatorIS2_EEE21__on_zero_shared_weakEv, symObjAddr: 0x37534, symBinAddr: 0x3876C, symSize: 0x4 }
  - { offset: 0x2D80DD, size: 0x8, addend: 0x0, symName: __ZNSt3__120__shared_ptr_emplaceIN6twitch5OSLogENS_9allocatorIS2_EEE21__on_zero_shared_weakEv, symObjAddr: 0x37534, symBinAddr: 0x3876C, symSize: 0x4 }
  - { offset: 0x2D8108, size: 0x8, addend: 0x0, symName: __ZNSt3__120__shared_ptr_emplaceIN6twitch5OSLogENS_9allocatorIS2_EEE21__on_zero_shared_weakEv, symObjAddr: 0x37534, symBinAddr: 0x3876C, symSize: 0x4 }
  - { offset: 0x2D8152, size: 0x8, addend: 0x0, symName: __ZNSt3__120__shared_ptr_emplaceIN6twitch3ios18MetalRenderContextENS_9allocatorIS3_EEED1Ev, symObjAddr: 0x37538, symBinAddr: 0x38770, symSize: 0x10 }
  - { offset: 0x2D8176, size: 0x8, addend: 0x0, symName: __ZNSt3__120__shared_ptr_emplaceIN6twitch3ios18MetalRenderContextENS_9allocatorIS3_EEED1Ev, symObjAddr: 0x37538, symBinAddr: 0x38770, symSize: 0x10 }
  - { offset: 0x2D81AD, size: 0x8, addend: 0x0, symName: __ZNSt3__120__shared_ptr_emplaceIN6twitch3ios18MetalRenderContextENS_9allocatorIS3_EEED0Ev, symObjAddr: 0x37548, symBinAddr: 0x38780, symSize: 0x20 }
  - { offset: 0x2D827C, size: 0x8, addend: 0x0, symName: __ZNSt3__120__shared_ptr_emplaceIN6twitch3ios18MetalRenderContextENS_9allocatorIS3_EEE16__on_zero_sharedEv, symObjAddr: 0x37568, symBinAddr: 0x387A0, symSize: 0x8 }
  - { offset: 0x2D82A6, size: 0x8, addend: 0x0, symName: __ZNSt3__120__shared_ptr_emplaceIN6twitch3ios18MetalRenderContextENS_9allocatorIS3_EEE16__on_zero_sharedEv, symObjAddr: 0x37568, symBinAddr: 0x387A0, symSize: 0x8 }
  - { offset: 0x2D82C6, size: 0x8, addend: 0x0, symName: __ZNSt3__120__shared_ptr_emplaceIN6twitch3ios18MetalRenderContextENS_9allocatorIS3_EEE16__on_zero_sharedEv, symObjAddr: 0x37568, symBinAddr: 0x387A0, symSize: 0x8 }
  - { offset: 0x2D83AD, size: 0x8, addend: 0x0, symName: __ZNSt3__120__shared_ptr_emplaceIN6twitch3ios18MetalRenderContextENS_9allocatorIS3_EEE21__on_zero_shared_weakEv, symObjAddr: 0x37570, symBinAddr: 0x387A8, symSize: 0x4 }
  - { offset: 0x2D83E2, size: 0x8, addend: 0x0, symName: __ZNSt3__120__shared_ptr_emplaceIN6twitch3ios18MetalRenderContextENS_9allocatorIS3_EEE21__on_zero_shared_weakEv, symObjAddr: 0x37570, symBinAddr: 0x387A8, symSize: 0x4 }
  - { offset: 0x2D8407, size: 0x8, addend: 0x0, symName: __ZNSt3__120__shared_ptr_emplaceIN6twitch3ios18MetalRenderContextENS_9allocatorIS3_EEE21__on_zero_shared_weakEv, symObjAddr: 0x37570, symBinAddr: 0x387A8, symSize: 0x4 }
  - { offset: 0x2D842C, size: 0x8, addend: 0x0, symName: __ZNSt3__120__shared_ptr_emplaceIN6twitch3ios18MetalRenderContextENS_9allocatorIS3_EEE21__on_zero_shared_weakEv, symObjAddr: 0x37570, symBinAddr: 0x387A8, symSize: 0x4 }
  - { offset: 0x2D845D, size: 0x8, addend: 0x0, symName: __ZNSt3__120__shared_ptr_emplaceIN6twitch3ios18MetalRenderContextENS_9allocatorIS3_EEE21__on_zero_shared_weakEv, symObjAddr: 0x37570, symBinAddr: 0x387A8, symSize: 0x4 }
  - { offset: 0x2D8489, size: 0x8, addend: 0x0, symName: __ZNSt3__120__shared_ptr_emplaceIN6twitch3ios18MetalRenderContextENS_9allocatorIS3_EEE21__on_zero_shared_weakEv, symObjAddr: 0x37570, symBinAddr: 0x387A8, symSize: 0x4 }
  - { offset: 0x2D86A2, size: 0x8, addend: 0x0, symName: __ZNSt3__120__shared_ptr_emplaceIN6twitch3ios12GCDSchedulerENS_9allocatorIS3_EEED1Ev, symObjAddr: 0x37608, symBinAddr: 0x38840, symSize: 0x10 }
  - { offset: 0x2D86C6, size: 0x8, addend: 0x0, symName: __ZNSt3__120__shared_ptr_emplaceIN6twitch3ios12GCDSchedulerENS_9allocatorIS3_EEED1Ev, symObjAddr: 0x37608, symBinAddr: 0x38840, symSize: 0x10 }
  - { offset: 0x2D86FD, size: 0x8, addend: 0x0, symName: __ZNSt3__120__shared_ptr_emplaceIN6twitch3ios12GCDSchedulerENS_9allocatorIS3_EEED0Ev, symObjAddr: 0x37618, symBinAddr: 0x38850, symSize: 0x20 }
  - { offset: 0x2D87CC, size: 0x8, addend: 0x0, symName: __ZNSt3__120__shared_ptr_emplaceIN6twitch3ios12GCDSchedulerENS_9allocatorIS3_EEE16__on_zero_sharedEv, symObjAddr: 0x37638, symBinAddr: 0x38870, symSize: 0x8 }
  - { offset: 0x2D87F6, size: 0x8, addend: 0x0, symName: __ZNSt3__120__shared_ptr_emplaceIN6twitch3ios12GCDSchedulerENS_9allocatorIS3_EEE16__on_zero_sharedEv, symObjAddr: 0x37638, symBinAddr: 0x38870, symSize: 0x8 }
  - { offset: 0x2D8816, size: 0x8, addend: 0x0, symName: __ZNSt3__120__shared_ptr_emplaceIN6twitch3ios12GCDSchedulerENS_9allocatorIS3_EEE16__on_zero_sharedEv, symObjAddr: 0x37638, symBinAddr: 0x38870, symSize: 0x8 }
  - { offset: 0x2D88FD, size: 0x8, addend: 0x0, symName: __ZNSt3__120__shared_ptr_emplaceIN6twitch3ios12GCDSchedulerENS_9allocatorIS3_EEE21__on_zero_shared_weakEv, symObjAddr: 0x37640, symBinAddr: 0x38878, symSize: 0x4 }
  - { offset: 0x2D8932, size: 0x8, addend: 0x0, symName: __ZNSt3__120__shared_ptr_emplaceIN6twitch3ios12GCDSchedulerENS_9allocatorIS3_EEE21__on_zero_shared_weakEv, symObjAddr: 0x37640, symBinAddr: 0x38878, symSize: 0x4 }
  - { offset: 0x2D8957, size: 0x8, addend: 0x0, symName: __ZNSt3__120__shared_ptr_emplaceIN6twitch3ios12GCDSchedulerENS_9allocatorIS3_EEE21__on_zero_shared_weakEv, symObjAddr: 0x37640, symBinAddr: 0x38878, symSize: 0x4 }
  - { offset: 0x2D897C, size: 0x8, addend: 0x0, symName: __ZNSt3__120__shared_ptr_emplaceIN6twitch3ios12GCDSchedulerENS_9allocatorIS3_EEE21__on_zero_shared_weakEv, symObjAddr: 0x37640, symBinAddr: 0x38878, symSize: 0x4 }
  - { offset: 0x2D89AB, size: 0x8, addend: 0x0, symName: __ZNSt3__120__shared_ptr_emplaceIN6twitch3ios12GCDSchedulerENS_9allocatorIS3_EEE21__on_zero_shared_weakEv, symObjAddr: 0x37640, symBinAddr: 0x38878, symSize: 0x4 }
  - { offset: 0x2D89D5, size: 0x8, addend: 0x0, symName: __ZNSt3__120__shared_ptr_emplaceIN6twitch3ios12GCDSchedulerENS_9allocatorIS3_EEE21__on_zero_shared_weakEv, symObjAddr: 0x37640, symBinAddr: 0x38878, symSize: 0x4 }
  - { offset: 0x2D8A90, size: 0x8, addend: 0x0, symName: __ZNSt3__120__shared_ptr_emplaceIN6twitch3ios18MetalResourceCacheENS_9allocatorIS3_EEED1Ev, symObjAddr: 0x376A0, symBinAddr: 0x3887C, symSize: 0x10 }
  - { offset: 0x2D8AB4, size: 0x8, addend: 0x0, symName: __ZNSt3__120__shared_ptr_emplaceIN6twitch3ios18MetalResourceCacheENS_9allocatorIS3_EEED1Ev, symObjAddr: 0x376A0, symBinAddr: 0x3887C, symSize: 0x10 }
  - { offset: 0x2D8AEB, size: 0x8, addend: 0x0, symName: __ZNSt3__120__shared_ptr_emplaceIN6twitch3ios18MetalResourceCacheENS_9allocatorIS3_EEED0Ev, symObjAddr: 0x376B0, symBinAddr: 0x3888C, symSize: 0x20 }
  - { offset: 0x2D8BFE, size: 0x8, addend: 0x0, symName: __ZNSt3__120__shared_ptr_emplaceIN6twitch3ios18MetalResourceCacheENS_9allocatorIS3_EEE16__on_zero_sharedEv, symObjAddr: 0x376D0, symBinAddr: 0x388AC, symSize: 0x48 }
  - { offset: 0x2D8E0C, size: 0x8, addend: 0x0, symName: __ZNSt3__120__shared_ptr_emplaceIN6twitch3ios18MetalResourceCacheENS_9allocatorIS3_EEE21__on_zero_shared_weakEv, symObjAddr: 0x37718, symBinAddr: 0x388F4, symSize: 0x4 }
  - { offset: 0x2D8E41, size: 0x8, addend: 0x0, symName: __ZNSt3__120__shared_ptr_emplaceIN6twitch3ios18MetalResourceCacheENS_9allocatorIS3_EEE21__on_zero_shared_weakEv, symObjAddr: 0x37718, symBinAddr: 0x388F4, symSize: 0x4 }
  - { offset: 0x2D8E66, size: 0x8, addend: 0x0, symName: __ZNSt3__120__shared_ptr_emplaceIN6twitch3ios18MetalResourceCacheENS_9allocatorIS3_EEE21__on_zero_shared_weakEv, symObjAddr: 0x37718, symBinAddr: 0x388F4, symSize: 0x4 }
  - { offset: 0x2D8E8B, size: 0x8, addend: 0x0, symName: __ZNSt3__120__shared_ptr_emplaceIN6twitch3ios18MetalResourceCacheENS_9allocatorIS3_EEE21__on_zero_shared_weakEv, symObjAddr: 0x37718, symBinAddr: 0x388F4, symSize: 0x4 }
  - { offset: 0x2D8EBB, size: 0x8, addend: 0x0, symName: __ZNSt3__120__shared_ptr_emplaceIN6twitch3ios18MetalResourceCacheENS_9allocatorIS3_EEE21__on_zero_shared_weakEv, symObjAddr: 0x37718, symBinAddr: 0x388F4, symSize: 0x4 }
  - { offset: 0x2D8EE6, size: 0x8, addend: 0x0, symName: __ZNSt3__120__shared_ptr_emplaceIN6twitch3ios18MetalResourceCacheENS_9allocatorIS3_EEE21__on_zero_shared_weakEv, symObjAddr: 0x37718, symBinAddr: 0x388F4, symSize: 0x4 }
  - { offset: 0xD7A521, size: 0x8, addend: 0x0, symName: __ZN6twitch12SimpleBuffer6appendEPKhm, symObjAddr: 0x190D0C, symBinAddr: 0x187964, symSize: 0xB4 }
  - { offset: 0xD7B5C8, size: 0x8, addend: 0x0, symName: __ZN6twitch12SimpleBuffer6appendEPKhm, symObjAddr: 0x190D0C, symBinAddr: 0x187964, symSize: 0xB4 }
  - { offset: 0xA18A07, size: 0x8, addend: 0x0, symName: _X509_NAME_print_ex, symObjAddr: 0x1047C0, symBinAddr: 0xFEA08, symSize: 0x388 }
  - { offset: 0xA18A21, size: 0x8, addend: 0x0, symName: _char_type, symObjAddr: 0x19AB33, symBinAddr: 0x1B13FB, symSize: 0x0 }
  - { offset: 0xA18A4C, size: 0x8, addend: 0x0, symName: _tag2nbyte, symObjAddr: 0x19AB14, symBinAddr: 0x1B13DC, symSize: 0x0 }
  - { offset: 0xA19421, size: 0x8, addend: 0x0, symName: _X509_NAME_print_ex, symObjAddr: 0x1047C0, symBinAddr: 0xFEA08, symSize: 0x388 }
  - { offset: 0xA19AFB, size: 0x8, addend: 0x0, symName: _do_buf, symObjAddr: 0x104B48, symBinAddr: 0xFED90, symSize: 0x4F0 }
  - { offset: 0xA19CCF, size: 0x8, addend: 0x0, symName: _do_esc_char, symObjAddr: 0x105038, symBinAddr: 0xFF280, symSize: 0x200 }
  - { offset: 0xA19F10, size: 0x8, addend: 0x0, symName: _ASN1_STRING_to_UTF8, symObjAddr: 0x105238, symBinAddr: 0xFF480, symSize: 0x9C }
  - { offset: 0xA6418E, size: 0x8, addend: 0x0, symName: _ext_cmp, symObjAddr: 0x112C50, symBinAddr: 0x10CE98, symSize: 0x18 }
  - { offset: 0xA641A8, size: 0x8, addend: 0x0, symName: _standard_exts, symObjAddr: 0x1E38D0, symBinAddr: 0x1EA888, symSize: 0x0 }
  - { offset: 0xA65839, size: 0x8, addend: 0x0, symName: _ext_cmp, symObjAddr: 0x112C50, symBinAddr: 0x10CE98, symSize: 0x18 }
  - { offset: 0xA65893, size: 0x8, addend: 0x0, symName: _ext_cmp, symObjAddr: 0x112C50, symBinAddr: 0x10CE98, symSize: 0x18 }
  - { offset: 0xA6592C, size: 0x8, addend: 0x0, symName: _X509V3_EXT_d2i, symObjAddr: 0x112C68, symBinAddr: 0x10CEB0, symSize: 0xB0 }
  - { offset: 0xA65A56, size: 0x8, addend: 0x0, symName: _X509V3_get_d2i, symObjAddr: 0x112D18, symBinAddr: 0x10CF60, symSize: 0xC8 }
  - { offset: 0xA15C43, size: 0x8, addend: 0x0, symName: _CRYPTO_BUFFER_new, symObjAddr: 0x103B10, symBinAddr: 0xFDDB8, symSize: 0x264 }
  - { offset: 0xA15E77, size: 0x8, addend: 0x0, symName: _CRYPTO_BUFFER_new, symObjAddr: 0x103B10, symBinAddr: 0xFDDB8, symSize: 0x264 }
  - { offset: 0xA16498, size: 0x8, addend: 0x0, symName: _lh_CRYPTO_BUFFER_call_hash_func, symObjAddr: 0x103D74, symBinAddr: 0xFE01C, symSize: 0xC }
  - { offset: 0xA164C0, size: 0x8, addend: 0x0, symName: _lh_CRYPTO_BUFFER_call_hash_func, symObjAddr: 0x103D74, symBinAddr: 0xFE01C, symSize: 0xC }
  - { offset: 0xA164F5, size: 0x8, addend: 0x0, symName: _lh_CRYPTO_BUFFER_call_cmp_func, symObjAddr: 0x103D80, symBinAddr: 0xFE028, symSize: 0x10 }
  - { offset: 0xA1655A, size: 0x8, addend: 0x0, symName: _CRYPTO_BUFFER_free, symObjAddr: 0x103D90, symBinAddr: 0xFE038, symSize: 0xD8 }
  - { offset: 0xA166C6, size: 0x8, addend: 0x0, symName: _CRYPTO_refcount_inc, symObjAddr: 0x103E68, symBinAddr: 0xFE110, symSize: 0x54 }
  - { offset: 0x2BE46A, size: 0x8, addend: 0x0, symName: '-[IVSBroadcastSessionTest initWithCancellable:]', symObjAddr: 0x3642C, symBinAddr: 0x376C0, symSize: 0x8C }
  - { offset: 0x2BF5EB, size: 0x8, addend: 0x0, symName: '-[IVSBroadcastSessionTest initWithCancellable:]', symObjAddr: 0x3642C, symBinAddr: 0x376C0, symSize: 0x8C }
  - { offset: 0x2BF7E7, size: 0x8, addend: 0x0, symName: '-[IVSBroadcastSessionTest cancel]', symObjAddr: 0x364B8, symBinAddr: 0x3774C, symSize: 0x74 }
  - { offset: 0x2BF8D5, size: 0x8, addend: 0x0, symName: '-[IVSBroadcastSessionTest .cxx_destruct]', symObjAddr: 0x3652C, symBinAddr: 0x377C0, symSize: 0x10 }
  - { offset: 0x2BF90B, size: 0x8, addend: 0x0, symName: '-[IVSBroadcastSessionTest .cxx_destruct]', symObjAddr: 0x3652C, symBinAddr: 0x377C0, symSize: 0x10 }
  - { offset: 0x2BF92A, size: 0x8, addend: 0x0, symName: '-[IVSBroadcastSessionTest .cxx_destruct]', symObjAddr: 0x3652C, symBinAddr: 0x377C0, symSize: 0x10 }
  - { offset: 0x2BF981, size: 0x8, addend: 0x0, symName: '-[IVSBroadcastSessionTest .cxx_construct]', symObjAddr: 0x3653C, symBinAddr: 0x377D0, symSize: 0x8 }
  - { offset: 0x2BF9B9, size: 0x8, addend: 0x0, symName: '-[IVSBroadcastSessionTest .cxx_construct]', symObjAddr: 0x3653C, symBinAddr: 0x377D0, symSize: 0x8 }
  - { offset: 0x2BF9D8, size: 0x8, addend: 0x0, symName: '-[IVSBroadcastSessionTest .cxx_construct]', symObjAddr: 0x3653C, symBinAddr: 0x377D0, symSize: 0x8 }
  - { offset: 0x2BFA11, size: 0x8, addend: 0x0, symName: '-[IVSBroadcastSessionTestResult initWithCoreResult:]', symObjAddr: 0x36544, symBinAddr: 0x377D8, symSize: 0x164 }
  - { offset: 0x2BFAAE, size: 0x8, addend: 0x0, symName: '-[IVSBroadcastSessionTestResult initWithError:]', symObjAddr: 0x366A8, symBinAddr: 0x3793C, symSize: 0xAC }
  - { offset: 0x2BFAF5, size: 0x8, addend: 0x0, symName: '-[IVSBroadcastSessionTestResult description]', symObjAddr: 0x36754, symBinAddr: 0x379E8, symSize: 0xC0 }
  - { offset: 0x2BFB2C, size: 0x8, addend: 0x0, symName: '-[IVSBroadcastSessionTestResult progress]', symObjAddr: 0x36814, symBinAddr: 0x37AA8, symSize: 0x8 }
  - { offset: 0x2BFB61, size: 0x8, addend: 0x0, symName: '-[IVSBroadcastSessionTestResult recommendations]', symObjAddr: 0x3681C, symBinAddr: 0x37AB0, symSize: 0x8 }
  - { offset: 0x2BFB98, size: 0x8, addend: 0x0, symName: '-[IVSBroadcastSessionTestResult status]', symObjAddr: 0x36824, symBinAddr: 0x37AB8, symSize: 0x8 }
  - { offset: 0x2BFBCF, size: 0x8, addend: 0x0, symName: '-[IVSBroadcastSessionTestResult error]', symObjAddr: 0x3682C, symBinAddr: 0x37AC0, symSize: 0x8 }
  - { offset: 0x2BFC06, size: 0x8, addend: 0x0, symName: '-[IVSBroadcastSessionTestResult .cxx_destruct]', symObjAddr: 0x36834, symBinAddr: 0x37AC8, symSize: 0x30 }
  - { offset: 0x74FEC1, size: 0x8, addend: 0x0, symName: __ZN6twitch17AnalyticsPipelineD1Ev, symObjAddr: 0xB0410, symBinAddr: 0xAD638, symSize: 0x4 }
  - { offset: 0x758204, size: 0x8, addend: 0x0, symName: __ZNSt3__114__split_bufferINS_8weak_ptrIN6twitch8ReceiverINS2_15AnalyticsSampleENS2_5ErrorEEEEERNS_9allocatorIS7_EEED2Ev, symObjAddr: 0xB3280, symBinAddr: 0xB03C8, symSize: 0x5C }
  - { offset: 0x759D00, size: 0x8, addend: 0x0, symName: __ZN6twitch7composeINS_3BusINS_15AnalyticsSampleEEENS_12SampleFilterIS2_EEEEDaRKNSt3__110shared_ptrIT_EERKNS8_IT0_EE, symObjAddr: 0xB18C4, symBinAddr: 0xAEAEC, symSize: 0x168 }
  - { offset: 0x75ABCB, size: 0x8, addend: 0x0, symName: __ZN6twitch17AnalyticsPipeline15updateSessionIdERKNSt3__112basic_stringIcNS1_11char_traitsIcEENS1_9allocatorIcEEEE, symObjAddr: 0xB0428, symBinAddr: 0xAD650, symSize: 0xF04 }
  - { offset: 0x760ACE, size: 0x8, addend: 0x0, symName: __ZN6twitch17AnalyticsPipeline16teardownInternalEv, symObjAddr: 0xB132C, symBinAddr: 0xAE554, symSize: 0x254 }
  - { offset: 0x7610AF, size: 0x8, addend: 0x0, symName: __ZN6twitch17AnalyticsPipeline18attachSinkInternalERKNSt3__110shared_ptrINS_8ReceiverINS_15AnalyticsSampleENS_5ErrorEEEEERKNS1_12basic_stringIcNS1_11char_traitsIcEENS1_9allocatorIcEEEESH_, symObjAddr: 0xB1580, symBinAddr: 0xAE7A8, symSize: 0x304 }
  - { offset: 0x7624A4, size: 0x8, addend: 0x0, symName: __ZThn152_N6twitch17AnalyticsPipelineD1Ev, symObjAddr: 0xB1884, symBinAddr: 0xAEAAC, symSize: 0x8 }
  - { offset: 0x763655, size: 0x8, addend: 0x0, symName: __ZN6twitch17AnalyticsPipelineD1Ev, symObjAddr: 0xB0410, symBinAddr: 0xAD638, symSize: 0x4 }
  - { offset: 0x763679, size: 0x8, addend: 0x0, symName: __ZN6twitch17AnalyticsPipelineD1Ev, symObjAddr: 0xB0410, symBinAddr: 0xAD638, symSize: 0x4 }
  - { offset: 0x7636A0, size: 0x8, addend: 0x0, symName: __ZN6twitch17AnalyticsPipelineD0Ev, symObjAddr: 0xB0414, symBinAddr: 0xAD63C, symSize: 0x14 }
  - { offset: 0x76630A, size: 0x8, addend: 0x0, symName: __ZN6twitch15CompositionPathIJNSt3__110shared_ptrINS_13AnalyticsSinkEEENS2_INS_12SampleFilterINS_15AnalyticsSampleEEEEENS2_INS_3BusIS6_EEEEEED2Ev, symObjAddr: 0xB20D4, symBinAddr: 0xAF250, symSize: 0x44 }
  - { offset: 0x76649F, size: 0x8, addend: 0x0, symName: __ZN6twitch15CompositionPathIJNSt3__110shared_ptrINS_3BusINS_15AnalyticsSampleEEEEENS2_INS_13AnalyticsSinkEEENS2_INS_12SampleFilterIS4_EEEES6_EED2Ev, symObjAddr: 0xB2118, symBinAddr: 0xAF294, symSize: 0x4C }
  - { offset: 0x76672A, size: 0x8, addend: 0x0, symName: __ZN6twitch17AnalyticsPipeline16teardownInternalEv, symObjAddr: 0xB132C, symBinAddr: 0xAE554, symSize: 0x254 }
  - { offset: 0x767B60, size: 0x8, addend: 0x0, symName: __ZN6twitch15CompositionPathIJNSt3__110shared_ptrINS_8ReceiverINS_15AnalyticsSampleENS_5ErrorEEEEENS2_INS_12SampleFilterIS4_EEEENS2_INS_3BusIS4_EEEEEED2Ev, symObjAddr: 0xB1A2C, symBinAddr: 0xAEC54, symSize: 0x44 }
  - { offset: 0x767CEB, size: 0x8, addend: 0x0, symName: __ZThn152_N6twitch17AnalyticsPipelineD1Ev, symObjAddr: 0xB1884, symBinAddr: 0xAEAAC, symSize: 0x8 }
  - { offset: 0x767D47, size: 0x8, addend: 0x0, symName: __ZThn152_N6twitch17AnalyticsPipelineD0Ev, symObjAddr: 0xB188C, symBinAddr: 0xAEAB4, symSize: 0x18 }
  - { offset: 0x767DA7, size: 0x8, addend: 0x0, symName: __ZThn160_N6twitch17AnalyticsPipelineD1Ev, symObjAddr: 0xB18A4, symBinAddr: 0xAEACC, symSize: 0x8 }
  - { offset: 0x767DE9, size: 0x8, addend: 0x0, symName: __ZThn160_N6twitch17AnalyticsPipelineD0Ev, symObjAddr: 0xB18AC, symBinAddr: 0xAEAD4, symSize: 0x18 }
  - { offset: 0x768422, size: 0x8, addend: 0x0, symName: __ZNSt3__120__shared_ptr_pointerIPN6twitch15CompositionPathIJNS_10shared_ptrINS1_8ReceiverINS1_15AnalyticsSampleENS1_5ErrorEEEEENS3_INS1_12SampleFilterIS5_EEEENS3_INS1_3BusIS5_EEEEEEENS_14default_deleteISF_EENS_9allocatorISF_EEED1Ev, symObjAddr: 0xB1AC0, symBinAddr: 0xAEC98, symSize: 0x4 }
  - { offset: 0x768446, size: 0x8, addend: 0x0, symName: __ZNSt3__120__shared_ptr_pointerIPN6twitch15CompositionPathIJNS_10shared_ptrINS1_8ReceiverINS1_15AnalyticsSampleENS1_5ErrorEEEEENS3_INS1_12SampleFilterIS5_EEEENS3_INS1_3BusIS5_EEEEEEENS_14default_deleteISF_EENS_9allocatorISF_EEED1Ev, symObjAddr: 0xB1AC0, symBinAddr: 0xAEC98, symSize: 0x4 }
  - { offset: 0x76847D, size: 0x8, addend: 0x0, symName: __ZNSt3__120__shared_ptr_pointerIPN6twitch15CompositionPathIJNS_10shared_ptrINS1_8ReceiverINS1_15AnalyticsSampleENS1_5ErrorEEEEENS3_INS1_12SampleFilterIS5_EEEENS3_INS1_3BusIS5_EEEEEEENS_14default_deleteISF_EENS_9allocatorISF_EEED0Ev, symObjAddr: 0xB1AC4, symBinAddr: 0xAEC9C, symSize: 0x14 }
  - { offset: 0x76850C, size: 0x8, addend: 0x0, symName: __ZNSt3__120__shared_ptr_pointerIPN6twitch15CompositionPathIJNS_10shared_ptrINS1_8ReceiverINS1_15AnalyticsSampleENS1_5ErrorEEEEENS3_INS1_12SampleFilterIS5_EEEENS3_INS1_3BusIS5_EEEEEEENS_14default_deleteISF_EENS_9allocatorISF_EEE16__on_zero_sharedEv, symObjAddr: 0xB1AD8, symBinAddr: 0xAECB0, symSize: 0x18 }
  - { offset: 0x768592, size: 0x8, addend: 0x0, symName: __ZNSt3__120__shared_ptr_pointerIPN6twitch15CompositionPathIJNS_10shared_ptrINS1_8ReceiverINS1_15AnalyticsSampleENS1_5ErrorEEEEENS3_INS1_12SampleFilterIS5_EEEENS3_INS1_3BusIS5_EEEEEEENS_14default_deleteISF_EENS_9allocatorISF_EEE21__on_zero_shared_weakEv, symObjAddr: 0xB1AF0, symBinAddr: 0xAECC8, symSize: 0x4 }
  - { offset: 0x7685C7, size: 0x8, addend: 0x0, symName: __ZNSt3__120__shared_ptr_pointerIPN6twitch15CompositionPathIJNS_10shared_ptrINS1_8ReceiverINS1_15AnalyticsSampleENS1_5ErrorEEEEENS3_INS1_12SampleFilterIS5_EEEENS3_INS1_3BusIS5_EEEEEEENS_14default_deleteISF_EENS_9allocatorISF_EEE21__on_zero_shared_weakEv, symObjAddr: 0xB1AF0, symBinAddr: 0xAECC8, symSize: 0x4 }
  - { offset: 0x7685EB, size: 0x8, addend: 0x0, symName: __ZNSt3__120__shared_ptr_pointerIPN6twitch15CompositionPathIJNS_10shared_ptrINS1_8ReceiverINS1_15AnalyticsSampleENS1_5ErrorEEEEENS3_INS1_12SampleFilterIS5_EEEENS3_INS1_3BusIS5_EEEEEEENS_14default_deleteISF_EENS_9allocatorISF_EEE21__on_zero_shared_weakEv, symObjAddr: 0xB1AF0, symBinAddr: 0xAECC8, symSize: 0x4 }
  - { offset: 0x76861A, size: 0x8, addend: 0x0, symName: __ZNSt3__120__shared_ptr_pointerIPN6twitch15CompositionPathIJNS_10shared_ptrINS1_8ReceiverINS1_15AnalyticsSampleENS1_5ErrorEEEEENS3_INS1_12SampleFilterIS5_EEEENS3_INS1_3BusIS5_EEEEEEENS_14default_deleteISF_EENS_9allocatorISF_EEE21__on_zero_shared_weakEv, symObjAddr: 0xB1AF0, symBinAddr: 0xAECC8, symSize: 0x4 }
  - { offset: 0x768643, size: 0x8, addend: 0x0, symName: __ZNSt3__120__shared_ptr_pointerIPN6twitch15CompositionPathIJNS_10shared_ptrINS1_8ReceiverINS1_15AnalyticsSampleENS1_5ErrorEEEEENS3_INS1_12SampleFilterIS5_EEEENS3_INS1_3BusIS5_EEEEEEENS_14default_deleteISF_EENS_9allocatorISF_EEE21__on_zero_shared_weakEv, symObjAddr: 0xB1AF0, symBinAddr: 0xAECC8, symSize: 0x4 }
  - { offset: 0x76866E, size: 0x8, addend: 0x0, symName: __ZN6twitch15CompositionPathIJNSt3__110shared_ptrINS_8ReceiverINS_15AnalyticsSampleENS_5ErrorEEEEENS2_INS_12SampleFilterIS4_EEEENS2_INS_3BusIS4_EEEEEED1Ev, symObjAddr: 0xB1AF4, symBinAddr: 0xAECCC, symSize: 0x4 }
  - { offset: 0x768692, size: 0x8, addend: 0x0, symName: __ZN6twitch15CompositionPathIJNSt3__110shared_ptrINS_8ReceiverINS_15AnalyticsSampleENS_5ErrorEEEEENS2_INS_12SampleFilterIS4_EEEENS2_INS_3BusIS4_EEEEEED1Ev, symObjAddr: 0xB1AF4, symBinAddr: 0xAECCC, symSize: 0x4 }
  - { offset: 0x76869D, size: 0x8, addend: 0x0, symName: __ZN6twitch15CompositionPathIJNSt3__110shared_ptrINS_8ReceiverINS_15AnalyticsSampleENS_5ErrorEEEEENS2_INS_12SampleFilterIS4_EEEENS2_INS_3BusIS4_EEEEEED0Ev, symObjAddr: 0xB1AF8, symBinAddr: 0xAECD0, symSize: 0x14 }
  - { offset: 0x7686F3, size: 0x8, addend: 0x0, symName: __ZN6twitch15CompositionPathIJNSt3__110shared_ptrINS_12SampleFilterINS_15AnalyticsSampleEEEEENS2_INS_3BusIS4_EEEEEED1Ev, symObjAddr: 0xB1B0C, symBinAddr: 0xAECE4, symSize: 0x3C }
  - { offset: 0x768849, size: 0x8, addend: 0x0, symName: __ZN6twitch15CompositionPathIJNSt3__110shared_ptrINS_12SampleFilterINS_15AnalyticsSampleEEEEENS2_INS_3BusIS4_EEEEEED0Ev, symObjAddr: 0xB1B48, symBinAddr: 0xAED20, symSize: 0x3C }
  - { offset: 0x7689C6, size: 0x8, addend: 0x0, symName: '__ZNSt3__110__function6__funcIZN6twitch17AnalyticsPipeline18attachSinkInternalERKNS_10shared_ptrINS2_8ReceiverINS2_15AnalyticsSampleENS2_5ErrorEEEEERKNS_12basic_stringIcNS_11char_traitsIcEENS_9allocatorIcEEEESJ_E3$_0NSF_ISK_EEFbRKS6_EED1Ev', symObjAddr: 0xB1BE0, symBinAddr: 0xAED5C, symSize: 0x4 }
  - { offset: 0x7689F1, size: 0x8, addend: 0x0, symName: '__ZNSt3__110__function6__funcIZN6twitch17AnalyticsPipeline18attachSinkInternalERKNS_10shared_ptrINS2_8ReceiverINS2_15AnalyticsSampleENS2_5ErrorEEEEERKNS_12basic_stringIcNS_11char_traitsIcEENS_9allocatorIcEEEESJ_E3$_0NSF_ISK_EEFbRKS6_EED0Ev', symObjAddr: 0xB1BE4, symBinAddr: 0xAED60, symSize: 0x4 }
  - { offset: 0x768AAC, size: 0x8, addend: 0x0, symName: '__ZNKSt3__110__function6__funcIZN6twitch17AnalyticsPipeline18attachSinkInternalERKNS_10shared_ptrINS2_8ReceiverINS2_15AnalyticsSampleENS2_5ErrorEEEEERKNS_12basic_stringIcNS_11char_traitsIcEENS_9allocatorIcEEEESJ_E3$_0NSF_ISK_EEFbRKS6_EE7__cloneEv', symObjAddr: 0xB1BE8, symBinAddr: 0xAED64, symSize: 0x24 }
  - { offset: 0x768B9A, size: 0x8, addend: 0x0, symName: '__ZNKSt3__110__function6__funcIZN6twitch17AnalyticsPipeline18attachSinkInternalERKNS_10shared_ptrINS2_8ReceiverINS2_15AnalyticsSampleENS2_5ErrorEEEEERKNS_12basic_stringIcNS_11char_traitsIcEENS_9allocatorIcEEEESJ_E3$_0NSF_ISK_EEFbRKS6_EE7__cloneEPNS0_6__baseISO_EE', symObjAddr: 0xB1C0C, symBinAddr: 0xAED88, symSize: 0x10 }
  - { offset: 0x768BC4, size: 0x8, addend: 0x0, symName: '__ZNKSt3__110__function6__funcIZN6twitch17AnalyticsPipeline18attachSinkInternalERKNS_10shared_ptrINS2_8ReceiverINS2_15AnalyticsSampleENS2_5ErrorEEEEERKNS_12basic_stringIcNS_11char_traitsIcEENS_9allocatorIcEEEESJ_E3$_0NSF_ISK_EEFbRKS6_EE7__cloneEPNS0_6__baseISO_EE', symObjAddr: 0xB1C0C, symBinAddr: 0xAED88, symSize: 0x10 }
  - { offset: 0x768BE2, size: 0x8, addend: 0x0, symName: '__ZNKSt3__110__function6__funcIZN6twitch17AnalyticsPipeline18attachSinkInternalERKNS_10shared_ptrINS2_8ReceiverINS2_15AnalyticsSampleENS2_5ErrorEEEEERKNS_12basic_stringIcNS_11char_traitsIcEENS_9allocatorIcEEEESJ_E3$_0NSF_ISK_EEFbRKS6_EE7__cloneEPNS0_6__baseISO_EE', symObjAddr: 0xB1C0C, symBinAddr: 0xAED88, symSize: 0x10 }
  - { offset: 0x768BFF, size: 0x8, addend: 0x0, symName: '__ZNSt3__110__function6__funcIZN6twitch17AnalyticsPipeline18attachSinkInternalERKNS_10shared_ptrINS2_8ReceiverINS2_15AnalyticsSampleENS2_5ErrorEEEEERKNS_12basic_stringIcNS_11char_traitsIcEENS_9allocatorIcEEEESJ_E3$_0NSF_ISK_EEFbRKS6_EE7destroyEv', symObjAddr: 0xB1C1C, symBinAddr: 0xAED98, symSize: 0x4 }
  - { offset: 0x768C52, size: 0x8, addend: 0x0, symName: '__ZNSt3__110__function6__funcIZN6twitch17AnalyticsPipeline18attachSinkInternalERKNS_10shared_ptrINS2_8ReceiverINS2_15AnalyticsSampleENS2_5ErrorEEEEERKNS_12basic_stringIcNS_11char_traitsIcEENS_9allocatorIcEEEESJ_E3$_0NSF_ISK_EEFbRKS6_EE18destroy_deallocateEv', symObjAddr: 0xB1C20, symBinAddr: 0xAED9C, symSize: 0x4 }
  - { offset: 0x768C89, size: 0x8, addend: 0x0, symName: '__ZNSt3__110__function6__funcIZN6twitch17AnalyticsPipeline18attachSinkInternalERKNS_10shared_ptrINS2_8ReceiverINS2_15AnalyticsSampleENS2_5ErrorEEEEERKNS_12basic_stringIcNS_11char_traitsIcEENS_9allocatorIcEEEESJ_E3$_0NSF_ISK_EEFbRKS6_EE18destroy_deallocateEv', symObjAddr: 0xB1C20, symBinAddr: 0xAED9C, symSize: 0x4 }
  - { offset: 0x768CAE, size: 0x8, addend: 0x0, symName: '__ZNSt3__110__function6__funcIZN6twitch17AnalyticsPipeline18attachSinkInternalERKNS_10shared_ptrINS2_8ReceiverINS2_15AnalyticsSampleENS2_5ErrorEEEEERKNS_12basic_stringIcNS_11char_traitsIcEENS_9allocatorIcEEEESJ_E3$_0NSF_ISK_EEFbRKS6_EE18destroy_deallocateEv', symObjAddr: 0xB1C20, symBinAddr: 0xAED9C, symSize: 0x4 }
  - { offset: 0x768CDD, size: 0x8, addend: 0x0, symName: '__ZNSt3__110__function6__funcIZN6twitch17AnalyticsPipeline18attachSinkInternalERKNS_10shared_ptrINS2_8ReceiverINS2_15AnalyticsSampleENS2_5ErrorEEEEERKNS_12basic_stringIcNS_11char_traitsIcEENS_9allocatorIcEEEESJ_E3$_0NSF_ISK_EEFbRKS6_EE18destroy_deallocateEv', symObjAddr: 0xB1C20, symBinAddr: 0xAED9C, symSize: 0x4 }
  - { offset: 0x768D06, size: 0x8, addend: 0x0, symName: '__ZNSt3__110__function6__funcIZN6twitch17AnalyticsPipeline18attachSinkInternalERKNS_10shared_ptrINS2_8ReceiverINS2_15AnalyticsSampleENS2_5ErrorEEEEERKNS_12basic_stringIcNS_11char_traitsIcEENS_9allocatorIcEEEESJ_E3$_0NSF_ISK_EEFbRKS6_EE18destroy_deallocateEv', symObjAddr: 0xB1C20, symBinAddr: 0xAED9C, symSize: 0x4 }
  - { offset: 0x768DE4, size: 0x8, addend: 0x0, symName: '__ZNSt3__110__function6__funcIZN6twitch17AnalyticsPipeline18attachSinkInternalERKNS_10shared_ptrINS2_8ReceiverINS2_15AnalyticsSampleENS2_5ErrorEEEEERKNS_12basic_stringIcNS_11char_traitsIcEENS_9allocatorIcEEEESJ_E3$_0NSF_ISK_EEFbRKS6_EEclESN_', symObjAddr: 0xB1C24, symBinAddr: 0xAEDA0, symSize: 0x90 }
  - { offset: 0x768FBF, size: 0x8, addend: 0x0, symName: __ZN6twitch12SampleFilterINS_15AnalyticsSampleEED1Ev, symObjAddr: 0xB1CB4, symBinAddr: 0xAEE30, symSize: 0x58 }
  - { offset: 0x7690A9, size: 0x8, addend: 0x0, symName: __ZN6twitch12SampleFilterINS_15AnalyticsSampleEED0Ev, symObjAddr: 0xB1D0C, symBinAddr: 0xAEE88, symSize: 0x14 }
  - { offset: 0x769398, size: 0x8, addend: 0x0, symName: __ZN6twitch12SampleFilterINS_15AnalyticsSampleEE7receiveERKS1_, symObjAddr: 0xB1D20, symBinAddr: 0xAEE9C, symSize: 0x350 }
  - { offset: 0x76A72A, size: 0x8, addend: 0x0, symName: __ZThn24_N6twitch12SampleFilterINS_15AnalyticsSampleEE7receiveERKS1_, symObjAddr: 0xB2070, symBinAddr: 0xAF1EC, symSize: 0x8 }
  - { offset: 0x76A74F, size: 0x8, addend: 0x0, symName: __ZThn24_N6twitch12SampleFilterINS_15AnalyticsSampleEED1Ev, symObjAddr: 0xB2078, symBinAddr: 0xAF1F4, symSize: 0x8 }
  - { offset: 0x76A78E, size: 0x8, addend: 0x0, symName: __ZThn24_N6twitch12SampleFilterINS_15AnalyticsSampleEED0Ev, symObjAddr: 0xB2080, symBinAddr: 0xAF1FC, symSize: 0x18 }
  - { offset: 0x76A7EC, size: 0x8, addend: 0x0, symName: __ZNSt3__120__shared_ptr_emplaceIN6twitch12SampleFilterINS1_15AnalyticsSampleEEENS_9allocatorIS4_EEED1Ev, symObjAddr: 0xB2098, symBinAddr: 0xAF214, symSize: 0x10 }
  - { offset: 0x76A810, size: 0x8, addend: 0x0, symName: __ZNSt3__120__shared_ptr_emplaceIN6twitch12SampleFilterINS1_15AnalyticsSampleEEENS_9allocatorIS4_EEED1Ev, symObjAddr: 0xB2098, symBinAddr: 0xAF214, symSize: 0x10 }
  - { offset: 0x76A847, size: 0x8, addend: 0x0, symName: __ZNSt3__120__shared_ptr_emplaceIN6twitch12SampleFilterINS1_15AnalyticsSampleEEENS_9allocatorIS4_EEED0Ev, symObjAddr: 0xB20A8, symBinAddr: 0xAF224, symSize: 0x20 }
  - { offset: 0x76A92C, size: 0x8, addend: 0x0, symName: __ZNSt3__120__shared_ptr_emplaceIN6twitch12SampleFilterINS1_15AnalyticsSampleEEENS_9allocatorIS4_EEE16__on_zero_sharedEv, symObjAddr: 0xB20C8, symBinAddr: 0xAF244, symSize: 0x8 }
  - { offset: 0x76A956, size: 0x8, addend: 0x0, symName: __ZNSt3__120__shared_ptr_emplaceIN6twitch12SampleFilterINS1_15AnalyticsSampleEEENS_9allocatorIS4_EEE16__on_zero_sharedEv, symObjAddr: 0xB20C8, symBinAddr: 0xAF244, symSize: 0x8 }
  - { offset: 0x76A976, size: 0x8, addend: 0x0, symName: __ZNSt3__120__shared_ptr_emplaceIN6twitch12SampleFilterINS1_15AnalyticsSampleEEENS_9allocatorIS4_EEE16__on_zero_sharedEv, symObjAddr: 0xB20C8, symBinAddr: 0xAF244, symSize: 0x8 }
  - { offset: 0x76AA3C, size: 0x8, addend: 0x0, symName: __ZNSt3__120__shared_ptr_emplaceIN6twitch12SampleFilterINS1_15AnalyticsSampleEEENS_9allocatorIS4_EEE21__on_zero_shared_weakEv, symObjAddr: 0xB20D0, symBinAddr: 0xAF24C, symSize: 0x4 }
  - { offset: 0x76AA71, size: 0x8, addend: 0x0, symName: __ZNSt3__120__shared_ptr_emplaceIN6twitch12SampleFilterINS1_15AnalyticsSampleEEENS_9allocatorIS4_EEE21__on_zero_shared_weakEv, symObjAddr: 0xB20D0, symBinAddr: 0xAF24C, symSize: 0x4 }
  - { offset: 0x76AA96, size: 0x8, addend: 0x0, symName: __ZNSt3__120__shared_ptr_emplaceIN6twitch12SampleFilterINS1_15AnalyticsSampleEEENS_9allocatorIS4_EEE21__on_zero_shared_weakEv, symObjAddr: 0xB20D0, symBinAddr: 0xAF24C, symSize: 0x4 }
  - { offset: 0x76AABB, size: 0x8, addend: 0x0, symName: __ZNSt3__120__shared_ptr_emplaceIN6twitch12SampleFilterINS1_15AnalyticsSampleEEENS_9allocatorIS4_EEE21__on_zero_shared_weakEv, symObjAddr: 0xB20D0, symBinAddr: 0xAF24C, symSize: 0x4 }
  - { offset: 0x76AAEB, size: 0x8, addend: 0x0, symName: __ZNSt3__120__shared_ptr_emplaceIN6twitch12SampleFilterINS1_15AnalyticsSampleEEENS_9allocatorIS4_EEE21__on_zero_shared_weakEv, symObjAddr: 0xB20D0, symBinAddr: 0xAF24C, symSize: 0x4 }
  - { offset: 0x76AB15, size: 0x8, addend: 0x0, symName: __ZNSt3__120__shared_ptr_emplaceIN6twitch12SampleFilterINS1_15AnalyticsSampleEEENS_9allocatorIS4_EEE21__on_zero_shared_weakEv, symObjAddr: 0xB20D0, symBinAddr: 0xAF24C, symSize: 0x4 }
  - { offset: 0x76ACD9, size: 0x8, addend: 0x0, symName: __ZNSt3__120__shared_ptr_pointerIPN6twitch15CompositionPathIJNS_10shared_ptrINS1_3BusINS1_15AnalyticsSampleEEEEENS3_INS1_13AnalyticsSinkEEENS3_INS1_12SampleFilterIS5_EEEES7_EEENS_14default_deleteISD_EENS_9allocatorISD_EEED1Ev, symObjAddr: 0xB2164, symBinAddr: 0xAF2E0, symSize: 0x4 }
  - { offset: 0x76ACFD, size: 0x8, addend: 0x0, symName: __ZNSt3__120__shared_ptr_pointerIPN6twitch15CompositionPathIJNS_10shared_ptrINS1_3BusINS1_15AnalyticsSampleEEEEENS3_INS1_13AnalyticsSinkEEENS3_INS1_12SampleFilterIS5_EEEES7_EEENS_14default_deleteISD_EENS_9allocatorISD_EEED1Ev, symObjAddr: 0xB2164, symBinAddr: 0xAF2E0, symSize: 0x4 }
  - { offset: 0x76AD34, size: 0x8, addend: 0x0, symName: __ZNSt3__120__shared_ptr_pointerIPN6twitch15CompositionPathIJNS_10shared_ptrINS1_3BusINS1_15AnalyticsSampleEEEEENS3_INS1_13AnalyticsSinkEEENS3_INS1_12SampleFilterIS5_EEEES7_EEENS_14default_deleteISD_EENS_9allocatorISD_EEED0Ev, symObjAddr: 0xB2168, symBinAddr: 0xAF2E4, symSize: 0x14 }
  - { offset: 0x76ADC3, size: 0x8, addend: 0x0, symName: __ZNSt3__120__shared_ptr_pointerIPN6twitch15CompositionPathIJNS_10shared_ptrINS1_3BusINS1_15AnalyticsSampleEEEEENS3_INS1_13AnalyticsSinkEEENS3_INS1_12SampleFilterIS5_EEEES7_EEENS_14default_deleteISD_EENS_9allocatorISD_EEE16__on_zero_sharedEv, symObjAddr: 0xB217C, symBinAddr: 0xAF2F8, symSize: 0x18 }
  - { offset: 0x76AE49, size: 0x8, addend: 0x0, symName: __ZNSt3__120__shared_ptr_pointerIPN6twitch15CompositionPathIJNS_10shared_ptrINS1_3BusINS1_15AnalyticsSampleEEEEENS3_INS1_13AnalyticsSinkEEENS3_INS1_12SampleFilterIS5_EEEES7_EEENS_14default_deleteISD_EENS_9allocatorISD_EEE21__on_zero_shared_weakEv, symObjAddr: 0xB2194, symBinAddr: 0xAF310, symSize: 0x4 }
  - { offset: 0x76AE7E, size: 0x8, addend: 0x0, symName: __ZNSt3__120__shared_ptr_pointerIPN6twitch15CompositionPathIJNS_10shared_ptrINS1_3BusINS1_15AnalyticsSampleEEEEENS3_INS1_13AnalyticsSinkEEENS3_INS1_12SampleFilterIS5_EEEES7_EEENS_14default_deleteISD_EENS_9allocatorISD_EEE21__on_zero_shared_weakEv, symObjAddr: 0xB2194, symBinAddr: 0xAF310, symSize: 0x4 }
  - { offset: 0x76AEA2, size: 0x8, addend: 0x0, symName: __ZNSt3__120__shared_ptr_pointerIPN6twitch15CompositionPathIJNS_10shared_ptrINS1_3BusINS1_15AnalyticsSampleEEEEENS3_INS1_13AnalyticsSinkEEENS3_INS1_12SampleFilterIS5_EEEES7_EEENS_14default_deleteISD_EENS_9allocatorISD_EEE21__on_zero_shared_weakEv, symObjAddr: 0xB2194, symBinAddr: 0xAF310, symSize: 0x4 }
  - { offset: 0x76AED1, size: 0x8, addend: 0x0, symName: __ZNSt3__120__shared_ptr_pointerIPN6twitch15CompositionPathIJNS_10shared_ptrINS1_3BusINS1_15AnalyticsSampleEEEEENS3_INS1_13AnalyticsSinkEEENS3_INS1_12SampleFilterIS5_EEEES7_EEENS_14default_deleteISD_EENS_9allocatorISD_EEE21__on_zero_shared_weakEv, symObjAddr: 0xB2194, symBinAddr: 0xAF310, symSize: 0x4 }
  - { offset: 0x76AEFA, size: 0x8, addend: 0x0, symName: __ZNSt3__120__shared_ptr_pointerIPN6twitch15CompositionPathIJNS_10shared_ptrINS1_3BusINS1_15AnalyticsSampleEEEEENS3_INS1_13AnalyticsSinkEEENS3_INS1_12SampleFilterIS5_EEEES7_EEENS_14default_deleteISD_EENS_9allocatorISD_EEE21__on_zero_shared_weakEv, symObjAddr: 0xB2194, symBinAddr: 0xAF310, symSize: 0x4 }
  - { offset: 0x76AF25, size: 0x8, addend: 0x0, symName: __ZN6twitch15CompositionPathIJNSt3__110shared_ptrINS_3BusINS_15AnalyticsSampleEEEEENS2_INS_13AnalyticsSinkEEENS2_INS_12SampleFilterIS4_EEEES6_EED1Ev, symObjAddr: 0xB2198, symBinAddr: 0xAF314, symSize: 0x4 }
  - { offset: 0x76AF49, size: 0x8, addend: 0x0, symName: __ZN6twitch15CompositionPathIJNSt3__110shared_ptrINS_3BusINS_15AnalyticsSampleEEEEENS2_INS_13AnalyticsSinkEEENS2_INS_12SampleFilterIS4_EEEES6_EED1Ev, symObjAddr: 0xB2198, symBinAddr: 0xAF314, symSize: 0x4 }
  - { offset: 0x76AF54, size: 0x8, addend: 0x0, symName: __ZN6twitch15CompositionPathIJNSt3__110shared_ptrINS_3BusINS_15AnalyticsSampleEEEEENS2_INS_13AnalyticsSinkEEENS2_INS_12SampleFilterIS4_EEEES6_EED0Ev, symObjAddr: 0xB219C, symBinAddr: 0xAF318, symSize: 0x14 }
  - { offset: 0x76AFAA, size: 0x8, addend: 0x0, symName: __ZN6twitch21SystemResourceMonitorD1Ev, symObjAddr: 0xB21B0, symBinAddr: 0xAF32C, symSize: 0x4 }
  - { offset: 0x76AFCE, size: 0x8, addend: 0x0, symName: __ZN6twitch21SystemResourceMonitorD1Ev, symObjAddr: 0xB21B0, symBinAddr: 0xAF32C, symSize: 0x4 }
  - { offset: 0x76AFD9, size: 0x8, addend: 0x0, symName: __ZN6twitch21SystemResourceMonitorD2Ev, symObjAddr: 0xB21C8, symBinAddr: 0xAF344, symSize: 0x94 }
  - { offset: 0x76B332, size: 0x8, addend: 0x0, symName: __ZN6twitch21SystemResourceMonitorD0Ev, symObjAddr: 0xB21B4, symBinAddr: 0xAF330, symSize: 0x14 }
  - { offset: 0x76B4CD, size: 0x8, addend: 0x0, symName: __ZN6twitch15CompositionPathIJNSt3__110shared_ptrINS_13AnalyticsSinkEEENS2_INS_12SampleFilterINS_15AnalyticsSampleEEEEENS2_INS_3BusIS6_EEEEEED1Ev, symObjAddr: 0xB225C, symBinAddr: 0xAF3D8, symSize: 0x4 }
  - { offset: 0x76B4F1, size: 0x8, addend: 0x0, symName: __ZN6twitch15CompositionPathIJNSt3__110shared_ptrINS_13AnalyticsSinkEEENS2_INS_12SampleFilterINS_15AnalyticsSampleEEEEENS2_INS_3BusIS6_EEEEEED1Ev, symObjAddr: 0xB225C, symBinAddr: 0xAF3D8, symSize: 0x4 }
  - { offset: 0x76B4FC, size: 0x8, addend: 0x0, symName: __ZN6twitch15CompositionPathIJNSt3__110shared_ptrINS_13AnalyticsSinkEEENS2_INS_12SampleFilterINS_15AnalyticsSampleEEEEENS2_INS_3BusIS6_EEEEEED0Ev, symObjAddr: 0xB2260, symBinAddr: 0xAF3DC, symSize: 0x14 }
  - { offset: 0x76B632, size: 0x8, addend: 0x0, symName: __ZNSt3__110__function6__funcIZN6twitch12SampleFilterINS2_15AnalyticsSampleEEC1ERKNS_12basic_stringIcNS_11char_traitsIcEENS_9allocatorIcEEEENS2_16SampleFilterModeEEUlRKS4_E_NS9_ISH_EEFbSG_EED1Ev, symObjAddr: 0xB2274, symBinAddr: 0xAF3F0, symSize: 0x3C }
  - { offset: 0x76B8A7, size: 0x8, addend: 0x0, symName: __ZNSt3__110__function6__funcIZN6twitch12SampleFilterINS2_15AnalyticsSampleEEC1ERKNS_12basic_stringIcNS_11char_traitsIcEENS_9allocatorIcEEEENS2_16SampleFilterModeEEUlRKS4_E_NS9_ISH_EEFbSG_EED0Ev, symObjAddr: 0xB22B0, symBinAddr: 0xAF42C, symSize: 0x3C }
  - { offset: 0x76BD2B, size: 0x8, addend: 0x0, symName: __ZNKSt3__110__function6__funcIZN6twitch12SampleFilterINS2_15AnalyticsSampleEEC1ERKNS_12basic_stringIcNS_11char_traitsIcEENS_9allocatorIcEEEENS2_16SampleFilterModeEEUlRKS4_E_NS9_ISH_EEFbSG_EE7__cloneEv, symObjAddr: 0xB22EC, symBinAddr: 0xAF468, symSize: 0x60 }
  - { offset: 0x76C0F1, size: 0x8, addend: 0x0, symName: __ZNKSt3__110__function6__funcIZN6twitch12SampleFilterINS2_15AnalyticsSampleEEC1ERKNS_12basic_stringIcNS_11char_traitsIcEENS_9allocatorIcEEEENS2_16SampleFilterModeEEUlRKS4_E_NS9_ISH_EEFbSG_EE7__cloneEPNS0_6__baseISJ_EE, symObjAddr: 0xB234C, symBinAddr: 0xAF4C8, symSize: 0x3C }
  - { offset: 0x76C331, size: 0x8, addend: 0x0, symName: __ZNSt3__110__function6__funcIZN6twitch12SampleFilterINS2_15AnalyticsSampleEEC1ERKNS_12basic_stringIcNS_11char_traitsIcEENS_9allocatorIcEEEENS2_16SampleFilterModeEEUlRKS4_E_NS9_ISH_EEFbSG_EE7destroyEv, symObjAddr: 0xB2388, symBinAddr: 0xAF504, symSize: 0x14 }
  - { offset: 0x76C417, size: 0x8, addend: 0x0, symName: __ZNSt3__110__function6__funcIZN6twitch12SampleFilterINS2_15AnalyticsSampleEEC1ERKNS_12basic_stringIcNS_11char_traitsIcEENS_9allocatorIcEEEENS2_16SampleFilterModeEEUlRKS4_E_NS9_ISH_EEFbSG_EE7destroyEv, symObjAddr: 0xB2388, symBinAddr: 0xAF504, symSize: 0x14 }
  - { offset: 0x76C52D, size: 0x8, addend: 0x0, symName: __ZNSt3__110__function6__funcIZN6twitch12SampleFilterINS2_15AnalyticsSampleEEC1ERKNS_12basic_stringIcNS_11char_traitsIcEENS_9allocatorIcEEEENS2_16SampleFilterModeEEUlRKS4_E_NS9_ISH_EEFbSG_EE18destroy_deallocateEv, symObjAddr: 0xB239C, symBinAddr: 0xAF518, symSize: 0x30 }
  - { offset: 0x76C896, size: 0x8, addend: 0x0, symName: __ZNSt3__110__function6__funcIZN6twitch12SampleFilterINS2_15AnalyticsSampleEEC1ERKNS_12basic_stringIcNS_11char_traitsIcEENS_9allocatorIcEEEENS2_16SampleFilterModeEEUlRKS4_E_NS9_ISH_EEFbSG_EEclESG_, symObjAddr: 0xB23CC, symBinAddr: 0xAF548, symSize: 0xA0 }
  - { offset: 0x76CA99, size: 0x8, addend: 0x0, symName: '__ZNSt3__110__function6__funcIZN6twitch17AnalyticsPipeline15updateSessionIdERKNS_12basic_stringIcNS_11char_traitsIcEENS_9allocatorIcEEEEE3$_0NS7_ISC_EEFNS_10shared_ptrINS2_27GlobalAnalyticsSinkProviderEEEvEED1Ev', symObjAddr: 0xB246C, symBinAddr: 0xAF5E8, symSize: 0x4 }
  - { offset: 0x76CAC4, size: 0x8, addend: 0x0, symName: '__ZNSt3__110__function6__funcIZN6twitch17AnalyticsPipeline15updateSessionIdERKNS_12basic_stringIcNS_11char_traitsIcEENS_9allocatorIcEEEEE3$_0NS7_ISC_EEFNS_10shared_ptrINS2_27GlobalAnalyticsSinkProviderEEEvEED0Ev', symObjAddr: 0xB2470, symBinAddr: 0xAF5EC, symSize: 0x4 }
  - { offset: 0x76CCD8, size: 0x8, addend: 0x0, symName: '__ZNKSt3__110__function6__funcIZN6twitch17AnalyticsPipeline15updateSessionIdERKNS_12basic_stringIcNS_11char_traitsIcEENS_9allocatorIcEEEEE3$_0NS7_ISC_EEFNS_10shared_ptrINS2_27GlobalAnalyticsSinkProviderEEEvEE7__cloneEv', symObjAddr: 0xB2474, symBinAddr: 0xAF5F0, symSize: 0x34 }
  - { offset: 0x76CFF3, size: 0x8, addend: 0x0, symName: '__ZNKSt3__110__function6__funcIZN6twitch17AnalyticsPipeline15updateSessionIdERKNS_12basic_stringIcNS_11char_traitsIcEENS_9allocatorIcEEEEE3$_0NS7_ISC_EEFNS_10shared_ptrINS2_27GlobalAnalyticsSinkProviderEEEvEE7__cloneEPNS0_6__baseISH_EE', symObjAddr: 0xB24A8, symBinAddr: 0xAF624, symSize: 0x14 }
  - { offset: 0x76D02C, size: 0x8, addend: 0x0, symName: '__ZNKSt3__110__function6__funcIZN6twitch17AnalyticsPipeline15updateSessionIdERKNS_12basic_stringIcNS_11char_traitsIcEENS_9allocatorIcEEEEE3$_0NS7_ISC_EEFNS_10shared_ptrINS2_27GlobalAnalyticsSinkProviderEEEvEE7__cloneEPNS0_6__baseISH_EE', symObjAddr: 0xB24A8, symBinAddr: 0xAF624, symSize: 0x14 }
  - { offset: 0x76D05E, size: 0x8, addend: 0x0, symName: '__ZNKSt3__110__function6__funcIZN6twitch17AnalyticsPipeline15updateSessionIdERKNS_12basic_stringIcNS_11char_traitsIcEENS_9allocatorIcEEEEE3$_0NS7_ISC_EEFNS_10shared_ptrINS2_27GlobalAnalyticsSinkProviderEEEvEE7__cloneEPNS0_6__baseISH_EE', symObjAddr: 0xB24A8, symBinAddr: 0xAF624, symSize: 0x14 }
  - { offset: 0x76D090, size: 0x8, addend: 0x0, symName: '__ZNKSt3__110__function6__funcIZN6twitch17AnalyticsPipeline15updateSessionIdERKNS_12basic_stringIcNS_11char_traitsIcEENS_9allocatorIcEEEEE3$_0NS7_ISC_EEFNS_10shared_ptrINS2_27GlobalAnalyticsSinkProviderEEEvEE7__cloneEPNS0_6__baseISH_EE', symObjAddr: 0xB24A8, symBinAddr: 0xAF624, symSize: 0x14 }
  - { offset: 0x76D0A6, size: 0x8, addend: 0x0, symName: '__ZNKSt3__110__function6__funcIZN6twitch17AnalyticsPipeline15updateSessionIdERKNS_12basic_stringIcNS_11char_traitsIcEENS_9allocatorIcEEEEE3$_0NS7_ISC_EEFNS_10shared_ptrINS2_27GlobalAnalyticsSinkProviderEEEvEE7__cloneEPNS0_6__baseISH_EE', symObjAddr: 0xB24A8, symBinAddr: 0xAF624, symSize: 0x14 }
  - { offset: 0x76D0BB, size: 0x8, addend: 0x0, symName: '__ZNKSt3__110__function6__funcIZN6twitch17AnalyticsPipeline15updateSessionIdERKNS_12basic_stringIcNS_11char_traitsIcEENS_9allocatorIcEEEEE3$_0NS7_ISC_EEFNS_10shared_ptrINS2_27GlobalAnalyticsSinkProviderEEEvEE7__cloneEPNS0_6__baseISH_EE', symObjAddr: 0xB24A8, symBinAddr: 0xAF624, symSize: 0x14 }
  - { offset: 0x76D0D0, size: 0x8, addend: 0x0, symName: '__ZNKSt3__110__function6__funcIZN6twitch17AnalyticsPipeline15updateSessionIdERKNS_12basic_stringIcNS_11char_traitsIcEENS_9allocatorIcEEEEE3$_0NS7_ISC_EEFNS_10shared_ptrINS2_27GlobalAnalyticsSinkProviderEEEvEE7__cloneEPNS0_6__baseISH_EE', symObjAddr: 0xB24A8, symBinAddr: 0xAF624, symSize: 0x14 }
  - { offset: 0x76D0E5, size: 0x8, addend: 0x0, symName: '__ZNKSt3__110__function6__funcIZN6twitch17AnalyticsPipeline15updateSessionIdERKNS_12basic_stringIcNS_11char_traitsIcEENS_9allocatorIcEEEEE3$_0NS7_ISC_EEFNS_10shared_ptrINS2_27GlobalAnalyticsSinkProviderEEEvEE7__cloneEPNS0_6__baseISH_EE', symObjAddr: 0xB24A8, symBinAddr: 0xAF624, symSize: 0x14 }
  - { offset: 0x76D0FD, size: 0x8, addend: 0x0, symName: '__ZNSt3__110__function6__funcIZN6twitch17AnalyticsPipeline15updateSessionIdERKNS_12basic_stringIcNS_11char_traitsIcEENS_9allocatorIcEEEEE3$_0NS7_ISC_EEFNS_10shared_ptrINS2_27GlobalAnalyticsSinkProviderEEEvEE7destroyEv', symObjAddr: 0xB24BC, symBinAddr: 0xAF638, symSize: 0x4 }
  - { offset: 0x76D150, size: 0x8, addend: 0x0, symName: '__ZNSt3__110__function6__funcIZN6twitch17AnalyticsPipeline15updateSessionIdERKNS_12basic_stringIcNS_11char_traitsIcEENS_9allocatorIcEEEEE3$_0NS7_ISC_EEFNS_10shared_ptrINS2_27GlobalAnalyticsSinkProviderEEEvEE18destroy_deallocateEv', symObjAddr: 0xB24C0, symBinAddr: 0xAF63C, symSize: 0x4 }
  - { offset: 0x76D187, size: 0x8, addend: 0x0, symName: '__ZNSt3__110__function6__funcIZN6twitch17AnalyticsPipeline15updateSessionIdERKNS_12basic_stringIcNS_11char_traitsIcEENS_9allocatorIcEEEEE3$_0NS7_ISC_EEFNS_10shared_ptrINS2_27GlobalAnalyticsSinkProviderEEEvEE18destroy_deallocateEv', symObjAddr: 0xB24C0, symBinAddr: 0xAF63C, symSize: 0x4 }
  - { offset: 0x76D1AC, size: 0x8, addend: 0x0, symName: '__ZNSt3__110__function6__funcIZN6twitch17AnalyticsPipeline15updateSessionIdERKNS_12basic_stringIcNS_11char_traitsIcEENS_9allocatorIcEEEEE3$_0NS7_ISC_EEFNS_10shared_ptrINS2_27GlobalAnalyticsSinkProviderEEEvEE18destroy_deallocateEv', symObjAddr: 0xB24C0, symBinAddr: 0xAF63C, symSize: 0x4 }
  - { offset: 0x76D1DB, size: 0x8, addend: 0x0, symName: '__ZNSt3__110__function6__funcIZN6twitch17AnalyticsPipeline15updateSessionIdERKNS_12basic_stringIcNS_11char_traitsIcEENS_9allocatorIcEEEEE3$_0NS7_ISC_EEFNS_10shared_ptrINS2_27GlobalAnalyticsSinkProviderEEEvEE18destroy_deallocateEv', symObjAddr: 0xB24C0, symBinAddr: 0xAF63C, symSize: 0x4 }
  - { offset: 0x76D204, size: 0x8, addend: 0x0, symName: '__ZNSt3__110__function6__funcIZN6twitch17AnalyticsPipeline15updateSessionIdERKNS_12basic_stringIcNS_11char_traitsIcEENS_9allocatorIcEEEEE3$_0NS7_ISC_EEFNS_10shared_ptrINS2_27GlobalAnalyticsSinkProviderEEEvEE18destroy_deallocateEv', symObjAddr: 0xB24C0, symBinAddr: 0xAF63C, symSize: 0x4 }
  - { offset: 0x76D28C, size: 0x8, addend: 0x0, symName: '__ZNSt3__110__function6__funcIZN6twitch17AnalyticsPipeline15updateSessionIdERKNS_12basic_stringIcNS_11char_traitsIcEENS_9allocatorIcEEEEE3$_0NS7_ISC_EEFNS_10shared_ptrINS2_27GlobalAnalyticsSinkProviderEEEvEEclEv', symObjAddr: 0xB24C4, symBinAddr: 0xAF640, symSize: 0x14 }
  - { offset: 0x76DBB9, size: 0x8, addend: 0x0, symName: __ZN6twitch3BusINS_15AnalyticsSampleEE7receiveERKS1_, symObjAddr: 0xB24D8, symBinAddr: 0xAF654, symSize: 0x718 }
  - { offset: 0x771171, size: 0x8, addend: 0x0, symName: __ZN6twitch3BusINS_15AnalyticsSampleEED1Ev, symObjAddr: 0xB2BF0, symBinAddr: 0xAFD6C, symSize: 0x64 }
  - { offset: 0x77117C, size: 0x8, addend: 0x0, symName: __ZNKSt3__111__copy_loopINS_17_ClassicAlgPolicyEEclB8nn180100IPNS_8weak_ptrIN6twitch8ReceiverINS5_15AnalyticsSampleENS5_5ErrorEEEEESB_SB_EENS_4pairIT_T1_EESD_T0_SE_, symObjAddr: 0xB3440, symBinAddr: 0xB0588, symSize: 0x6C }
  - { offset: 0x771326, size: 0x8, addend: 0x0, symName: __ZZN6twitch9BusHelperINS_15AnalyticsSampleEE20removeOutputListImplERNSt3__16vectorINS3_8weak_ptrINS_8ReceiverIS1_NS_5ErrorEEEEENS3_9allocatorIS9_EEEERKSC_ENKUlRT_E_clIS9_EEDaSH_, symObjAddr: 0xB32DC, symBinAddr: 0xB0424, symSize: 0x164 }
  - { offset: 0x771706, size: 0x8, addend: 0x0, symName: __ZNSt3__16vectorINS_8weak_ptrIN6twitch8ReceiverINS2_15AnalyticsSampleENS2_5ErrorEEEEENS_9allocatorIS7_EEE5eraseENS_11__wrap_iterIPKS7_EESE_, symObjAddr: 0xB31B0, symBinAddr: 0xB032C, symSize: 0x9C }
  - { offset: 0x7719BE, size: 0x8, addend: 0x0, symName: __ZNSt3__16vectorINS_8weak_ptrIN6twitch8ReceiverINS2_15AnalyticsSampleENS2_5ErrorEEEEENS_9allocatorIS7_EEE16__destroy_vectorclB8nn180100Ev, symObjAddr: 0xB3128, symBinAddr: 0xB02A4, symSize: 0x40 }
  - { offset: 0x771AB8, size: 0x8, addend: 0x0, symName: __ZN6twitch3BusINS_15AnalyticsSampleEED1Ev, symObjAddr: 0xB2BF0, symBinAddr: 0xAFD6C, symSize: 0x64 }
  - { offset: 0x771BC0, size: 0x8, addend: 0x0, symName: __ZN6twitch3BusINS_15AnalyticsSampleEED0Ev, symObjAddr: 0xB2C54, symBinAddr: 0xAFDD0, symSize: 0x64 }
  - { offset: 0x771F7F, size: 0x8, addend: 0x0, symName: __ZN6twitch3BusINS_15AnalyticsSampleEE9setOutputERKNSt3__110shared_ptrINS_8ReceiverIS1_NS_5ErrorEEEEE, symObjAddr: 0xB2CB8, symBinAddr: 0xAFE34, symSize: 0x12C }
  - { offset: 0x77261C, size: 0x8, addend: 0x0, symName: __ZN6twitch3BusINS_15AnalyticsSampleEE11unsetOutputERKNSt3__110shared_ptrINS_8ReceiverIS1_NS_5ErrorEEEEE, symObjAddr: 0xB2DE4, symBinAddr: 0xAFF60, symSize: 0x1B8 }
  - { offset: 0x772627, size: 0x8, addend: 0x0, symName: __ZNSt3__114__split_bufferINS_8weak_ptrIN6twitch8ReceiverINS2_15AnalyticsSampleENS2_5ErrorEEEEERNS_9allocatorIS7_EEED2Ev, symObjAddr: 0xB3280, symBinAddr: 0xB03C8, symSize: 0x5C }
  - { offset: 0x7728AD, size: 0x8, addend: 0x0, symName: __ZN6twitch3BusINS_15AnalyticsSampleEE11unsetOutputERKNSt3__110shared_ptrINS_8ReceiverIS1_NS_5ErrorEEEEE, symObjAddr: 0xB2DE4, symBinAddr: 0xAFF60, symSize: 0x1B8 }
  - { offset: 0x772D74, size: 0x8, addend: 0x0, symName: __ZThn8_N6twitch3BusINS_15AnalyticsSampleEE9setOutputERKNSt3__110shared_ptrINS_8ReceiverIS1_NS_5ErrorEEEEE, symObjAddr: 0xB2F9C, symBinAddr: 0xB0118, symSize: 0x8 }
  - { offset: 0x772D99, size: 0x8, addend: 0x0, symName: __ZThn8_N6twitch3BusINS_15AnalyticsSampleEE11unsetOutputERKNSt3__110shared_ptrINS_8ReceiverIS1_NS_5ErrorEEEEE, symObjAddr: 0xB2FA4, symBinAddr: 0xB0120, symSize: 0x8 }
  - { offset: 0x772DBE, size: 0x8, addend: 0x0, symName: __ZThn8_N6twitch3BusINS_15AnalyticsSampleEED1Ev, symObjAddr: 0xB2FAC, symBinAddr: 0xB0128, symSize: 0x58 }
  - { offset: 0x772ED9, size: 0x8, addend: 0x0, symName: __ZThn8_N6twitch3BusINS_15AnalyticsSampleEED0Ev, symObjAddr: 0xB3004, symBinAddr: 0xB0180, symSize: 0x68 }
  - { offset: 0x772FFA, size: 0x8, addend: 0x0, symName: __ZThn16_N6twitch3BusINS_15AnalyticsSampleEED1Ev, symObjAddr: 0xB306C, symBinAddr: 0xB01E8, symSize: 0x58 }
  - { offset: 0x7730FB, size: 0x8, addend: 0x0, symName: __ZThn16_N6twitch3BusINS_15AnalyticsSampleEED0Ev, symObjAddr: 0xB30C4, symBinAddr: 0xB0240, symSize: 0x64 }
  - { offset: 0x77327F, size: 0x8, addend: 0x0, symName: __ZNSt3__16vectorINS_8weak_ptrIN6twitch8ReceiverINS2_15AnalyticsSampleENS2_5ErrorEEEEENS_9allocatorIS7_EEE7__clearB8nn180100Ev, symObjAddr: 0xB3168, symBinAddr: 0xB02E4, symSize: 0x48 }
  - { offset: 0x7734E5, size: 0x8, addend: 0x0, symName: __ZNSt3__120__shared_ptr_emplaceIN6twitch3BusINS1_15AnalyticsSampleEEENS_9allocatorIS4_EEED1Ev, symObjAddr: 0xB34AC, symBinAddr: 0xB05F4, symSize: 0x10 }
  - { offset: 0x773509, size: 0x8, addend: 0x0, symName: __ZNSt3__120__shared_ptr_emplaceIN6twitch3BusINS1_15AnalyticsSampleEEENS_9allocatorIS4_EEED1Ev, symObjAddr: 0xB34AC, symBinAddr: 0xB05F4, symSize: 0x10 }
  - { offset: 0x773540, size: 0x8, addend: 0x0, symName: __ZNSt3__120__shared_ptr_emplaceIN6twitch3BusINS1_15AnalyticsSampleEEENS_9allocatorIS4_EEED0Ev, symObjAddr: 0xB34BC, symBinAddr: 0xB0604, symSize: 0x20 }
  - { offset: 0x77360F, size: 0x8, addend: 0x0, symName: __ZNSt3__120__shared_ptr_emplaceIN6twitch3BusINS1_15AnalyticsSampleEEENS_9allocatorIS4_EEE16__on_zero_sharedEv, symObjAddr: 0xB34DC, symBinAddr: 0xB0624, symSize: 0xC }
  - { offset: 0x773639, size: 0x8, addend: 0x0, symName: __ZNSt3__120__shared_ptr_emplaceIN6twitch3BusINS1_15AnalyticsSampleEEENS_9allocatorIS4_EEE16__on_zero_sharedEv, symObjAddr: 0xB34DC, symBinAddr: 0xB0624, symSize: 0xC }
  - { offset: 0x773659, size: 0x8, addend: 0x0, symName: __ZNSt3__120__shared_ptr_emplaceIN6twitch3BusINS1_15AnalyticsSampleEEENS_9allocatorIS4_EEE16__on_zero_sharedEv, symObjAddr: 0xB34DC, symBinAddr: 0xB0624, symSize: 0xC }
  - { offset: 0x773679, size: 0x8, addend: 0x0, symName: __ZNSt3__120__shared_ptr_emplaceIN6twitch3BusINS1_15AnalyticsSampleEEENS_9allocatorIS4_EEE16__on_zero_sharedEv, symObjAddr: 0xB34DC, symBinAddr: 0xB0624, symSize: 0xC }
  - { offset: 0x773702, size: 0x8, addend: 0x0, symName: __ZNSt3__120__shared_ptr_emplaceIN6twitch3BusINS1_15AnalyticsSampleEEENS_9allocatorIS4_EEE21__on_zero_shared_weakEv, symObjAddr: 0xB34E8, symBinAddr: 0xB0630, symSize: 0x4 }
  - { offset: 0x773737, size: 0x8, addend: 0x0, symName: __ZNSt3__120__shared_ptr_emplaceIN6twitch3BusINS1_15AnalyticsSampleEEENS_9allocatorIS4_EEE21__on_zero_shared_weakEv, symObjAddr: 0xB34E8, symBinAddr: 0xB0630, symSize: 0x4 }
  - { offset: 0x77375C, size: 0x8, addend: 0x0, symName: __ZNSt3__120__shared_ptr_emplaceIN6twitch3BusINS1_15AnalyticsSampleEEENS_9allocatorIS4_EEE21__on_zero_shared_weakEv, symObjAddr: 0xB34E8, symBinAddr: 0xB0630, symSize: 0x4 }
  - { offset: 0x773781, size: 0x8, addend: 0x0, symName: __ZNSt3__120__shared_ptr_emplaceIN6twitch3BusINS1_15AnalyticsSampleEEENS_9allocatorIS4_EEE21__on_zero_shared_weakEv, symObjAddr: 0xB34E8, symBinAddr: 0xB0630, symSize: 0x4 }
  - { offset: 0x7737B1, size: 0x8, addend: 0x0, symName: __ZNSt3__120__shared_ptr_emplaceIN6twitch3BusINS1_15AnalyticsSampleEEENS_9allocatorIS4_EEE21__on_zero_shared_weakEv, symObjAddr: 0xB34E8, symBinAddr: 0xB0630, symSize: 0x4 }
  - { offset: 0x7737DB, size: 0x8, addend: 0x0, symName: __ZNSt3__120__shared_ptr_emplaceIN6twitch3BusINS1_15AnalyticsSampleEEENS_9allocatorIS4_EEE21__on_zero_shared_weakEv, symObjAddr: 0xB34E8, symBinAddr: 0xB0630, symSize: 0x4 }
  - { offset: 0xBE0FF3, size: 0x8, addend: 0x0, symName: __ZN9resampler18PolyphaseResamplerD1Ev, symObjAddr: 0x155300, symBinAddr: 0x14DC00, symSize: 0x4 }
  - { offset: 0xBE1E55, size: 0x8, addend: 0x0, symName: __ZN9resampler18PolyphaseResamplerD1Ev, symObjAddr: 0x155300, symBinAddr: 0x14DC00, symSize: 0x4 }
  - { offset: 0xBE1E79, size: 0x8, addend: 0x0, symName: __ZN9resampler18PolyphaseResamplerD1Ev, symObjAddr: 0x155300, symBinAddr: 0x14DC00, symSize: 0x4 }
  - { offset: 0xBE1E97, size: 0x8, addend: 0x0, symName: __ZN9resampler18PolyphaseResamplerD1Ev, symObjAddr: 0x155300, symBinAddr: 0x14DC00, symSize: 0x4 }
  - { offset: 0xBE1EBE, size: 0x8, addend: 0x0, symName: __ZN9resampler18PolyphaseResamplerD0Ev, symObjAddr: 0x155304, symBinAddr: 0x14DC04, symSize: 0x14 }
  - { offset: 0xBE1F8A, size: 0x8, addend: 0x0, symName: __ZN9resampler18PolyphaseResampler9readFrameEPf, symObjAddr: 0x155318, symBinAddr: 0x14DC18, symSize: 0xF8 }
  - { offset: 0xBE2180, size: 0x8, addend: 0x0, symName: __ZN9resampler18PolyphaseResamplerC2ERKNS_21MultiChannelResampler7BuilderE, symObjAddr: 0x155410, symBinAddr: 0x14DD10, symSize: 0x54 }
  - { offset: 0x983AA3, size: 0x8, addend: 0x0, symName: __ZN6twitch3ios18MetalRenderContextD1Ev, symObjAddr: 0xE1C88, symBinAddr: 0xDC0E8, symSize: 0x4 }
  - { offset: 0x983AC7, size: 0x8, addend: 0x0, symName: __ZN6twitch3iosL8VerticesE, symObjAddr: 0x192880, symBinAddr: 0x1A9150, symSize: 0x0 }
  - { offset: 0x98808D, size: 0x8, addend: 0x0, symName: __ZNSt3__112construct_atB8nn180100IN6twitch3ios18MetalRenderContext18PendingInputSourceEJS4_EPS4_EEPT_S7_DpOT0_, symObjAddr: 0xE317C, symBinAddr: 0xDD5DC, symSize: 0x124 }
  - { offset: 0x9880B5, size: 0x8, addend: 0x0, symName: __ZNSt3__112construct_atB8nn180100IN6twitch3ios18MetalRenderContext18PendingInputSourceEJS4_EPS4_EEPT_S7_DpOT0_, symObjAddr: 0xE317C, symBinAddr: 0xDD5DC, symSize: 0x124 }
  - { offset: 0x9880DA, size: 0x8, addend: 0x0, symName: __ZNSt3__112construct_atB8nn180100IN6twitch3ios18MetalRenderContext18PendingInputSourceEJS4_EPS4_EEPT_S7_DpOT0_, symObjAddr: 0xE317C, symBinAddr: 0xDD5DC, symSize: 0x124 }
  - { offset: 0x9880FF, size: 0x8, addend: 0x0, symName: __ZNSt3__112construct_atB8nn180100IN6twitch3ios18MetalRenderContext18PendingInputSourceEJS4_EPS4_EEPT_S7_DpOT0_, symObjAddr: 0xE317C, symBinAddr: 0xDD5DC, symSize: 0x124 }
  - { offset: 0x988124, size: 0x8, addend: 0x0, symName: __ZNSt3__112construct_atB8nn180100IN6twitch3ios18MetalRenderContext18PendingInputSourceEJS4_EPS4_EEPT_S7_DpOT0_, symObjAddr: 0xE317C, symBinAddr: 0xDD5DC, symSize: 0x124 }
  - { offset: 0x988354, size: 0x8, addend: 0x0, symName: __ZNSt3__112__destroy_atB8nn180100IN6twitch3ios18MetalRenderContext18PendingInputSourceELi0EEEvPT_, symObjAddr: 0xE32A0, symBinAddr: 0xDD700, symSize: 0x88 }
  - { offset: 0x98A989, size: 0x8, addend: 0x0, symName: __ZNSt3__14pairINS_6vectorIU8__strongPU33objcproto22MTLRenderPipelineState11objc_objectNS_9allocatorIS4_EEEEN6twitch14BroadcastErrorEEC2B8nn180100IRS7_S9_Li0EEEOT_OT0_, symObjAddr: 0xE7078, symBinAddr: 0xE1370, symSize: 0xDC }
  - { offset: 0x98A9C6, size: 0x8, addend: 0x0, symName: __ZNSt3__112__destroy_atB8nn180100INS_4pairIKNS_12basic_stringIcNS_11char_traitsIcEENS_9allocatorIcEEEEU8__strongPU19objcproto9MTLBuffer11objc_objectEELi0EEEvPT_, symObjAddr: 0xE6FCC, symBinAddr: 0xE1334, symSize: 0x3C }
  - { offset: 0x98AB42, size: 0x8, addend: 0x0, symName: __ZNSt3__112__destroy_atB8nn180100INS_4pairIKNS_12basic_stringIcNS_11char_traitsIcEENS_9allocatorIcEEEENS_6vectorIU8__strongPU33objcproto22MTLRenderPipelineState11objc_objectNS5_ISC_EEEEEELi0EEEvPT_, symObjAddr: 0xE7280, symBinAddr: 0xE1528, symSize: 0x50 }
  - { offset: 0x98C1FE, size: 0x8, addend: 0x0, symName: __ZN6twitch3ios18MetalRenderContext4execERKNSt3__112basic_stringIcNS2_11char_traitsIcEENS2_9allocatorIcEEEENS2_8functionIFNS_5ErrorERNS_13RenderContextEEEE, symObjAddr: 0xE21FC, symBinAddr: 0xDC65C, symSize: 0x2D0 }
  - { offset: 0x98D267, size: 0x8, addend: 0x0, symName: __ZN6twitch3ios18MetalRenderContextD1Ev, symObjAddr: 0xE1C88, symBinAddr: 0xDC0E8, symSize: 0x4 }
  - { offset: 0x98D28B, size: 0x8, addend: 0x0, symName: __ZN6twitch3ios18MetalRenderContextD1Ev, symObjAddr: 0xE1C88, symBinAddr: 0xDC0E8, symSize: 0x4 }
  - { offset: 0x98D296, size: 0x8, addend: 0x0, symName: __ZN6twitch3ios18MetalRenderContextD2Ev, symObjAddr: 0xE73B4, symBinAddr: 0xE165C, symSize: 0x31C }
  - { offset: 0x98E79E, size: 0x8, addend: 0x0, symName: __ZN6twitch3ios18MetalRenderContextD0Ev, symObjAddr: 0xE1C8C, symBinAddr: 0xDC0EC, symSize: 0x14 }
  - { offset: 0x98ED96, size: 0x8, addend: 0x0, symName: __ZN6twitch3ios18MetalRenderContext5startEv, symObjAddr: 0xE1CA0, symBinAddr: 0xDC100, symSize: 0x55C }
  - { offset: 0x9912FF, size: 0x8, addend: 0x0, symName: __ZN6twitch3ios18MetalRenderContext5applyENSt3__112basic_stringIcNS2_11char_traitsIcEENS2_9allocatorIcEEEERKNS_13PictureSampleESB_b, symObjAddr: 0xE24CC, symBinAddr: 0xDC92C, symSize: 0x800 }
  - { offset: 0x99327C, size: 0x8, addend: 0x0, symName: __ZN6twitch3ios18MetalRenderContext5clearERKNS_13PictureSampleE, symObjAddr: 0xE2CCC, symBinAddr: 0xDD12C, symSize: 0x194 }
  - { offset: 0x993287, size: 0x8, addend: 0x0, symName: __ZN6twitch3ios18MetalRenderContext15startRenderPassERKNS_13PictureSampleE, symObjAddr: 0xE2EDC, symBinAddr: 0xDD33C, symSize: 0x2A0 }
  - { offset: 0x993BCD, size: 0x8, addend: 0x0, symName: __ZN6twitch3ios18MetalRenderContext5clearERKNS_13PictureSampleE, symObjAddr: 0xE2CCC, symBinAddr: 0xDD12C, symSize: 0x194 }
  - { offset: 0x994347, size: 0x8, addend: 0x0, symName: __ZN6twitch3ios18MetalRenderContext12rendererNameEv, symObjAddr: 0xE2E60, symBinAddr: 0xDD2C0, symSize: 0x7C }
  - { offset: 0x994556, size: 0x8, addend: 0x0, symName: '__ZNSt3__110__function6__funcIZN6twitch3ios18MetalRenderContext4execERKNS_12basic_stringIcNS_11char_traitsIcEENS_9allocatorIcEEEENS_8functionIFNS2_5ErrorERNS2_13RenderContextEEEEE3$_0NS8_ISJ_EEFvvEED1Ev', symObjAddr: 0xE3328, symBinAddr: 0xDD788, symSize: 0x74 }
  - { offset: 0x994890, size: 0x8, addend: 0x0, symName: '__ZNSt3__110__function6__funcIZN6twitch3ios18MetalRenderContext4execERKNS_12basic_stringIcNS_11char_traitsIcEENS_9allocatorIcEEEENS_8functionIFNS2_5ErrorERNS2_13RenderContextEEEEE3$_0NS8_ISJ_EEFvvEED0Ev', symObjAddr: 0xE339C, symBinAddr: 0xDD7FC, symSize: 0x74 }
  - { offset: 0x994D48, size: 0x8, addend: 0x0, symName: '__ZNKSt3__110__function6__funcIZN6twitch3ios18MetalRenderContext4execERKNS_12basic_stringIcNS_11char_traitsIcEENS_9allocatorIcEEEENS_8functionIFNS2_5ErrorERNS2_13RenderContextEEEEE3$_0NS8_ISJ_EEFvvEE7__cloneEv', symObjAddr: 0xE3410, symBinAddr: 0xDD870, symSize: 0x40 }
  - { offset: 0x994EF1, size: 0x8, addend: 0x0, symName: '__ZNSt3__122__compressed_pair_elemIZN6twitch3ios18MetalRenderContext4execERKNS_12basic_stringIcNS_11char_traitsIcEENS_9allocatorIcEEEENS_8functionIFNS1_5ErrorERNS1_13RenderContextEEEEE3$_0Li0ELb0EEC2B8nn180100IJRKSI_EJLm0EEEENS_21piecewise_construct_tENS_5tupleIJDpT_EEENS_15__tuple_indicesIJXspT0_EEEE', symObjAddr: 0xE733C, symBinAddr: 0xE15E4, symSize: 0x78 }
  - { offset: 0x9952C4, size: 0x8, addend: 0x0, symName: '__ZNKSt3__110__function6__funcIZN6twitch3ios18MetalRenderContext4execERKNS_12basic_stringIcNS_11char_traitsIcEENS_9allocatorIcEEEENS_8functionIFNS2_5ErrorERNS2_13RenderContextEEEEE3$_0NS8_ISJ_EEFvvEE7__cloneEPNS0_6__baseISL_EE', symObjAddr: 0xE3450, symBinAddr: 0xDD8B0, symSize: 0x1C }
  - { offset: 0x995427, size: 0x8, addend: 0x0, symName: '__ZNSt3__110__function6__funcIZN6twitch3ios18MetalRenderContext4execERKNS_12basic_stringIcNS_11char_traitsIcEENS_9allocatorIcEEEENS_8functionIFNS2_5ErrorERNS2_13RenderContextEEEEE3$_0NS8_ISJ_EEFvvEE7destroyEv', symObjAddr: 0xE346C, symBinAddr: 0xDD8CC, symSize: 0x8 }
  - { offset: 0x99545E, size: 0x8, addend: 0x0, symName: '__ZNSt3__110__function12__alloc_funcIZN6twitch3ios18MetalRenderContext4execERKNS_12basic_stringIcNS_11char_traitsIcEENS_9allocatorIcEEEENS_8functionIFNS2_5ErrorERNS2_13RenderContextEEEEE3$_0NS8_ISJ_EEFvvEE7destroyB8nn180100Ev', symObjAddr: 0xE72D0, symBinAddr: 0xE1578, symSize: 0x6C }
  - { offset: 0x9956FA, size: 0x8, addend: 0x0, symName: '__ZNSt3__110__function6__funcIZN6twitch3ios18MetalRenderContext4execERKNS_12basic_stringIcNS_11char_traitsIcEENS_9allocatorIcEEEENS_8functionIFNS2_5ErrorERNS2_13RenderContextEEEEE3$_0NS8_ISJ_EEFvvEE18destroy_deallocateEv', symObjAddr: 0xE3474, symBinAddr: 0xDD8D4, symSize: 0x28 }
  - { offset: 0x995A3E, size: 0x8, addend: 0x0, symName: '__ZNSt3__110__function6__funcIZN6twitch3ios18MetalRenderContext4execERKNS_12basic_stringIcNS_11char_traitsIcEENS_9allocatorIcEEEENS_8functionIFNS2_5ErrorERNS2_13RenderContextEEEEE3$_0NS8_ISJ_EEFvvEEclEv', symObjAddr: 0xE349C, symBinAddr: 0xDD8FC, symSize: 0x354 }
  - { offset: 0x996AB5, size: 0x8, addend: 0x0, symName: __ZN6twitch3ios18MetalRenderContext13endRenderPassERKNS_9MediaTimeERKNSt3__112basic_stringIcNS5_11char_traitsIcEENS5_9allocatorIcEEEENS5_10shared_ptrINS5_7promiseINS_5ErrorEEEEE, symObjAddr: 0xE37F0, symBinAddr: 0xDDC50, symSize: 0x16F4 }
  - { offset: 0x996AC8, size: 0x8, addend: 0x0, symName: __ZN6twitch3ios18MetalRenderContext13endRenderPassERKNS_9MediaTimeERKNSt3__112basic_stringIcNS5_11char_traitsIcEENS5_9allocatorIcEEEENS5_10shared_ptrINS5_7promiseINS_5ErrorEEEEE, symObjAddr: 0xE37F0, symBinAddr: 0xDDC50, symSize: 0x16F4 }
  - { offset: 0x99FBBB, size: 0x8, addend: 0x0, symName: __ZN6twitch3ios18MetalResourceCache20getMetalTextureCacheEv, symObjAddr: 0xE4EE4, symBinAddr: 0xDF344, symSize: 0x94 }
  - { offset: 0x9A0EFC, size: 0x8, addend: 0x0, symName: __ZN6twitch3ios18MetalResourceCache20getMetalTextureCacheEv, symObjAddr: 0xE4EE4, symBinAddr: 0xDF344, symSize: 0x94 }
  - { offset: 0x9A101C, size: 0x8, addend: 0x0, symName: __ZN6twitch3ios18MetalRenderContext11fillEncoderEPU34objcproto23MTLRenderCommandEncoder11objc_objectRKNS1_18PendingInputSourceERKNSt3__16vectorIU8__strongPU21objcproto10MTLTexture11objc_objectNS7_9allocatorISB_EEEEmm, symObjAddr: 0xE4F78, symBinAddr: 0xDF3D8, symSize: 0x1CA4 }
  - { offset: 0x9A90D1, size: 0x8, addend: 0x0, symName: ____ZN6twitch3ios18MetalRenderContext13endRenderPassERKNS_9MediaTimeERKNSt3__112basic_stringIcNS5_11char_traitsIcEENS5_9allocatorIcEEEENS5_10shared_ptrINS5_7promiseINS_5ErrorEEEEE_block_invoke, symObjAddr: 0xE6C1C, symBinAddr: 0xE107C, symSize: 0x8C }
  - { offset: 0x9AB0A5, size: 0x8, addend: 0x0, symName: __ZNSt3__14pairINS_6vectorIU8__strongPU33objcproto22MTLRenderPipelineState11objc_objectNS_9allocatorIS4_EEEEN6twitch14BroadcastErrorEEC2B8nn180100IRS7_S9_Li0EEEOT_OT0_, symObjAddr: 0xE7078, symBinAddr: 0xE1370, symSize: 0xDC }
  - { offset: 0x9AB41A, size: 0x8, addend: 0x0, symName: __ZNSt3__14pairINS_6vectorIU8__strongPU33objcproto22MTLRenderPipelineState11objc_objectNS_9allocatorIS4_EEEEN6twitch5ErrorEEC2B8nn180100IS7_NS8_14BroadcastErrorELi0EEEONS0_IT_T0_EE, symObjAddr: 0xE7154, symBinAddr: 0xE144C, symSize: 0xDC }
  - { offset: 0x9ABA23, size: 0x8, addend: 0x0, symName: ____ZN6twitch3ios18MetalRenderContext13endRenderPassERKNS_9MediaTimeERKNSt3__112basic_stringIcNS5_11char_traitsIcEENS5_9allocatorIcEEEENS5_10shared_ptrINS5_7promiseINS_5ErrorEEEEE_block_invoke, symObjAddr: 0xE6C1C, symBinAddr: 0xE107C, symSize: 0x8C }
  - { offset: 0x9ABBED, size: 0x8, addend: 0x0, symName: __ZNSt3__15dequeIU8__strongPU27objcproto16MTLCommandBuffer11objc_objectNS_9allocatorIS3_EEE9pop_frontEv, symObjAddr: 0xE6E10, symBinAddr: 0xE1270, symSize: 0x80 }
  - { offset: 0x9ABE71, size: 0x8, addend: 0x0, symName: ____ZN6twitch3ios18MetalRenderContext13endRenderPassERKNS_9MediaTimeERKNSt3__112basic_stringIcNS5_11char_traitsIcEENS5_9allocatorIcEEEENS5_10shared_ptrINS5_7promiseINS_5ErrorEEEEE_block_invoke.2, symObjAddr: 0xE6CA8, symBinAddr: 0xE1108, symSize: 0xC8 }
  - { offset: 0x9AC0AD, size: 0x8, addend: 0x0, symName: ___copy_helper_block_a8_40c66_ZTSNSt3__112basic_stringIcNS_11char_traitsIcEENS_9allocatorIcEEEE80c55_ZTSNSt3__110shared_ptrINS_7promiseIN6twitch5ErrorEEEEE, symObjAddr: 0xE6D70, symBinAddr: 0xE11D0, symSize: 0x64 }
  - { offset: 0x9AC0B8, size: 0x8, addend: 0x0, symName: ___copy_helper_block_a8_40c66_ZTSNSt3__112basic_stringIcNS_11char_traitsIcEENS_9allocatorIcEEEE80c55_ZTSNSt3__110shared_ptrINS_7promiseIN6twitch5ErrorEEEEE, symObjAddr: 0xE6D70, symBinAddr: 0xE11D0, symSize: 0x64 }
  - { offset: 0x9AC212, size: 0x8, addend: 0x0, symName: ___destroy_helper_block_a8_40c66_ZTSNSt3__112basic_stringIcNS_11char_traitsIcEENS_9allocatorIcEEEE80c55_ZTSNSt3__110shared_ptrINS_7promiseIN6twitch5ErrorEEEEE, symObjAddr: 0xE6DD4, symBinAddr: 0xE1234, symSize: 0x3C }
  - { offset: 0x9AC467, size: 0x8, addend: 0x0, symName: ___copy_helper_block_a8_40c66_ZTSNSt3__112basic_stringIcNS_11char_traitsIcEENS_9allocatorIcEEEE, symObjAddr: 0xE6E90, symBinAddr: 0xE12F0, symSize: 0x30 }
  - { offset: 0x9AC50A, size: 0x8, addend: 0x0, symName: ___destroy_helper_block_a8_40c66_ZTSNSt3__112basic_stringIcNS_11char_traitsIcEENS_9allocatorIcEEEE, symObjAddr: 0xE6EC0, symBinAddr: 0xE1320, symSize: 0x14 }
  - { offset: 0x9AC55A, size: 0x8, addend: 0x0, symName: ___destroy_helper_block_a8_40c66_ZTSNSt3__112basic_stringIcNS_11char_traitsIcEENS_9allocatorIcEEEE, symObjAddr: 0xE6EC0, symBinAddr: 0xE1320, symSize: 0x14 }
  - { offset: 0x9AD30E, size: 0x8, addend: 0x0, symName: __ZN6twitch3ios18MetalRenderContextC1ERKNSt3__110shared_ptrINS_9SchedulerEEEP8NSBundleRKNS3_INS0_18MetalResourceCacheEEEb, symObjAddr: 0xE76D0, symBinAddr: 0xE1978, symSize: 0x178 }
  - { offset: 0x6A513F, size: 0x8, addend: 0x0, symName: __ZN6twitch22SamplePerformanceStats7receiveERKNS_11CodedSampleE, symObjAddr: 0x9ACF8, symBinAddr: 0x982CC, symSize: 0x3B0 }
  - { offset: 0x6A657C, size: 0x8, addend: 0x0, symName: __ZN6twitch22SamplePerformanceStats7receiveERKNS_11CodedSampleE, symObjAddr: 0x9ACF8, symBinAddr: 0x982CC, symSize: 0x3B0 }
  - { offset: 0x6A7D42, size: 0x8, addend: 0x0, symName: __ZN6twitch22SamplePerformanceStatsD1Ev, symObjAddr: 0x9B0A8, symBinAddr: 0x9867C, symSize: 0x4 }
  - { offset: 0x6A7D66, size: 0x8, addend: 0x0, symName: __ZN6twitch22SamplePerformanceStatsD1Ev, symObjAddr: 0x9B0A8, symBinAddr: 0x9867C, symSize: 0x4 }
  - { offset: 0x6A7D71, size: 0x8, addend: 0x0, symName: __ZN6twitch22SamplePerformanceStatsD2Ev, symObjAddr: 0x9B160, symBinAddr: 0x98734, symSize: 0x50 }
  - { offset: 0x6A7F14, size: 0x8, addend: 0x0, symName: __ZN6twitch22SamplePerformanceStatsD0Ev, symObjAddr: 0x9B0AC, symBinAddr: 0x98680, symSize: 0x14 }
  - { offset: 0x6A7F61, size: 0x8, addend: 0x0, symName: __ZNK6twitch22SamplePerformanceStats6getTagEv, symObjAddr: 0x9B0C0, symBinAddr: 0x98694, symSize: 0x2C }
  - { offset: 0x6A7FB6, size: 0x8, addend: 0x0, symName: __ZNK6twitch22SamplePerformanceStats6getTagEv, symObjAddr: 0x9B0C0, symBinAddr: 0x98694, symSize: 0x2C }
  - { offset: 0x6A7FEF, size: 0x8, addend: 0x0, symName: __ZTv0_n24_NK6twitch22SamplePerformanceStats6getTagEv, symObjAddr: 0x9B0EC, symBinAddr: 0x986C0, symSize: 0x34 }
  - { offset: 0x6A8088, size: 0x8, addend: 0x0, symName: __ZThn8_N6twitch22SamplePerformanceStatsD1Ev, symObjAddr: 0x9B120, symBinAddr: 0x986F4, symSize: 0x8 }
  - { offset: 0x6A80E4, size: 0x8, addend: 0x0, symName: __ZThn8_N6twitch22SamplePerformanceStatsD0Ev, symObjAddr: 0x9B128, symBinAddr: 0x986FC, symSize: 0x18 }
  - { offset: 0x6A8144, size: 0x8, addend: 0x0, symName: __ZThn32_N6twitch22SamplePerformanceStatsD1Ev, symObjAddr: 0x9B140, symBinAddr: 0x98714, symSize: 0x8 }
  - { offset: 0x6A8186, size: 0x8, addend: 0x0, symName: __ZThn32_N6twitch22SamplePerformanceStatsD0Ev, symObjAddr: 0x9B148, symBinAddr: 0x9871C, symSize: 0x18 }
  - { offset: 0xA706E1, size: 0x8, addend: 0x0, symName: _x509v3_cache_extensions, symObjAddr: 0x114658, symBinAddr: 0x10E8A0, symSize: 0x790 }
  - { offset: 0xA70702, size: 0x8, addend: 0x0, symName: _xstandard, symObjAddr: 0x2027E0, symBinAddr: 0x200170, symSize: 0x0 }
  - { offset: 0xA71B91, size: 0x8, addend: 0x0, symName: _x509v3_cache_extensions, symObjAddr: 0x114658, symBinAddr: 0x10E8A0, symSize: 0x790 }
  - { offset: 0xA72855, size: 0x8, addend: 0x0, symName: _check_purpose_ssl_client, symObjAddr: 0x114DE8, symBinAddr: 0x10F030, symSize: 0x70 }
  - { offset: 0xA72874, size: 0x8, addend: 0x0, symName: _X509_check_akid, symObjAddr: 0x1151B0, symBinAddr: 0x10F3F8, symSize: 0xB8 }
  - { offset: 0xA729FB, size: 0x8, addend: 0x0, symName: _check_purpose_ssl_client, symObjAddr: 0x114DE8, symBinAddr: 0x10F030, symSize: 0x70 }
  - { offset: 0xA72A61, size: 0x8, addend: 0x0, symName: _check_purpose_ssl_server, symObjAddr: 0x114E58, symBinAddr: 0x10F0A0, symSize: 0x74 }
  - { offset: 0xA72AC7, size: 0x8, addend: 0x0, symName: _check_purpose_ns_ssl_server, symObjAddr: 0x114ECC, symBinAddr: 0x10F114, symSize: 0x48 }
  - { offset: 0xA72B31, size: 0x8, addend: 0x0, symName: _check_purpose_smime_sign, symObjAddr: 0x114F14, symBinAddr: 0x10F15C, symSize: 0x54 }
  - { offset: 0xA72B9B, size: 0x8, addend: 0x0, symName: _purpose_smime, symObjAddr: 0x115140, symBinAddr: 0x10F388, symSize: 0x70 }
  - { offset: 0xA72BF0, size: 0x8, addend: 0x0, symName: _check_purpose_smime_encrypt, symObjAddr: 0x114F68, symBinAddr: 0x10F1B0, symSize: 0x50 }
  - { offset: 0xA72C5A, size: 0x8, addend: 0x0, symName: _check_purpose_crl_sign, symObjAddr: 0x114FB8, symBinAddr: 0x10F200, symSize: 0x54 }
  - { offset: 0xA72CC0, size: 0x8, addend: 0x0, symName: _no_check, symObjAddr: 0x11500C, symBinAddr: 0x10F254, symSize: 0x8 }
  - { offset: 0xA72D03, size: 0x8, addend: 0x0, symName: _ocsp_helper, symObjAddr: 0x115014, symBinAddr: 0x10F25C, symSize: 0x48 }
  - { offset: 0xA72D63, size: 0x8, addend: 0x0, symName: _check_purpose_timestamp_sign, symObjAddr: 0x11505C, symBinAddr: 0x10F2A4, symSize: 0xE4 }
  - { offset: 0xA72F3A, size: 0x8, addend: 0x0, symName: _nid_cmp, symObjAddr: 0x115268, symBinAddr: 0x10F4B0, symSize: 0x10 }
  - { offset: 0xA72F96, size: 0x8, addend: 0x0, symName: _X509_check_ca, symObjAddr: 0x115278, symBinAddr: 0x10F4C0, symSize: 0x5C }
  - { offset: 0xB6A502, size: 0x8, addend: 0x0, symName: __ZN6twitch17LocklessTlsSocketD1Ev, symObjAddr: 0x14A194, symBinAddr: 0x14312C, symSize: 0x4 }
  - { offset: 0xB6C6C0, size: 0x8, addend: 0x0, symName: __ZN6twitch17LocklessTlsSocket7connectEv, symObjAddr: 0x14A1AC, symBinAddr: 0x143144, symSize: 0xD8 }
  - { offset: 0xB6CCB7, size: 0x8, addend: 0x0, symName: __ZN6twitch17LocklessTlsSocketD1Ev, symObjAddr: 0x14A194, symBinAddr: 0x14312C, symSize: 0x4 }
  - { offset: 0xB6CCDB, size: 0x8, addend: 0x0, symName: __ZN6twitch17LocklessTlsSocketD1Ev, symObjAddr: 0x14A194, symBinAddr: 0x14312C, symSize: 0x4 }
  - { offset: 0xB6CCE6, size: 0x8, addend: 0x0, symName: __ZN6twitch17LocklessTlsSocketD2Ev, symObjAddr: 0x14B99C, symBinAddr: 0x144934, symSize: 0x1D8 }
  - { offset: 0xB6DB81, size: 0x8, addend: 0x0, symName: __ZN6twitch17LocklessTlsSocketD0Ev, symObjAddr: 0x14A198, symBinAddr: 0x143130, symSize: 0x14 }
  - { offset: 0xB6DE23, size: 0x8, addend: 0x0, symName: __ZN6twitch17LocklessTlsSocket10disconnectEv, symObjAddr: 0x14A284, symBinAddr: 0x14321C, symSize: 0x78 }
  - { offset: 0xB6E0C1, size: 0x8, addend: 0x0, symName: __ZN6twitch17LocklessTlsSocket4sendEPKhmRm, symObjAddr: 0x14A2FC, symBinAddr: 0x143294, symSize: 0x25C }
  - { offset: 0xB6E82E, size: 0x8, addend: 0x0, symName: __ZN6twitch17LocklessTlsSocket11checkResultENS_8NetErrorEii, symObjAddr: 0x14AA64, symBinAddr: 0x1439FC, symSize: 0x9BC }
  - { offset: 0xB72B4A, size: 0x8, addend: 0x0, symName: __ZN6twitch17LocklessTlsSocket4recvEPhmRm, symObjAddr: 0x14A558, symBinAddr: 0x1434F0, symSize: 0x1EC }
  - { offset: 0xB72E80, size: 0x8, addend: 0x0, symName: __ZNK6twitch17LocklessTlsSocket10isBlockingEv, symObjAddr: 0x14A744, symBinAddr: 0x1436DC, symSize: 0x38 }
  - { offset: 0xB72F02, size: 0x8, addend: 0x0, symName: __ZN6twitch17LocklessTlsSocket4peekEv, symObjAddr: 0x14A77C, symBinAddr: 0x143714, symSize: 0x40 }
  - { offset: 0xB72F84, size: 0x8, addend: 0x0, symName: __ZNK6twitch17LocklessTlsSocket5getFdEv, symObjAddr: 0x14A7BC, symBinAddr: 0x143754, symSize: 0x38 }
  - { offset: 0xB73000, size: 0x8, addend: 0x0, symName: __ZN6twitch17LocklessTlsSocket13setEnableIPv6Eb, symObjAddr: 0x14A7F4, symBinAddr: 0x14378C, symSize: 0x40 }
  - { offset: 0xB730B9, size: 0x8, addend: 0x0, symName: __ZN6twitch17LocklessTlsSocket15setStateHandlerEONSt3__18functionIFvRNS_6SocketENS3_5StateERKNS_5ErrorEEEE, symObjAddr: 0x14A834, symBinAddr: 0x1437CC, symSize: 0x38 }
  - { offset: 0xB7315B, size: 0x8, addend: 0x0, symName: __ZN6twitch17LocklessTlsSocket15setSendLowWaterEib, symObjAddr: 0x14A86C, symBinAddr: 0x143804, symSize: 0x58 }
  - { offset: 0xB73202, size: 0x8, addend: 0x0, symName: __ZNK6twitch17LocklessTlsSocket15getSendLowWaterEv, symObjAddr: 0x14A8C4, symBinAddr: 0x14385C, symSize: 0x38 }
  - { offset: 0xB73287, size: 0x8, addend: 0x0, symName: __ZNK6twitch17LocklessTlsSocket6getRttERi, symObjAddr: 0x14A8FC, symBinAddr: 0x143894, symSize: 0x50 }
  - { offset: 0xB7331D, size: 0x8, addend: 0x0, symName: __ZN6twitch17LocklessTlsSocket21pauseWritabilityCheckEv, symObjAddr: 0x14A94C, symBinAddr: 0x1438E4, symSize: 0x38 }
  - { offset: 0xB733A2, size: 0x8, addend: 0x0, symName: __ZN6twitch17LocklessTlsSocket22resumeWritabilityCheckEv, symObjAddr: 0x14A984, symBinAddr: 0x14391C, symSize: 0x38 }
  - { offset: 0xB73427, size: 0x8, addend: 0x0, symName: __ZNK6twitch17LocklessTlsSocket14isEcnSupportedEv, symObjAddr: 0x14A9BC, symBinAddr: 0x143954, symSize: 0x38 }
  - { offset: 0xB734AC, size: 0x8, addend: 0x0, symName: __ZNK6twitch17LocklessTlsSocket6isIPV6Ev, symObjAddr: 0x14A9F4, symBinAddr: 0x14398C, symSize: 0x38 }
  - { offset: 0xB73531, size: 0x8, addend: 0x0, symName: __ZNK6twitch17LocklessTlsSocket32getUnsentPlusUnacknowledgedBytesEv, symObjAddr: 0x14AA2C, symBinAddr: 0x1439C4, symSize: 0x38 }
  - { offset: 0xB738BD, size: 0x8, addend: 0x0, symName: '__ZNSt3__110__function6__funcIZN6twitch17LocklessTlsSocket7connectEvE3$_0NS_9allocatorIS4_EEFvRNS2_6SocketENS7_5StateERKNS2_5ErrorEEED1Ev', symObjAddr: 0x14B420, symBinAddr: 0x1443B8, symSize: 0x4 }
  - { offset: 0xB738E8, size: 0x8, addend: 0x0, symName: '__ZNSt3__110__function6__funcIZN6twitch17LocklessTlsSocket7connectEvE3$_0NS_9allocatorIS4_EEFvRNS2_6SocketENS7_5StateERKNS2_5ErrorEEED0Ev', symObjAddr: 0x14B424, symBinAddr: 0x1443BC, symSize: 0x4 }
  - { offset: 0xB73AFC, size: 0x8, addend: 0x0, symName: '__ZNKSt3__110__function6__funcIZN6twitch17LocklessTlsSocket7connectEvE3$_0NS_9allocatorIS4_EEFvRNS2_6SocketENS7_5StateERKNS2_5ErrorEEE7__cloneEv', symObjAddr: 0x14B428, symBinAddr: 0x1443C0, symSize: 0x34 }
  - { offset: 0xB73E17, size: 0x8, addend: 0x0, symName: '__ZNKSt3__110__function6__funcIZN6twitch17LocklessTlsSocket7connectEvE3$_0NS_9allocatorIS4_EEFvRNS2_6SocketENS7_5StateERKNS2_5ErrorEEE7__cloneEPNS0_6__baseISD_EE', symObjAddr: 0x14B45C, symBinAddr: 0x1443F4, symSize: 0x14 }
  - { offset: 0xB73E50, size: 0x8, addend: 0x0, symName: '__ZNKSt3__110__function6__funcIZN6twitch17LocklessTlsSocket7connectEvE3$_0NS_9allocatorIS4_EEFvRNS2_6SocketENS7_5StateERKNS2_5ErrorEEE7__cloneEPNS0_6__baseISD_EE', symObjAddr: 0x14B45C, symBinAddr: 0x1443F4, symSize: 0x14 }
  - { offset: 0xB73E82, size: 0x8, addend: 0x0, symName: '__ZNKSt3__110__function6__funcIZN6twitch17LocklessTlsSocket7connectEvE3$_0NS_9allocatorIS4_EEFvRNS2_6SocketENS7_5StateERKNS2_5ErrorEEE7__cloneEPNS0_6__baseISD_EE', symObjAddr: 0x14B45C, symBinAddr: 0x1443F4, symSize: 0x14 }
  - { offset: 0xB73EB4, size: 0x8, addend: 0x0, symName: '__ZNKSt3__110__function6__funcIZN6twitch17LocklessTlsSocket7connectEvE3$_0NS_9allocatorIS4_EEFvRNS2_6SocketENS7_5StateERKNS2_5ErrorEEE7__cloneEPNS0_6__baseISD_EE', symObjAddr: 0x14B45C, symBinAddr: 0x1443F4, symSize: 0x14 }
  - { offset: 0xB73ECA, size: 0x8, addend: 0x0, symName: '__ZNKSt3__110__function6__funcIZN6twitch17LocklessTlsSocket7connectEvE3$_0NS_9allocatorIS4_EEFvRNS2_6SocketENS7_5StateERKNS2_5ErrorEEE7__cloneEPNS0_6__baseISD_EE', symObjAddr: 0x14B45C, symBinAddr: 0x1443F4, symSize: 0x14 }
  - { offset: 0xB73EDF, size: 0x8, addend: 0x0, symName: '__ZNKSt3__110__function6__funcIZN6twitch17LocklessTlsSocket7connectEvE3$_0NS_9allocatorIS4_EEFvRNS2_6SocketENS7_5StateERKNS2_5ErrorEEE7__cloneEPNS0_6__baseISD_EE', symObjAddr: 0x14B45C, symBinAddr: 0x1443F4, symSize: 0x14 }
  - { offset: 0xB73EF4, size: 0x8, addend: 0x0, symName: '__ZNKSt3__110__function6__funcIZN6twitch17LocklessTlsSocket7connectEvE3$_0NS_9allocatorIS4_EEFvRNS2_6SocketENS7_5StateERKNS2_5ErrorEEE7__cloneEPNS0_6__baseISD_EE', symObjAddr: 0x14B45C, symBinAddr: 0x1443F4, symSize: 0x14 }
  - { offset: 0xB73F09, size: 0x8, addend: 0x0, symName: '__ZNKSt3__110__function6__funcIZN6twitch17LocklessTlsSocket7connectEvE3$_0NS_9allocatorIS4_EEFvRNS2_6SocketENS7_5StateERKNS2_5ErrorEEE7__cloneEPNS0_6__baseISD_EE', symObjAddr: 0x14B45C, symBinAddr: 0x1443F4, symSize: 0x14 }
  - { offset: 0xB73F21, size: 0x8, addend: 0x0, symName: '__ZNSt3__110__function6__funcIZN6twitch17LocklessTlsSocket7connectEvE3$_0NS_9allocatorIS4_EEFvRNS2_6SocketENS7_5StateERKNS2_5ErrorEEE7destroyEv', symObjAddr: 0x14B470, symBinAddr: 0x144408, symSize: 0x4 }
  - { offset: 0xB73F74, size: 0x8, addend: 0x0, symName: '__ZNSt3__110__function6__funcIZN6twitch17LocklessTlsSocket7connectEvE3$_0NS_9allocatorIS4_EEFvRNS2_6SocketENS7_5StateERKNS2_5ErrorEEE18destroy_deallocateEv', symObjAddr: 0x14B474, symBinAddr: 0x14440C, symSize: 0x4 }
  - { offset: 0xB73FAB, size: 0x8, addend: 0x0, symName: '__ZNSt3__110__function6__funcIZN6twitch17LocklessTlsSocket7connectEvE3$_0NS_9allocatorIS4_EEFvRNS2_6SocketENS7_5StateERKNS2_5ErrorEEE18destroy_deallocateEv', symObjAddr: 0x14B474, symBinAddr: 0x14440C, symSize: 0x4 }
  - { offset: 0xB73FD0, size: 0x8, addend: 0x0, symName: '__ZNSt3__110__function6__funcIZN6twitch17LocklessTlsSocket7connectEvE3$_0NS_9allocatorIS4_EEFvRNS2_6SocketENS7_5StateERKNS2_5ErrorEEE18destroy_deallocateEv', symObjAddr: 0x14B474, symBinAddr: 0x14440C, symSize: 0x4 }
  - { offset: 0xB73FFF, size: 0x8, addend: 0x0, symName: '__ZNSt3__110__function6__funcIZN6twitch17LocklessTlsSocket7connectEvE3$_0NS_9allocatorIS4_EEFvRNS2_6SocketENS7_5StateERKNS2_5ErrorEEE18destroy_deallocateEv', symObjAddr: 0x14B474, symBinAddr: 0x14440C, symSize: 0x4 }
  - { offset: 0xB74028, size: 0x8, addend: 0x0, symName: '__ZNSt3__110__function6__funcIZN6twitch17LocklessTlsSocket7connectEvE3$_0NS_9allocatorIS4_EEFvRNS2_6SocketENS7_5StateERKNS2_5ErrorEEE18destroy_deallocateEv', symObjAddr: 0x14B474, symBinAddr: 0x14440C, symSize: 0x4 }
  - { offset: 0xB7425C, size: 0x8, addend: 0x0, symName: '__ZNSt3__110__function6__funcIZN6twitch17LocklessTlsSocket7connectEvE3$_0NS_9allocatorIS4_EEFvRNS2_6SocketENS7_5StateERKNS2_5ErrorEEEclES8_OS9_SC_', symObjAddr: 0x14B478, symBinAddr: 0x144410, symSize: 0x524 }
  - { offset: 0xB76451, size: 0x8, addend: 0x0, symName: __ZN6twitch17LocklessTlsSocketD2Ev, symObjAddr: 0x14B99C, symBinAddr: 0x144934, symSize: 0x1D8 }
  - { offset: 0x35118B, size: 0x8, addend: 0x0, symName: '-[IVSConfigurationPresets standardPortrait]', symObjAddr: 0x4A1B4, symBinAddr: 0x4B094, symSize: 0x1C }
  - { offset: 0x351400, size: 0x8, addend: 0x0, symName: '-[IVSConfigurationPresets standardPortrait]', symObjAddr: 0x4A1B4, symBinAddr: 0x4B094, symSize: 0x1C }
  - { offset: 0x351433, size: 0x8, addend: 0x0, symName: '-[IVSConfigurationPresets standardLandscape]', symObjAddr: 0x4A1D0, symBinAddr: 0x4B0B0, symSize: 0x190 }
  - { offset: 0x35147A, size: 0x8, addend: 0x0, symName: '-[IVSConfigurationPresets basicPortrait]', symObjAddr: 0x4A360, symBinAddr: 0x4B240, symSize: 0x1B0 }
  - { offset: 0x3514CD, size: 0x8, addend: 0x0, symName: '-[IVSConfigurationPresets basicLandscape]', symObjAddr: 0x4A510, symBinAddr: 0x4B3F0, symSize: 0x190 }
  - { offset: 0x351514, size: 0x8, addend: 0x0, symName: '-[IVSDevicePresets frontCamera]', symObjAddr: 0x4A6A0, symBinAddr: 0x4B580, symSize: 0x8 }
  - { offset: 0x351557, size: 0x8, addend: 0x0, symName: '-[IVSDevicePresets defaultsForPosition:]', symObjAddr: 0x4A7FC, symBinAddr: 0x4B6DC, symSize: 0x2D0 }
  - { offset: 0x351603, size: 0x8, addend: 0x0, symName: '-[IVSDevicePresets backCamera]', symObjAddr: 0x4A6A8, symBinAddr: 0x4B588, symSize: 0x8 }
  - { offset: 0x351646, size: 0x8, addend: 0x0, symName: '-[IVSDevicePresets microphone]', symObjAddr: 0x4A6B0, symBinAddr: 0x4B590, symSize: 0x14C }
  - { offset: 0x351690, size: 0x8, addend: 0x0, symName: '+[IVSPresets configurations]', symObjAddr: 0x4AACC, symBinAddr: 0x4B9AC, symSize: 0x1C }
  - { offset: 0x3516C3, size: 0x8, addend: 0x0, symName: '+[IVSPresets devices]', symObjAddr: 0x4AAE8, symBinAddr: 0x4B9C8, symSize: 0x1C }
  - { offset: 0x8E9EAF, size: 0x8, addend: 0x0, symName: __ZNK6twitch3ios22AppleAnalyticsProvider19getHostInfoProviderEv, symObjAddr: 0xD4448, symBinAddr: 0xCF160, symSize: 0x1C }
  - { offset: 0x8E9F75, size: 0x8, addend: 0x0, symName: __ZN6twitch3ios31terminationNotificationCallbackEP22__CFNotificationCenterPvPK10__CFStringPKvPK14__CFDictionary, symObjAddr: 0xD46BC, symBinAddr: 0xCF3D4, symSize: 0x18 }
  - { offset: 0x8E9FD3, size: 0x8, addend: 0x0, symName: __ZN6twitch3ios31terminationNotificationCallbackEP22__CFNotificationCenterPvPK10__CFStringPKvPK14__CFDictionary, symObjAddr: 0xD46BC, symBinAddr: 0xCF3D4, symSize: 0x18 }
  - { offset: 0x8E9FF2, size: 0x8, addend: 0x0, symName: __ZN6twitch3ios31terminationNotificationCallbackEP22__CFNotificationCenterPvPK10__CFStringPKvPK14__CFDictionary, symObjAddr: 0xD46BC, symBinAddr: 0xCF3D4, symSize: 0x18 }
  - { offset: 0x8EA012, size: 0x8, addend: 0x0, symName: __ZN6twitch3ios31terminationNotificationCallbackEP22__CFNotificationCenterPvPK10__CFStringPKvPK14__CFDictionary, symObjAddr: 0xD46BC, symBinAddr: 0xCF3D4, symSize: 0x18 }
  - { offset: 0x8EE728, size: 0x8, addend: 0x0, symName: __ZNSt3__115allocate_sharedB8nn180100IN6twitch3ios12GCDSchedulerENS_9allocatorIS3_EEJNS_12basic_stringIcNS_11char_traitsIcEENS4_IcEEEEU8__strongPU33objcproto22OS_dispatch_queue_attr8NSObjectEvEENS_10shared_ptrIT_EERKT0_DpOT1_, symObjAddr: 0xD4750, symBinAddr: 0xCF468, symSize: 0x78 }
  - { offset: 0x8F107D, size: 0x8, addend: 0x0, symName: __ZNK6twitch3ios22AppleAnalyticsProvider19getHostInfoProviderEv, symObjAddr: 0xD4448, symBinAddr: 0xCF160, symSize: 0x1C }
  - { offset: 0x8F10A7, size: 0x8, addend: 0x0, symName: __ZNK6twitch3ios22AppleAnalyticsProvider19getHostInfoProviderEv, symObjAddr: 0xD4448, symBinAddr: 0xCF160, symSize: 0x1C }
  - { offset: 0x8F10D0, size: 0x8, addend: 0x0, symName: __ZNK6twitch3ios22AppleAnalyticsProvider19getHostInfoProviderEv, symObjAddr: 0xD4448, symBinAddr: 0xCF160, symSize: 0x1C }
  - { offset: 0x8F11BC, size: 0x8, addend: 0x0, symName: __ZNK6twitch3ios22AppleAnalyticsProvider13getAppPackageEv, symObjAddr: 0xD4464, symBinAddr: 0xCF17C, symSize: 0x2C }
  - { offset: 0x8F1217, size: 0x8, addend: 0x0, symName: __ZNK6twitch3ios22AppleAnalyticsProvider13getAppPackageEv, symObjAddr: 0xD4464, symBinAddr: 0xCF17C, symSize: 0x2C }
  - { offset: 0x8F12A0, size: 0x8, addend: 0x0, symName: __ZNK6twitch3ios22AppleAnalyticsProvider8getClockEv, symObjAddr: 0xD4490, symBinAddr: 0xCF1A8, symSize: 0x1C }
  - { offset: 0x8F12CA, size: 0x8, addend: 0x0, symName: __ZNK6twitch3ios22AppleAnalyticsProvider8getClockEv, symObjAddr: 0xD4490, symBinAddr: 0xCF1A8, symSize: 0x1C }
  - { offset: 0x8F12F3, size: 0x8, addend: 0x0, symName: __ZNK6twitch3ios22AppleAnalyticsProvider8getClockEv, symObjAddr: 0xD4490, symBinAddr: 0xCF1A8, symSize: 0x1C }
  - { offset: 0x8F13C9, size: 0x8, addend: 0x0, symName: __ZNK6twitch3ios22AppleAnalyticsProvider6getLogEv, symObjAddr: 0xD44AC, symBinAddr: 0xCF1C4, symSize: 0x1C }
  - { offset: 0x8F13F3, size: 0x8, addend: 0x0, symName: __ZNK6twitch3ios22AppleAnalyticsProvider6getLogEv, symObjAddr: 0xD44AC, symBinAddr: 0xCF1C4, symSize: 0x1C }
  - { offset: 0x8F141D, size: 0x8, addend: 0x0, symName: __ZNK6twitch3ios22AppleAnalyticsProvider6getLogEv, symObjAddr: 0xD44AC, symBinAddr: 0xCF1C4, symSize: 0x1C }
  - { offset: 0x8F14C7, size: 0x8, addend: 0x0, symName: __ZNK6twitch3ios22AppleAnalyticsProvider21getPlatformPropertiesEv, symObjAddr: 0xD44C8, symBinAddr: 0xCF1E0, symSize: 0xC }
  - { offset: 0x8F1574, size: 0x8, addend: 0x0, symName: __ZNK6twitch3ios22AppleAnalyticsProvider13getHttpClientEv, symObjAddr: 0xD44D4, symBinAddr: 0xCF1EC, symSize: 0x1C }
  - { offset: 0x8F159E, size: 0x8, addend: 0x0, symName: __ZNK6twitch3ios22AppleAnalyticsProvider13getHttpClientEv, symObjAddr: 0xD44D4, symBinAddr: 0xCF1EC, symSize: 0x1C }
  - { offset: 0x8F15C8, size: 0x8, addend: 0x0, symName: __ZNK6twitch3ios22AppleAnalyticsProvider13getHttpClientEv, symObjAddr: 0xD44D4, symBinAddr: 0xCF1EC, symSize: 0x1C }
  - { offset: 0x8F169F, size: 0x8, addend: 0x0, symName: __ZNK6twitch3ios22AppleAnalyticsProvider12getSchedulerEv, symObjAddr: 0xD44F0, symBinAddr: 0xCF208, symSize: 0x1C }
  - { offset: 0x8F16C9, size: 0x8, addend: 0x0, symName: __ZNK6twitch3ios22AppleAnalyticsProvider12getSchedulerEv, symObjAddr: 0xD44F0, symBinAddr: 0xCF208, symSize: 0x1C }
  - { offset: 0x8F16F3, size: 0x8, addend: 0x0, symName: __ZNK6twitch3ios22AppleAnalyticsProvider12getSchedulerEv, symObjAddr: 0xD44F0, symBinAddr: 0xCF208, symSize: 0x1C }
  - { offset: 0x8F1A74, size: 0x8, addend: 0x0, symName: __ZNK6twitch3ios22AppleAnalyticsProvider21createNetworkLinkInfoERKNSt3__110shared_ptrINS_9SchedulerEEE, symObjAddr: 0xD450C, symBinAddr: 0xCF224, symSize: 0xA8 }
  - { offset: 0x8F2091, size: 0x8, addend: 0x0, symName: __ZNK6twitch3ios22AppleAnalyticsProvider24createBackgroundDetectorEv, symObjAddr: 0xD45B4, symBinAddr: 0xCF2CC, symSize: 0xB8 }
  - { offset: 0x8F247B, size: 0x8, addend: 0x0, symName: __ZN6twitch3ios22AppleAnalyticsProvider22appTerminationCallbackERKNSt3__18functionIFvvEEE, symObjAddr: 0xD466C, symBinAddr: 0xCF384, symSize: 0x50 }
  - { offset: 0x8F256E, size: 0x8, addend: 0x0, symName: __ZNSt3__120__shared_ptr_emplaceIN6twitch3ios23AppleBackgroundDetectorENS_9allocatorIS3_EEED1Ev, symObjAddr: 0xD46D4, symBinAddr: 0xCF3EC, symSize: 0x10 }
  - { offset: 0x8F2592, size: 0x8, addend: 0x0, symName: __ZNSt3__120__shared_ptr_emplaceIN6twitch3ios23AppleBackgroundDetectorENS_9allocatorIS3_EEED1Ev, symObjAddr: 0xD46D4, symBinAddr: 0xCF3EC, symSize: 0x10 }
  - { offset: 0x8F25C9, size: 0x8, addend: 0x0, symName: __ZNSt3__120__shared_ptr_emplaceIN6twitch3ios23AppleBackgroundDetectorENS_9allocatorIS3_EEED0Ev, symObjAddr: 0xD46E4, symBinAddr: 0xCF3FC, symSize: 0x20 }
  - { offset: 0x8F26AE, size: 0x8, addend: 0x0, symName: __ZNSt3__120__shared_ptr_emplaceIN6twitch3ios23AppleBackgroundDetectorENS_9allocatorIS3_EEE16__on_zero_sharedEv, symObjAddr: 0xD4704, symBinAddr: 0xCF41C, symSize: 0x8 }
  - { offset: 0x8F26D8, size: 0x8, addend: 0x0, symName: __ZNSt3__120__shared_ptr_emplaceIN6twitch3ios23AppleBackgroundDetectorENS_9allocatorIS3_EEE16__on_zero_sharedEv, symObjAddr: 0xD4704, symBinAddr: 0xCF41C, symSize: 0x8 }
  - { offset: 0x8F26F8, size: 0x8, addend: 0x0, symName: __ZNSt3__120__shared_ptr_emplaceIN6twitch3ios23AppleBackgroundDetectorENS_9allocatorIS3_EEE16__on_zero_sharedEv, symObjAddr: 0xD4704, symBinAddr: 0xCF41C, symSize: 0x8 }
  - { offset: 0x8F27DE, size: 0x8, addend: 0x0, symName: __ZNSt3__120__shared_ptr_emplaceIN6twitch3ios23AppleBackgroundDetectorENS_9allocatorIS3_EEE21__on_zero_shared_weakEv, symObjAddr: 0xD470C, symBinAddr: 0xCF424, symSize: 0x4 }
  - { offset: 0x8F2813, size: 0x8, addend: 0x0, symName: __ZNSt3__120__shared_ptr_emplaceIN6twitch3ios23AppleBackgroundDetectorENS_9allocatorIS3_EEE21__on_zero_shared_weakEv, symObjAddr: 0xD470C, symBinAddr: 0xCF424, symSize: 0x4 }
  - { offset: 0x8F2838, size: 0x8, addend: 0x0, symName: __ZNSt3__120__shared_ptr_emplaceIN6twitch3ios23AppleBackgroundDetectorENS_9allocatorIS3_EEE21__on_zero_shared_weakEv, symObjAddr: 0xD470C, symBinAddr: 0xCF424, symSize: 0x4 }
  - { offset: 0x8F285D, size: 0x8, addend: 0x0, symName: __ZNSt3__120__shared_ptr_emplaceIN6twitch3ios23AppleBackgroundDetectorENS_9allocatorIS3_EEE21__on_zero_shared_weakEv, symObjAddr: 0xD470C, symBinAddr: 0xCF424, symSize: 0x4 }
  - { offset: 0x8F288C, size: 0x8, addend: 0x0, symName: __ZNSt3__120__shared_ptr_emplaceIN6twitch3ios23AppleBackgroundDetectorENS_9allocatorIS3_EEE21__on_zero_shared_weakEv, symObjAddr: 0xD470C, symBinAddr: 0xCF424, symSize: 0x4 }
  - { offset: 0x8F28B5, size: 0x8, addend: 0x0, symName: __ZNSt3__120__shared_ptr_emplaceIN6twitch3ios23AppleBackgroundDetectorENS_9allocatorIS3_EEE21__on_zero_shared_weakEv, symObjAddr: 0xD470C, symBinAddr: 0xCF424, symSize: 0x4 }
  - { offset: 0x8F28FE, size: 0x8, addend: 0x0, symName: __ZNSt3__120__shared_ptr_emplaceIN6twitch17NWNetworkLinkInfoENS_9allocatorIS2_EEED1Ev, symObjAddr: 0xD4710, symBinAddr: 0xCF428, symSize: 0x10 }
  - { offset: 0x8F2922, size: 0x8, addend: 0x0, symName: __ZNSt3__120__shared_ptr_emplaceIN6twitch17NWNetworkLinkInfoENS_9allocatorIS2_EEED1Ev, symObjAddr: 0xD4710, symBinAddr: 0xCF428, symSize: 0x10 }
  - { offset: 0x8F2959, size: 0x8, addend: 0x0, symName: __ZNSt3__120__shared_ptr_emplaceIN6twitch17NWNetworkLinkInfoENS_9allocatorIS2_EEED0Ev, symObjAddr: 0xD4720, symBinAddr: 0xCF438, symSize: 0x20 }
  - { offset: 0x8F2A28, size: 0x8, addend: 0x0, symName: __ZNSt3__120__shared_ptr_emplaceIN6twitch17NWNetworkLinkInfoENS_9allocatorIS2_EEE16__on_zero_sharedEv, symObjAddr: 0xD4740, symBinAddr: 0xCF458, symSize: 0xC }
  - { offset: 0x8F2A52, size: 0x8, addend: 0x0, symName: __ZNSt3__120__shared_ptr_emplaceIN6twitch17NWNetworkLinkInfoENS_9allocatorIS2_EEE16__on_zero_sharedEv, symObjAddr: 0xD4740, symBinAddr: 0xCF458, symSize: 0xC }
  - { offset: 0x8F2A72, size: 0x8, addend: 0x0, symName: __ZNSt3__120__shared_ptr_emplaceIN6twitch17NWNetworkLinkInfoENS_9allocatorIS2_EEE16__on_zero_sharedEv, symObjAddr: 0xD4740, symBinAddr: 0xCF458, symSize: 0xC }
  - { offset: 0x8F2A92, size: 0x8, addend: 0x0, symName: __ZNSt3__120__shared_ptr_emplaceIN6twitch17NWNetworkLinkInfoENS_9allocatorIS2_EEE16__on_zero_sharedEv, symObjAddr: 0xD4740, symBinAddr: 0xCF458, symSize: 0xC }
  - { offset: 0x8F2B1B, size: 0x8, addend: 0x0, symName: __ZNSt3__120__shared_ptr_emplaceIN6twitch17NWNetworkLinkInfoENS_9allocatorIS2_EEE21__on_zero_shared_weakEv, symObjAddr: 0xD474C, symBinAddr: 0xCF464, symSize: 0x4 }
  - { offset: 0x8F2B50, size: 0x8, addend: 0x0, symName: __ZNSt3__120__shared_ptr_emplaceIN6twitch17NWNetworkLinkInfoENS_9allocatorIS2_EEE21__on_zero_shared_weakEv, symObjAddr: 0xD474C, symBinAddr: 0xCF464, symSize: 0x4 }
  - { offset: 0x8F2B75, size: 0x8, addend: 0x0, symName: __ZNSt3__120__shared_ptr_emplaceIN6twitch17NWNetworkLinkInfoENS_9allocatorIS2_EEE21__on_zero_shared_weakEv, symObjAddr: 0xD474C, symBinAddr: 0xCF464, symSize: 0x4 }
  - { offset: 0x8F2B9A, size: 0x8, addend: 0x0, symName: __ZNSt3__120__shared_ptr_emplaceIN6twitch17NWNetworkLinkInfoENS_9allocatorIS2_EEE21__on_zero_shared_weakEv, symObjAddr: 0xD474C, symBinAddr: 0xCF464, symSize: 0x4 }
  - { offset: 0x8F2BCB, size: 0x8, addend: 0x0, symName: __ZNSt3__120__shared_ptr_emplaceIN6twitch17NWNetworkLinkInfoENS_9allocatorIS2_EEE21__on_zero_shared_weakEv, symObjAddr: 0xD474C, symBinAddr: 0xCF464, symSize: 0x4 }
  - { offset: 0x8F2BF6, size: 0x8, addend: 0x0, symName: __ZNSt3__120__shared_ptr_emplaceIN6twitch17NWNetworkLinkInfoENS_9allocatorIS2_EEE21__on_zero_shared_weakEv, symObjAddr: 0xD474C, symBinAddr: 0xCF464, symSize: 0x4 }
  - { offset: 0x8F2E84, size: 0x8, addend: 0x0, symName: __ZNSt3__120__shared_ptr_emplaceIN6twitch15CocoaHttpClientENS_9allocatorIS2_EEED1Ev, symObjAddr: 0xD47C8, symBinAddr: 0xCF4E0, symSize: 0x10 }
  - { offset: 0x8F2EA8, size: 0x8, addend: 0x0, symName: __ZNSt3__120__shared_ptr_emplaceIN6twitch15CocoaHttpClientENS_9allocatorIS2_EEED1Ev, symObjAddr: 0xD47C8, symBinAddr: 0xCF4E0, symSize: 0x10 }
  - { offset: 0x8F2EDF, size: 0x8, addend: 0x0, symName: __ZNSt3__120__shared_ptr_emplaceIN6twitch15CocoaHttpClientENS_9allocatorIS2_EEED0Ev, symObjAddr: 0xD47D8, symBinAddr: 0xCF4F0, symSize: 0x20 }
  - { offset: 0x8F2FB4, size: 0x8, addend: 0x0, symName: __ZNSt3__120__shared_ptr_emplaceIN6twitch15CocoaHttpClientENS_9allocatorIS2_EEE16__on_zero_sharedEv, symObjAddr: 0xD47F8, symBinAddr: 0xCF510, symSize: 0xC }
  - { offset: 0x8F2FDE, size: 0x8, addend: 0x0, symName: __ZNSt3__120__shared_ptr_emplaceIN6twitch15CocoaHttpClientENS_9allocatorIS2_EEE16__on_zero_sharedEv, symObjAddr: 0xD47F8, symBinAddr: 0xCF510, symSize: 0xC }
  - { offset: 0x8F2FFE, size: 0x8, addend: 0x0, symName: __ZNSt3__120__shared_ptr_emplaceIN6twitch15CocoaHttpClientENS_9allocatorIS2_EEE16__on_zero_sharedEv, symObjAddr: 0xD47F8, symBinAddr: 0xCF510, symSize: 0xC }
  - { offset: 0x8F301E, size: 0x8, addend: 0x0, symName: __ZNSt3__120__shared_ptr_emplaceIN6twitch15CocoaHttpClientENS_9allocatorIS2_EEE16__on_zero_sharedEv, symObjAddr: 0xD47F8, symBinAddr: 0xCF510, symSize: 0xC }
  - { offset: 0x8F30AD, size: 0x8, addend: 0x0, symName: __ZNSt3__120__shared_ptr_emplaceIN6twitch15CocoaHttpClientENS_9allocatorIS2_EEE21__on_zero_shared_weakEv, symObjAddr: 0xD4804, symBinAddr: 0xCF51C, symSize: 0x4 }
  - { offset: 0x8F30E2, size: 0x8, addend: 0x0, symName: __ZNSt3__120__shared_ptr_emplaceIN6twitch15CocoaHttpClientENS_9allocatorIS2_EEE21__on_zero_shared_weakEv, symObjAddr: 0xD4804, symBinAddr: 0xCF51C, symSize: 0x4 }
  - { offset: 0x8F3107, size: 0x8, addend: 0x0, symName: __ZNSt3__120__shared_ptr_emplaceIN6twitch15CocoaHttpClientENS_9allocatorIS2_EEE21__on_zero_shared_weakEv, symObjAddr: 0xD4804, symBinAddr: 0xCF51C, symSize: 0x4 }
  - { offset: 0x8F312C, size: 0x8, addend: 0x0, symName: __ZNSt3__120__shared_ptr_emplaceIN6twitch15CocoaHttpClientENS_9allocatorIS2_EEE21__on_zero_shared_weakEv, symObjAddr: 0xD4804, symBinAddr: 0xCF51C, symSize: 0x4 }
  - { offset: 0x8F315C, size: 0x8, addend: 0x0, symName: __ZNSt3__120__shared_ptr_emplaceIN6twitch15CocoaHttpClientENS_9allocatorIS2_EEE21__on_zero_shared_weakEv, symObjAddr: 0xD4804, symBinAddr: 0xCF51C, symSize: 0x4 }
  - { offset: 0x8F3186, size: 0x8, addend: 0x0, symName: __ZNSt3__120__shared_ptr_emplaceIN6twitch15CocoaHttpClientENS_9allocatorIS2_EEE21__on_zero_shared_weakEv, symObjAddr: 0xD4804, symBinAddr: 0xCF51C, symSize: 0x4 }
  - { offset: 0x8F31CF, size: 0x8, addend: 0x0, symName: __ZNSt3__120__shared_ptr_emplaceIN6twitch3ios21AppleHostInfoProviderENS_9allocatorIS3_EEED1Ev, symObjAddr: 0xD4808, symBinAddr: 0xCF520, symSize: 0x10 }
  - { offset: 0x8F31F3, size: 0x8, addend: 0x0, symName: __ZNSt3__120__shared_ptr_emplaceIN6twitch3ios21AppleHostInfoProviderENS_9allocatorIS3_EEED1Ev, symObjAddr: 0xD4808, symBinAddr: 0xCF520, symSize: 0x10 }
  - { offset: 0x8F322A, size: 0x8, addend: 0x0, symName: __ZNSt3__120__shared_ptr_emplaceIN6twitch3ios21AppleHostInfoProviderENS_9allocatorIS3_EEED0Ev, symObjAddr: 0xD4818, symBinAddr: 0xCF530, symSize: 0x20 }
  - { offset: 0x8F3333, size: 0x8, addend: 0x0, symName: __ZNSt3__120__shared_ptr_emplaceIN6twitch3ios21AppleHostInfoProviderENS_9allocatorIS3_EEE16__on_zero_sharedEv, symObjAddr: 0xD4838, symBinAddr: 0xCF550, symSize: 0x8 }
  - { offset: 0x8F335D, size: 0x8, addend: 0x0, symName: __ZNSt3__120__shared_ptr_emplaceIN6twitch3ios21AppleHostInfoProviderENS_9allocatorIS3_EEE16__on_zero_sharedEv, symObjAddr: 0xD4838, symBinAddr: 0xCF550, symSize: 0x8 }
  - { offset: 0x8F337D, size: 0x8, addend: 0x0, symName: __ZNSt3__120__shared_ptr_emplaceIN6twitch3ios21AppleHostInfoProviderENS_9allocatorIS3_EEE16__on_zero_sharedEv, symObjAddr: 0xD4838, symBinAddr: 0xCF550, symSize: 0x8 }
  - { offset: 0x8F339D, size: 0x8, addend: 0x0, symName: __ZNSt3__120__shared_ptr_emplaceIN6twitch3ios21AppleHostInfoProviderENS_9allocatorIS3_EEE16__on_zero_sharedEv, symObjAddr: 0xD4838, symBinAddr: 0xCF550, symSize: 0x8 }
  - { offset: 0x8F33BD, size: 0x8, addend: 0x0, symName: __ZNSt3__120__shared_ptr_emplaceIN6twitch3ios21AppleHostInfoProviderENS_9allocatorIS3_EEE16__on_zero_sharedEv, symObjAddr: 0xD4838, symBinAddr: 0xCF550, symSize: 0x8 }
  - { offset: 0x8F33DC, size: 0x8, addend: 0x0, symName: __ZNSt3__120__shared_ptr_emplaceIN6twitch3ios21AppleHostInfoProviderENS_9allocatorIS3_EEE16__on_zero_sharedEv, symObjAddr: 0xD4838, symBinAddr: 0xCF550, symSize: 0x8 }
  - { offset: 0x8F3460, size: 0x8, addend: 0x0, symName: __ZNSt3__120__shared_ptr_emplaceIN6twitch3ios21AppleHostInfoProviderENS_9allocatorIS3_EEE21__on_zero_shared_weakEv, symObjAddr: 0xD4840, symBinAddr: 0xCF558, symSize: 0x4 }
  - { offset: 0x8F3495, size: 0x8, addend: 0x0, symName: __ZNSt3__120__shared_ptr_emplaceIN6twitch3ios21AppleHostInfoProviderENS_9allocatorIS3_EEE21__on_zero_shared_weakEv, symObjAddr: 0xD4840, symBinAddr: 0xCF558, symSize: 0x4 }
  - { offset: 0x8F34BA, size: 0x8, addend: 0x0, symName: __ZNSt3__120__shared_ptr_emplaceIN6twitch3ios21AppleHostInfoProviderENS_9allocatorIS3_EEE21__on_zero_shared_weakEv, symObjAddr: 0xD4840, symBinAddr: 0xCF558, symSize: 0x4 }
  - { offset: 0x8F34DF, size: 0x8, addend: 0x0, symName: __ZNSt3__120__shared_ptr_emplaceIN6twitch3ios21AppleHostInfoProviderENS_9allocatorIS3_EEE21__on_zero_shared_weakEv, symObjAddr: 0xD4840, symBinAddr: 0xCF558, symSize: 0x4 }
  - { offset: 0x8F350F, size: 0x8, addend: 0x0, symName: __ZNSt3__120__shared_ptr_emplaceIN6twitch3ios21AppleHostInfoProviderENS_9allocatorIS3_EEE21__on_zero_shared_weakEv, symObjAddr: 0xD4840, symBinAddr: 0xCF558, symSize: 0x4 }
  - { offset: 0x8F3539, size: 0x8, addend: 0x0, symName: __ZNSt3__120__shared_ptr_emplaceIN6twitch3ios21AppleHostInfoProviderENS_9allocatorIS3_EEE21__on_zero_shared_weakEv, symObjAddr: 0xD4840, symBinAddr: 0xCF558, symSize: 0x4 }
  - { offset: 0x8F41FE, size: 0x8, addend: 0x0, symName: __ZN6twitch3ios22AppleAnalyticsProviderC1Ev, symObjAddr: 0xD4844, symBinAddr: 0xCF55C, symSize: 0x260 }
  - { offset: 0x8CDCBF, size: 0x8, addend: 0x0, symName: __ZN6twitch3ios14ATAudioEncoder7receiveERKNS_9PCMSampleE, symObjAddr: 0xD18F4, symBinAddr: 0xCC820, symSize: 0x42C }
  - { offset: 0x8CDCEA, size: 0x8, addend: 0x0, symName: __ZN6twitch6detailL14AACSampleRatesE, symObjAddr: 0x192798, symBinAddr: 0x1A9068, symSize: 0x0 }
  - { offset: 0x8CDD04, size: 0x8, addend: 0x0, symName: __ZN6twitch6detailL11AACChannelsE, symObjAddr: 0x1927D8, symBinAddr: 0x1A90A8, symSize: 0x0 }
  - { offset: 0x8CE01B, size: 0x8, addend: 0x0, symName: __ZN6twitch3iosL27AudioConverterInputCallbackEP20OpaqueAudioConverterPjP15AudioBufferListPP28AudioStreamPacketDescriptionPv, symObjAddr: 0xD3DEC, symBinAddr: 0xCEB04, symSize: 0x40 }
  - { offset: 0x8D5094, size: 0x8, addend: 0x0, symName: __ZN6twitch3ios14ATAudioEncoder5startEv, symObjAddr: 0xD1DF4, symBinAddr: 0xCCD20, symSize: 0x150 }
  - { offset: 0x8D59A4, size: 0x8, addend: 0x0, symName: __ZN6twitch3ios14ATAudioEncoder7receiveERKNS_9PCMSampleE, symObjAddr: 0xD18F4, symBinAddr: 0xCC820, symSize: 0x42C }
  - { offset: 0x8D76B7, size: 0x8, addend: 0x0, symName: __ZN6twitch3ios14ATAudioEncoder4stopEv, symObjAddr: 0xD1F44, symBinAddr: 0xCCE70, symSize: 0xBC }
  - { offset: 0x8D8515, size: 0x8, addend: 0x0, symName: __ZN6twitch17PerformanceSampleC2ERKNSt3__112basic_stringIcNS1_11char_traitsIcEENS1_9allocatorIcEEEES9_NS_18PerformanceTracker9EventTypeE, symObjAddr: 0xD3420, symBinAddr: 0xCE2FC, symSize: 0x88 }
  - { offset: 0x8D8B4B, size: 0x8, addend: 0x0, symName: __ZN6twitch3ios14ATAudioEncoderD1Ev, symObjAddr: 0xD1D20, symBinAddr: 0xCCC4C, symSize: 0x4 }
  - { offset: 0x8D8B6F, size: 0x8, addend: 0x0, symName: __ZN6twitch3ios14ATAudioEncoderD1Ev, symObjAddr: 0xD1D20, symBinAddr: 0xCCC4C, symSize: 0x4 }
  - { offset: 0x8D8B7A, size: 0x8, addend: 0x0, symName: __ZN6twitch3ios14ATAudioEncoderD2Ev, symObjAddr: 0xD20A4, symBinAddr: 0xCCFD0, symSize: 0x90 }
  - { offset: 0x8D8F97, size: 0x8, addend: 0x0, symName: __ZN6twitch3ios14ATAudioEncoderD0Ev, symObjAddr: 0xD1D24, symBinAddr: 0xCCC50, symSize: 0x14 }
  - { offset: 0x8D9026, size: 0x8, addend: 0x0, symName: __ZNK6twitch3ios14ATAudioEncoder18getCodecPropertiesEv, symObjAddr: 0xD1D38, symBinAddr: 0xCCC64, symSize: 0x80 }
  - { offset: 0x8D9167, size: 0x8, addend: 0x0, symName: __ZNK6twitch3ios14ATAudioEncoder19getInputAudioFormatEv, symObjAddr: 0xD1DB8, symBinAddr: 0xCCCE4, symSize: 0x8 }
  - { offset: 0x8D9191, size: 0x8, addend: 0x0, symName: __ZN6twitch3ios14ATAudioEncoder10setBitrateEi, symObjAddr: 0xD1DC0, symBinAddr: 0xCCCEC, symSize: 0x34 }
  - { offset: 0x8D994F, size: 0x8, addend: 0x0, symName: __ZThn8_N6twitch3ios14ATAudioEncoderD1Ev, symObjAddr: 0xD2000, symBinAddr: 0xCCF2C, symSize: 0x8 }
  - { offset: 0x8D99AD, size: 0x8, addend: 0x0, symName: __ZThn8_N6twitch3ios14ATAudioEncoderD0Ev, symObjAddr: 0xD2008, symBinAddr: 0xCCF34, symSize: 0x18 }
  - { offset: 0x8D9A0D, size: 0x8, addend: 0x0, symName: __ZThn32_N6twitch3ios14ATAudioEncoderD1Ev, symObjAddr: 0xD2020, symBinAddr: 0xCCF4C, symSize: 0x8 }
  - { offset: 0x8D9A4F, size: 0x8, addend: 0x0, symName: __ZThn32_N6twitch3ios14ATAudioEncoderD0Ev, symObjAddr: 0xD2028, symBinAddr: 0xCCF54, symSize: 0x18 }
  - { offset: 0x8D9BC6, size: 0x8, addend: 0x0, symName: __ZN6twitch6SenderINS_17PerformanceSampleENS_5ErrorEE9setOutputERKNSt3__110shared_ptrINS_8ReceiverIS1_S2_EEEE, symObjAddr: 0xD2040, symBinAddr: 0xCCF6C, symSize: 0x2C }
  - { offset: 0x8D9BFE, size: 0x8, addend: 0x0, symName: __ZN6twitch6SenderINS_17PerformanceSampleENS_5ErrorEE9setOutputERKNSt3__110shared_ptrINS_8ReceiverIS1_S2_EEEE, symObjAddr: 0xD2040, symBinAddr: 0xCCF6C, symSize: 0x2C }
  - { offset: 0x8D9C25, size: 0x8, addend: 0x0, symName: __ZN6twitch6SenderINS_17PerformanceSampleENS_5ErrorEE9setOutputERKNSt3__110shared_ptrINS_8ReceiverIS1_S2_EEEE, symObjAddr: 0xD2040, symBinAddr: 0xCCF6C, symSize: 0x2C }
  - { offset: 0x8D9C43, size: 0x8, addend: 0x0, symName: __ZN6twitch6SenderINS_17PerformanceSampleENS_5ErrorEE9setOutputERKNSt3__110shared_ptrINS_8ReceiverIS1_S2_EEEE, symObjAddr: 0xD2040, symBinAddr: 0xCCF6C, symSize: 0x2C }
  - { offset: 0x8D9D43, size: 0x8, addend: 0x0, symName: __ZN6twitch6SenderINS_17PerformanceSampleENS_5ErrorEE11unsetOutputERKNSt3__110shared_ptrINS_8ReceiverIS1_S2_EEEE, symObjAddr: 0xD206C, symBinAddr: 0xCCF98, symSize: 0x18 }
  - { offset: 0x8D9E2A, size: 0x8, addend: 0x0, symName: __ZThn56_N6twitch3ios14ATAudioEncoderD1Ev, symObjAddr: 0xD2084, symBinAddr: 0xCCFB0, symSize: 0x8 }
  - { offset: 0x8D9E6C, size: 0x8, addend: 0x0, symName: __ZThn56_N6twitch3ios14ATAudioEncoderD0Ev, symObjAddr: 0xD208C, symBinAddr: 0xCCFB8, symSize: 0x18 }
  - { offset: 0x8D9FC6, size: 0x8, addend: 0x0, symName: __ZN6twitch6SenderINS_17PerformanceSampleENS_5ErrorEED1Ev, symObjAddr: 0xD2184, symBinAddr: 0xCD060, symSize: 0xC }
  - { offset: 0x8DA015, size: 0x8, addend: 0x0, symName: __ZN6twitch6SenderINS_17PerformanceSampleENS_5ErrorEED0Ev, symObjAddr: 0xD2190, symBinAddr: 0xCD06C, symSize: 0x1C }
  - { offset: 0x8DA06A, size: 0x8, addend: 0x0, symName: __ZN6twitch12AudioEncoderD1Ev, symObjAddr: 0xD21AC, symBinAddr: 0xCD088, symSize: 0x4 }
  - { offset: 0x8DA089, size: 0x8, addend: 0x0, symName: __ZN6twitch12AudioEncoderD0Ev, symObjAddr: 0xD21B0, symBinAddr: 0xCD08C, symSize: 0x4 }
  - { offset: 0x8DA0A8, size: 0x8, addend: 0x0, symName: __ZN6twitch12AudioEncoder4stopEv, symObjAddr: 0xD21B4, symBinAddr: 0xCD090, symSize: 0x4 }
  - { offset: 0x8DA0E5, size: 0x8, addend: 0x0, symName: __ZThn8_N6twitch12AudioEncoderD1Ev, symObjAddr: 0xD21B8, symBinAddr: 0xCD094, symSize: 0x4 }
  - { offset: 0x8DA0FF, size: 0x8, addend: 0x0, symName: __ZThn8_N6twitch12AudioEncoderD1Ev, symObjAddr: 0xD21B8, symBinAddr: 0xCD094, symSize: 0x4 }
  - { offset: 0x8DA12A, size: 0x8, addend: 0x0, symName: __ZThn8_N6twitch12AudioEncoderD0Ev, symObjAddr: 0xD21BC, symBinAddr: 0xCD098, symSize: 0x4 }
  - { offset: 0x8DA144, size: 0x8, addend: 0x0, symName: __ZThn8_N6twitch12AudioEncoderD0Ev, symObjAddr: 0xD21BC, symBinAddr: 0xCD098, symSize: 0x4 }
  - { offset: 0x8DA155, size: 0x8, addend: 0x0, symName: __ZThn32_N6twitch12AudioEncoderD1Ev, symObjAddr: 0xD21C0, symBinAddr: 0xCD09C, symSize: 0x4 }
  - { offset: 0x8DA16F, size: 0x8, addend: 0x0, symName: __ZThn32_N6twitch12AudioEncoderD1Ev, symObjAddr: 0xD21C0, symBinAddr: 0xCD09C, symSize: 0x4 }
  - { offset: 0x8DA180, size: 0x8, addend: 0x0, symName: __ZThn32_N6twitch12AudioEncoderD0Ev, symObjAddr: 0xD21C4, symBinAddr: 0xCD0A0, symSize: 0x4 }
  - { offset: 0x8DA19A, size: 0x8, addend: 0x0, symName: __ZThn32_N6twitch12AudioEncoderD0Ev, symObjAddr: 0xD21C4, symBinAddr: 0xCD0A0, symSize: 0x4 }
  - { offset: 0x8DA1AB, size: 0x8, addend: 0x0, symName: __ZThn56_N6twitch12AudioEncoderD1Ev, symObjAddr: 0xD21C8, symBinAddr: 0xCD0A4, symSize: 0x4 }
  - { offset: 0x8DA1C5, size: 0x8, addend: 0x0, symName: __ZThn56_N6twitch12AudioEncoderD1Ev, symObjAddr: 0xD21C8, symBinAddr: 0xCD0A4, symSize: 0x4 }
  - { offset: 0x8DA1D6, size: 0x8, addend: 0x0, symName: __ZThn56_N6twitch12AudioEncoderD0Ev, symObjAddr: 0xD21CC, symBinAddr: 0xCD0A8, symSize: 0x4 }
  - { offset: 0x8DA1F0, size: 0x8, addend: 0x0, symName: __ZThn56_N6twitch12AudioEncoderD0Ev, symObjAddr: 0xD21CC, symBinAddr: 0xCD0A8, symSize: 0x4 }
  - { offset: 0x8DA201, size: 0x8, addend: 0x0, symName: '__ZNSt3__110__function6__funcIZN6twitch3ios14ATAudioEncoder4stopEvE3$_0NS_9allocatorIS5_EEFvvEED1Ev', symObjAddr: 0xD21D0, symBinAddr: 0xCD0AC, symSize: 0x4 }
  - { offset: 0x8DA22C, size: 0x8, addend: 0x0, symName: '__ZNSt3__110__function6__funcIZN6twitch3ios14ATAudioEncoder4stopEvE3$_0NS_9allocatorIS5_EEFvvEED0Ev', symObjAddr: 0xD21D4, symBinAddr: 0xCD0B0, symSize: 0x4 }
  - { offset: 0x8DA440, size: 0x8, addend: 0x0, symName: '__ZNKSt3__110__function6__funcIZN6twitch3ios14ATAudioEncoder4stopEvE3$_0NS_9allocatorIS5_EEFvvEE7__cloneEv', symObjAddr: 0xD21D8, symBinAddr: 0xCD0B4, symSize: 0x34 }
  - { offset: 0x8DA75B, size: 0x8, addend: 0x0, symName: '__ZNKSt3__110__function6__funcIZN6twitch3ios14ATAudioEncoder4stopEvE3$_0NS_9allocatorIS5_EEFvvEE7__cloneEPNS0_6__baseIS8_EE', symObjAddr: 0xD220C, symBinAddr: 0xCD0E8, symSize: 0x14 }
  - { offset: 0x8DA794, size: 0x8, addend: 0x0, symName: '__ZNKSt3__110__function6__funcIZN6twitch3ios14ATAudioEncoder4stopEvE3$_0NS_9allocatorIS5_EEFvvEE7__cloneEPNS0_6__baseIS8_EE', symObjAddr: 0xD220C, symBinAddr: 0xCD0E8, symSize: 0x14 }
  - { offset: 0x8DA7C6, size: 0x8, addend: 0x0, symName: '__ZNKSt3__110__function6__funcIZN6twitch3ios14ATAudioEncoder4stopEvE3$_0NS_9allocatorIS5_EEFvvEE7__cloneEPNS0_6__baseIS8_EE', symObjAddr: 0xD220C, symBinAddr: 0xCD0E8, symSize: 0x14 }
  - { offset: 0x8DA7F8, size: 0x8, addend: 0x0, symName: '__ZNKSt3__110__function6__funcIZN6twitch3ios14ATAudioEncoder4stopEvE3$_0NS_9allocatorIS5_EEFvvEE7__cloneEPNS0_6__baseIS8_EE', symObjAddr: 0xD220C, symBinAddr: 0xCD0E8, symSize: 0x14 }
  - { offset: 0x8DA80E, size: 0x8, addend: 0x0, symName: '__ZNKSt3__110__function6__funcIZN6twitch3ios14ATAudioEncoder4stopEvE3$_0NS_9allocatorIS5_EEFvvEE7__cloneEPNS0_6__baseIS8_EE', symObjAddr: 0xD220C, symBinAddr: 0xCD0E8, symSize: 0x14 }
  - { offset: 0x8DA823, size: 0x8, addend: 0x0, symName: '__ZNKSt3__110__function6__funcIZN6twitch3ios14ATAudioEncoder4stopEvE3$_0NS_9allocatorIS5_EEFvvEE7__cloneEPNS0_6__baseIS8_EE', symObjAddr: 0xD220C, symBinAddr: 0xCD0E8, symSize: 0x14 }
  - { offset: 0x8DA838, size: 0x8, addend: 0x0, symName: '__ZNKSt3__110__function6__funcIZN6twitch3ios14ATAudioEncoder4stopEvE3$_0NS_9allocatorIS5_EEFvvEE7__cloneEPNS0_6__baseIS8_EE', symObjAddr: 0xD220C, symBinAddr: 0xCD0E8, symSize: 0x14 }
  - { offset: 0x8DA84D, size: 0x8, addend: 0x0, symName: '__ZNKSt3__110__function6__funcIZN6twitch3ios14ATAudioEncoder4stopEvE3$_0NS_9allocatorIS5_EEFvvEE7__cloneEPNS0_6__baseIS8_EE', symObjAddr: 0xD220C, symBinAddr: 0xCD0E8, symSize: 0x14 }
  - { offset: 0x8DA865, size: 0x8, addend: 0x0, symName: '__ZNSt3__110__function6__funcIZN6twitch3ios14ATAudioEncoder4stopEvE3$_0NS_9allocatorIS5_EEFvvEE7destroyEv', symObjAddr: 0xD2220, symBinAddr: 0xCD0FC, symSize: 0x4 }
  - { offset: 0x8DA8B8, size: 0x8, addend: 0x0, symName: '__ZNSt3__110__function6__funcIZN6twitch3ios14ATAudioEncoder4stopEvE3$_0NS_9allocatorIS5_EEFvvEE18destroy_deallocateEv', symObjAddr: 0xD2224, symBinAddr: 0xCD100, symSize: 0x4 }
  - { offset: 0x8DA8EF, size: 0x8, addend: 0x0, symName: '__ZNSt3__110__function6__funcIZN6twitch3ios14ATAudioEncoder4stopEvE3$_0NS_9allocatorIS5_EEFvvEE18destroy_deallocateEv', symObjAddr: 0xD2224, symBinAddr: 0xCD100, symSize: 0x4 }
  - { offset: 0x8DA914, size: 0x8, addend: 0x0, symName: '__ZNSt3__110__function6__funcIZN6twitch3ios14ATAudioEncoder4stopEvE3$_0NS_9allocatorIS5_EEFvvEE18destroy_deallocateEv', symObjAddr: 0xD2224, symBinAddr: 0xCD100, symSize: 0x4 }
  - { offset: 0x8DA943, size: 0x8, addend: 0x0, symName: '__ZNSt3__110__function6__funcIZN6twitch3ios14ATAudioEncoder4stopEvE3$_0NS_9allocatorIS5_EEFvvEE18destroy_deallocateEv', symObjAddr: 0xD2224, symBinAddr: 0xCD100, symSize: 0x4 }
  - { offset: 0x8DA96C, size: 0x8, addend: 0x0, symName: '__ZNSt3__110__function6__funcIZN6twitch3ios14ATAudioEncoder4stopEvE3$_0NS_9allocatorIS5_EEFvvEE18destroy_deallocateEv', symObjAddr: 0xD2224, symBinAddr: 0xCD100, symSize: 0x4 }
  - { offset: 0x8DAA44, size: 0x8, addend: 0x0, symName: '__ZNSt3__110__function6__funcIZN6twitch3ios14ATAudioEncoder4stopEvE3$_0NS_9allocatorIS5_EEFvvEEclEv', symObjAddr: 0xD2228, symBinAddr: 0xCD104, symSize: 0x34 }
  - { offset: 0x8DAC73, size: 0x8, addend: 0x0, symName: '__ZNSt3__110__function6__funcIZN6twitch3ios14ATAudioEncoder5startEvE3$_0NS_9allocatorIS5_EEFvvEED1Ev', symObjAddr: 0xD225C, symBinAddr: 0xCD138, symSize: 0x30 }
  - { offset: 0x8DADDE, size: 0x8, addend: 0x0, symName: '__ZNSt3__110__function6__funcIZN6twitch3ios14ATAudioEncoder5startEvE3$_0NS_9allocatorIS5_EEFvvEED0Ev', symObjAddr: 0xD228C, symBinAddr: 0xCD168, symSize: 0x30 }
  - { offset: 0x8DB156, size: 0x8, addend: 0x0, symName: '__ZNKSt3__110__function6__funcIZN6twitch3ios14ATAudioEncoder5startEvE3$_0NS_9allocatorIS5_EEFvvEE7__cloneEv', symObjAddr: 0xD22BC, symBinAddr: 0xCD198, symSize: 0x50 }
  - { offset: 0x8DB5AB, size: 0x8, addend: 0x0, symName: '__ZNKSt3__110__function6__funcIZN6twitch3ios14ATAudioEncoder5startEvE3$_0NS_9allocatorIS5_EEFvvEE7__cloneEPNS0_6__baseIS8_EE', symObjAddr: 0xD230C, symBinAddr: 0xCD1E8, symSize: 0x30 }
  - { offset: 0x8DB5E4, size: 0x8, addend: 0x0, symName: '__ZNKSt3__110__function6__funcIZN6twitch3ios14ATAudioEncoder5startEvE3$_0NS_9allocatorIS5_EEFvvEE7__cloneEPNS0_6__baseIS8_EE', symObjAddr: 0xD230C, symBinAddr: 0xCD1E8, symSize: 0x30 }
  - { offset: 0x8DB616, size: 0x8, addend: 0x0, symName: '__ZNKSt3__110__function6__funcIZN6twitch3ios14ATAudioEncoder5startEvE3$_0NS_9allocatorIS5_EEFvvEE7__cloneEPNS0_6__baseIS8_EE', symObjAddr: 0xD230C, symBinAddr: 0xCD1E8, symSize: 0x30 }
  - { offset: 0x8DB860, size: 0x8, addend: 0x0, symName: '__ZNSt3__110__function6__funcIZN6twitch3ios14ATAudioEncoder5startEvE3$_0NS_9allocatorIS5_EEFvvEE7destroyEv', symObjAddr: 0xD233C, symBinAddr: 0xCD218, symSize: 0x8 }
  - { offset: 0x8DB88C, size: 0x8, addend: 0x0, symName: '__ZNSt3__110__function6__funcIZN6twitch3ios14ATAudioEncoder5startEvE3$_0NS_9allocatorIS5_EEFvvEE7destroyEv', symObjAddr: 0xD233C, symBinAddr: 0xCD218, symSize: 0x8 }
  - { offset: 0x8DB8AC, size: 0x8, addend: 0x0, symName: '__ZNSt3__110__function6__funcIZN6twitch3ios14ATAudioEncoder5startEvE3$_0NS_9allocatorIS5_EEFvvEE7destroyEv', symObjAddr: 0xD233C, symBinAddr: 0xCD218, symSize: 0x8 }
  - { offset: 0x8DB8CB, size: 0x8, addend: 0x0, symName: '__ZNSt3__110__function6__funcIZN6twitch3ios14ATAudioEncoder5startEvE3$_0NS_9allocatorIS5_EEFvvEE7destroyEv', symObjAddr: 0xD233C, symBinAddr: 0xCD218, symSize: 0x8 }
  - { offset: 0x8DB8EA, size: 0x8, addend: 0x0, symName: '__ZNSt3__110__function6__funcIZN6twitch3ios14ATAudioEncoder5startEvE3$_0NS_9allocatorIS5_EEFvvEE7destroyEv', symObjAddr: 0xD233C, symBinAddr: 0xCD218, symSize: 0x8 }
  - { offset: 0x8DB909, size: 0x8, addend: 0x0, symName: '__ZNSt3__110__function6__funcIZN6twitch3ios14ATAudioEncoder5startEvE3$_0NS_9allocatorIS5_EEFvvEE7destroyEv', symObjAddr: 0xD233C, symBinAddr: 0xCD218, symSize: 0x8 }
  - { offset: 0x8DB928, size: 0x8, addend: 0x0, symName: '__ZNSt3__110__function6__funcIZN6twitch3ios14ATAudioEncoder5startEvE3$_0NS_9allocatorIS5_EEFvvEE7destroyEv', symObjAddr: 0xD233C, symBinAddr: 0xCD218, symSize: 0x8 }
  - { offset: 0x8DB9A4, size: 0x8, addend: 0x0, symName: '__ZNSt3__110__function6__funcIZN6twitch3ios14ATAudioEncoder5startEvE3$_0NS_9allocatorIS5_EEFvvEE18destroy_deallocateEv', symObjAddr: 0xD2344, symBinAddr: 0xCD220, symSize: 0x28 }
  - { offset: 0x8DC1F5, size: 0x8, addend: 0x0, symName: '__ZNSt3__110__function6__funcIZN6twitch3ios14ATAudioEncoder5startEvE3$_0NS_9allocatorIS5_EEFvvEEclEv', symObjAddr: 0xD236C, symBinAddr: 0xCD248, symSize: 0xB64 }
  - { offset: 0x8DF9C9, size: 0x8, addend: 0x0, symName: __ZN6twitch3ios14ATAudioEncoder20setConverterPropertyEjjPKvb, symObjAddr: 0xD3180, symBinAddr: 0xCE05C, symSize: 0x2A0 }
  - { offset: 0x8E0763, size: 0x8, addend: 0x0, symName: __ZN6twitch3ios14ATAudioEncoder14getEncoderNameEv, symObjAddr: 0xD2ED0, symBinAddr: 0xCDDAC, symSize: 0x2B0 }
  - { offset: 0x8E1BD1, size: 0x8, addend: 0x0, symName: '__ZNSt3__110__function6__funcIZN6twitch3ios14ATAudioEncoder7receiveERKNS2_9PCMSampleEE3$_0NS_9allocatorIS8_EEFvvEED1Ev', symObjAddr: 0xD366C, symBinAddr: 0xCE384, symSize: 0x6C }
  - { offset: 0x8E20B1, size: 0x8, addend: 0x0, symName: '__ZNSt3__110__function6__funcIZN6twitch3ios14ATAudioEncoder7receiveERKNS2_9PCMSampleEE3$_0NS_9allocatorIS8_EEFvvEED0Ev', symObjAddr: 0xD36D8, symBinAddr: 0xCE3F0, symSize: 0x6C }
  - { offset: 0x8E270F, size: 0x8, addend: 0x0, symName: '__ZNKSt3__110__function6__funcIZN6twitch3ios14ATAudioEncoder7receiveERKNS2_9PCMSampleEE3$_0NS_9allocatorIS8_EEFvvEE7__cloneEv', symObjAddr: 0xD3744, symBinAddr: 0xCE45C, symSize: 0x40 }
  - { offset: 0x8E28BA, size: 0x8, addend: 0x0, symName: '__ZNSt3__122__compressed_pair_elemIZN6twitch3ios14ATAudioEncoder7receiveERKNS1_9PCMSampleEE3$_0Li0ELb0EEC2B8nn180100IJRKS7_EJLm0EEEENS_21piecewise_construct_tENS_5tupleIJDpT_EEENS_15__tuple_indicesIJXspT0_EEEE', symObjAddr: 0xD3E94, symBinAddr: 0xCEBAC, symSize: 0x100 }
  - { offset: 0x8E2D53, size: 0x8, addend: 0x0, symName: '__ZNKSt3__110__function6__funcIZN6twitch3ios14ATAudioEncoder7receiveERKNS2_9PCMSampleEE3$_0NS_9allocatorIS8_EEFvvEE7__cloneEPNS0_6__baseISB_EE', symObjAddr: 0xD3784, symBinAddr: 0xCE49C, symSize: 0x1C }
  - { offset: 0x8E2EB6, size: 0x8, addend: 0x0, symName: '__ZNSt3__110__function6__funcIZN6twitch3ios14ATAudioEncoder7receiveERKNS2_9PCMSampleEE3$_0NS_9allocatorIS8_EEFvvEE7destroyEv', symObjAddr: 0xD37A0, symBinAddr: 0xCE4B8, symSize: 0x8 }
  - { offset: 0x8E2EED, size: 0x8, addend: 0x0, symName: '__ZNSt3__110__function12__alloc_funcIZN6twitch3ios14ATAudioEncoder7receiveERKNS2_9PCMSampleEE3$_0NS_9allocatorIS8_EEFvvEE7destroyB8nn180100Ev', symObjAddr: 0xD3E2C, symBinAddr: 0xCEB44, symSize: 0x68 }
  - { offset: 0x8E330F, size: 0x8, addend: 0x0, symName: '__ZNSt3__110__function6__funcIZN6twitch3ios14ATAudioEncoder7receiveERKNS2_9PCMSampleEE3$_0NS_9allocatorIS8_EEFvvEE18destroy_deallocateEv', symObjAddr: 0xD37A8, symBinAddr: 0xCE4C0, symSize: 0x28 }
  - { offset: 0x8E380C, size: 0x8, addend: 0x0, symName: '__ZNSt3__110__function6__funcIZN6twitch3ios14ATAudioEncoder7receiveERKNS2_9PCMSampleEE3$_0NS_9allocatorIS8_EEFvvEEclEv', symObjAddr: 0xD37D0, symBinAddr: 0xCE4E8, symSize: 0x61C }
  - { offset: 0x8E6CB6, size: 0x8, addend: 0x0, symName: __ZNSt3__16vectorIhNS_9allocatorIhEEE7reserveEm, symObjAddr: 0xD3F94, symBinAddr: 0xCECAC, symSize: 0xA4 }
  - { offset: 0x8E7058, size: 0x8, addend: 0x0, symName: __ZZN6twitch23packAudioSpecificConfigERKNS_19AudioSpecificConfigEENKUliiE_clEii, symObjAddr: 0xD4038, symBinAddr: 0xCED50, symSize: 0x18C }
  - { offset: 0x8E71AE, size: 0x8, addend: 0x0, symName: __ZZN6twitch23packAudioSpecificConfigERKNS_19AudioSpecificConfigEENKUliiE_clEii, symObjAddr: 0xD4038, symBinAddr: 0xCED50, symSize: 0x18C }
  - { offset: 0x8E7733, size: 0x8, addend: 0x0, symName: __ZN6twitch3ios14ATAudioSessionD1Ev, symObjAddr: 0xD41C4, symBinAddr: 0xCEEDC, symSize: 0x4 }
  - { offset: 0x93DB6E, size: 0x8, addend: 0x0, symName: __ZNK6twitch3ios11AudioSender6getTagEv, symObjAddr: 0xD9690, symBinAddr: 0xD431C, symSize: 0x2C }
  - { offset: 0x93DB82, size: 0x8, addend: 0x0, symName: __ZNSt3__19__any_imp17__unique_typeinfoINS_6vectorINS_4pairINS_8weak_ptrIN6twitch8ReceiverINS5_9PCMSampleENS5_5ErrorEEEEES8_EENS_9allocatorISB_EEEEE4__idE, symObjAddr: 0x192810, symBinAddr: 0x1A90E0, symSize: 0x0 }
  - { offset: 0x944C67, size: 0x8, addend: 0x0, symName: __ZNSt3__19__any_imp17__unique_typeinfoINS_6vectorINS_4pairINS_8weak_ptrIN6twitch8ReceiverINS5_11ErrorSampleENS5_5ErrorEEEEES8_EENS_9allocatorISB_EEEEE4__idE, symObjAddr: 0x19287C, symBinAddr: 0x1A914C, symSize: 0x0 }
  - { offset: 0x945171, size: 0x8, addend: 0x0, symName: __ZNK6twitch3ios11AudioSender6getTagEv, symObjAddr: 0xD9690, symBinAddr: 0xD431C, symSize: 0x2C }
  - { offset: 0x9451CA, size: 0x8, addend: 0x0, symName: __ZNK6twitch3ios11AudioSender6getTagEv, symObjAddr: 0xD9690, symBinAddr: 0xD431C, symSize: 0x2C }
  - { offset: 0x94575E, size: 0x8, addend: 0x0, symName: __ZN6twitch11MultiSenderINS_9PCMSampleENS_5ErrorEE9setOutputERKNSt3__110shared_ptrINS_8ReceiverIS1_S2_EEEE, symObjAddr: 0xD96BC, symBinAddr: 0xD4348, symSize: 0x1B4 }
  - { offset: 0x945F28, size: 0x8, addend: 0x0, symName: __ZN6twitch3ios11AudioSenderD1Ev, symObjAddr: 0xD9870, symBinAddr: 0xD44FC, symSize: 0xA8 }
  - { offset: 0x94614E, size: 0x8, addend: 0x0, symName: __ZN6twitch3ios11AudioSenderD1Ev, symObjAddr: 0xD9870, symBinAddr: 0xD44FC, symSize: 0xA8 }
  - { offset: 0x94645B, size: 0x8, addend: 0x0, symName: __ZN6twitch3ios11AudioSenderD0Ev, symObjAddr: 0xD9918, symBinAddr: 0xD45A4, symSize: 0xA8 }
  - { offset: 0x946766, size: 0x8, addend: 0x0, symName: __ZN6twitch3ios11AudioSender7receiveERKNS_9PCMSampleE, symObjAddr: 0xD99C0, symBinAddr: 0xD464C, symSize: 0x10 }
  - { offset: 0x9467A1, size: 0x8, addend: 0x0, symName: __ZN6twitch11MultiSenderINS_9PCMSampleENS_5ErrorEE4sendIS2_Li0EEES2_RKS1_, symObjAddr: 0xDABB0, symBinAddr: 0xD562C, symSize: 0x70C }
  - { offset: 0x94995F, size: 0x8, addend: 0x0, symName: __ZN6twitch3ios11AudioSender7receiveERKNS_11ErrorSampleE, symObjAddr: 0xD99D0, symBinAddr: 0xD465C, symSize: 0x10 }
  - { offset: 0x94999A, size: 0x8, addend: 0x0, symName: __ZN6twitch11MultiSenderINS_11ErrorSampleENS_5ErrorEE4sendIS2_Li0EEES2_RKS1_, symObjAddr: 0xDA0D4, symBinAddr: 0xD4D60, symSize: 0x70C }
  - { offset: 0x94CFC3, size: 0x8, addend: 0x0, symName: __ZN6twitch11MultiSenderINS_11ErrorSampleENS_5ErrorEE9setOutputERKNSt3__110shared_ptrINS_8ReceiverIS1_S2_EEEE, symObjAddr: 0xD99E0, symBinAddr: 0xD466C, symSize: 0x1B4 }
  - { offset: 0x94D78D, size: 0x8, addend: 0x0, symName: __ZThn40_N6twitch3ios11AudioSenderD1Ev, symObjAddr: 0xD9B94, symBinAddr: 0xD4820, symSize: 0xA4 }
  - { offset: 0x94D79A, size: 0x8, addend: 0x0, symName: __ZThn40_N6twitch3ios11AudioSenderD1Ev, symObjAddr: 0xD9B94, symBinAddr: 0xD4820, symSize: 0xA4 }
  - { offset: 0x94DAAB, size: 0x8, addend: 0x0, symName: __ZThn40_N6twitch3ios11AudioSenderD0Ev, symObjAddr: 0xD9C38, symBinAddr: 0xD48C4, symSize: 0xAC }
  - { offset: 0x94DDF9, size: 0x8, addend: 0x0, symName: __ZThn80_N6twitch3ios11AudioSender7receiveERKNS_9PCMSampleE, symObjAddr: 0xD9CE4, symBinAddr: 0xD4970, symSize: 0x10 }
  - { offset: 0x94DE43, size: 0x8, addend: 0x0, symName: __ZThn80_N6twitch3ios11AudioSenderD1Ev, symObjAddr: 0xD9CF4, symBinAddr: 0xD4980, symSize: 0xA4 }
  - { offset: 0x94E134, size: 0x8, addend: 0x0, symName: __ZThn80_N6twitch3ios11AudioSenderD0Ev, symObjAddr: 0xD9D98, symBinAddr: 0xD4A24, symSize: 0xAC }
  - { offset: 0x94E47B, size: 0x8, addend: 0x0, symName: __ZThn88_N6twitch3ios11AudioSender7receiveERKNS_11ErrorSampleE, symObjAddr: 0xD9E44, symBinAddr: 0xD4AD0, symSize: 0x10 }
  - { offset: 0x94E4C7, size: 0x8, addend: 0x0, symName: __ZThn88_N6twitch3ios11AudioSenderD1Ev, symObjAddr: 0xD9E54, symBinAddr: 0xD4AE0, symSize: 0xA4 }
  - { offset: 0x94E7B8, size: 0x8, addend: 0x0, symName: __ZThn88_N6twitch3ios11AudioSenderD0Ev, symObjAddr: 0xD9EF8, symBinAddr: 0xD4B84, symSize: 0xAC }
  - { offset: 0x94EADB, size: 0x8, addend: 0x0, symName: __ZN6twitch11MultiSenderINS_9PCMSampleENS_5ErrorEED1Ev, symObjAddr: 0xD9FA4, symBinAddr: 0xD4C30, symSize: 0x4C }
  - { offset: 0x94EBD3, size: 0x8, addend: 0x0, symName: __ZN6twitch11MultiSenderINS_9PCMSampleENS_5ErrorEED0Ev, symObjAddr: 0xD9FF0, symBinAddr: 0xD4C7C, symSize: 0x4C }
  - { offset: 0x94ECD7, size: 0x8, addend: 0x0, symName: __ZN6twitch11MultiSenderINS_11ErrorSampleENS_5ErrorEED1Ev, symObjAddr: 0xDA03C, symBinAddr: 0xD4CC8, symSize: 0x4C }
  - { offset: 0x94EDCF, size: 0x8, addend: 0x0, symName: __ZN6twitch11MultiSenderINS_11ErrorSampleENS_5ErrorEED0Ev, symObjAddr: 0xDA088, symBinAddr: 0xD4D14, symSize: 0x4C }
  - { offset: 0x94FC58, size: 0x8, addend: 0x0, symName: __ZN6twitch16MultiSenderErrorINS_11ErrorSampleENS_5ErrorEE14receiverErrorsEv, symObjAddr: 0xDA7E0, symBinAddr: 0xD546C, symSize: 0x3C }
  - { offset: 0x95019E, size: 0x8, addend: 0x0, symName: __ZNSt3__19__any_imp13_SmallHandlerINS_6vectorINS_4pairINS_8weak_ptrIN6twitch8ReceiverINS5_11ErrorSampleENS5_5ErrorEEEEES8_EENS_9allocatorISB_EEEEE8__handleB8nn180100ENS0_7_ActionEPKNS_3anyEPSH_PKSt9type_infoPKv, symObjAddr: 0xDA9BC, symBinAddr: 0xD54A8, symSize: 0x184 }
  - { offset: 0x95132B, size: 0x8, addend: 0x0, symName: __ZN6twitch16MultiSenderErrorINS_9PCMSampleENS_5ErrorEE14receiverErrorsEv, symObjAddr: 0xDB2BC, symBinAddr: 0xD5D38, symSize: 0x3C }
  - { offset: 0x95186F, size: 0x8, addend: 0x0, symName: __ZNSt3__19__any_imp13_SmallHandlerINS_6vectorINS_4pairINS_8weak_ptrIN6twitch8ReceiverINS5_9PCMSampleENS5_5ErrorEEEEES8_EENS_9allocatorISB_EEEEE8__handleB8nn180100ENS0_7_ActionEPKNS_3anyEPSH_PKSt9type_infoPKv, symObjAddr: 0xDB498, symBinAddr: 0xD5D74, symSize: 0x184 }
  - { offset: 0x9F1CCC, size: 0x8, addend: 0x0, symName: _EVP_get_digestbyobj, symObjAddr: 0xF7CB0, symBinAddr: 0xF1F58, symSize: 0xF8 }
  - { offset: 0x9F1CED, size: 0x8, addend: 0x0, symName: _nid_to_digest_mapping, symObjAddr: 0x1D77C8, symBinAddr: 0x1DE780, symSize: 0x0 }
  - { offset: 0x9F1D5E, size: 0x8, addend: 0x0, symName: _kMDOIDs, symObjAddr: 0x193788, symBinAddr: 0x1AA058, symSize: 0x0 }
  - { offset: 0x9F1EE7, size: 0x8, addend: 0x0, symName: _EVP_get_digestbyobj, symObjAddr: 0xF7CB0, symBinAddr: 0xF1F58, symSize: 0xF8 }
  - { offset: 0xD1749F, size: 0x8, addend: 0x0, symName: __ZN4bsslL25tls_on_handshake_completeEP6ssl_st, symObjAddr: 0x185AD4, symBinAddr: 0x17D378, symSize: 0x20 }
  - { offset: 0xD174BE, size: 0x8, addend: 0x0, symName: __ZN4bsslL18kTLSProtocolMethodE, symObjAddr: 0x1E8178, symBinAddr: 0x1EF130, symSize: 0x0 }
  - { offset: 0xD174CC, size: 0x8, addend: 0x0, symName: __ZN4bsslL25tls_on_handshake_completeEP6ssl_st, symObjAddr: 0x185AD4, symBinAddr: 0x17D378, symSize: 0x20 }
  - { offset: 0xD17589, size: 0x8, addend: 0x0, symName: __ZN4bsslL18tls_set_read_stateEP6ssl_st22ssl_encryption_level_tNSt3__110unique_ptrINS_14SSLAEADContextENS_8internal7DeleterIS5_EEEENS_4SpanIKhEE, symObjAddr: 0x185AF4, symBinAddr: 0x17D398, symSize: 0xCC }
  - { offset: 0xD176E6, size: 0x8, addend: 0x0, symName: __ZN4bsslL19tls_set_write_stateEP6ssl_st22ssl_encryption_level_tNSt3__110unique_ptrINS_14SSLAEADContextENS_8internal7DeleterIS5_EEEENS_4SpanIKhEE, symObjAddr: 0x185BC0, symBinAddr: 0x17D464, symSize: 0xA0 }
  - { offset: 0xA29BC4, size: 0x8, addend: 0x0, symName: _X509_verify_cert, symObjAddr: 0x10793C, symBinAddr: 0x101B84, symSize: 0xAF8 }
  - { offset: 0xA29BD2, size: 0x8, addend: 0x0, symName: _X509_cmp_time, symObjAddr: 0x108FCC, symBinAddr: 0x103214, symSize: 0x38C }
  - { offset: 0xA2A188, size: 0x8, addend: 0x0, symName: _g_ex_data_class.5727, symObjAddr: 0x2023D8, symBinAddr: 0x1FFD68, symSize: 0x0 }
  - { offset: 0xA2A225, size: 0x8, addend: 0x0, symName: _check_chain_extensions, symObjAddr: 0x108440, symBinAddr: 0x102688, symSize: 0x290 }
  - { offset: 0xA2BF56, size: 0x8, addend: 0x0, symName: _X509_verify_cert, symObjAddr: 0x10793C, symBinAddr: 0x101B84, symSize: 0xAF8 }
  - { offset: 0xA2D170, size: 0x8, addend: 0x0, symName: _check_id, symObjAddr: 0x1086D0, symBinAddr: 0x102918, symSize: 0x218 }
  - { offset: 0xA2D54E, size: 0x8, addend: 0x0, symName: _internal_verify, symObjAddr: 0x1088E8, symBinAddr: 0x102B30, symSize: 0x338 }
  - { offset: 0xA2D881, size: 0x8, addend: 0x0, symName: _check_name_constraints, symObjAddr: 0x108C20, symBinAddr: 0x102E68, symSize: 0x3AC }
  - { offset: 0xA2E0E3, size: 0x8, addend: 0x0, symName: _sk_X509_call_free_func.5726, symObjAddr: 0x108434, symBinAddr: 0x10267C, symSize: 0xC }
  - { offset: 0xA2E343, size: 0x8, addend: 0x0, symName: _crl_extension_match, symObjAddr: 0x109358, symBinAddr: 0x1035A0, symSize: 0x138 }
  - { offset: 0xA2E728, size: 0x8, addend: 0x0, symName: _X509_STORE_CTX_cleanup, symObjAddr: 0x109490, symBinAddr: 0x1036D8, symSize: 0x110 }
  - { offset: 0xA2E9CF, size: 0x8, addend: 0x0, symName: _X509_STORE_CTX_init, symObjAddr: 0x1095A0, symBinAddr: 0x1037E8, symSize: 0x260 }
  - { offset: 0xA2EB48, size: 0x8, addend: 0x0, symName: _check_issued, symObjAddr: 0x109800, symBinAddr: 0x103A48, symSize: 0xEC }
  - { offset: 0xA2EC6A, size: 0x8, addend: 0x0, symName: _null_callback, symObjAddr: 0x1098EC, symBinAddr: 0x103B34, symSize: 0x4 }
  - { offset: 0xA2EE10, size: 0x8, addend: 0x0, symName: _check_revocation, symObjAddr: 0x1098F0, symBinAddr: 0x103B38, symSize: 0x354 }
  - { offset: 0xA2F3A9, size: 0x8, addend: 0x0, symName: _get_crl_sk, symObjAddr: 0x10AC60, symBinAddr: 0x104EA8, symSize: 0x844 }
  - { offset: 0xA301BC, size: 0x8, addend: 0x0, symName: _check_crl, symObjAddr: 0x109C44, symBinAddr: 0x103E8C, symSize: 0x350 }
  - { offset: 0xA306A0, size: 0x8, addend: 0x0, symName: _check_crl_time, symObjAddr: 0x10AB68, symBinAddr: 0x104DB0, symSize: 0xF8 }
  - { offset: 0xA30787, size: 0x8, addend: 0x0, symName: _cert_crl, symObjAddr: 0x109F94, symBinAddr: 0x1041DC, symSize: 0xC4 }
  - { offset: 0xA30882, size: 0x8, addend: 0x0, symName: _check_policy, symObjAddr: 0x10A058, symBinAddr: 0x1042A0, symSize: 0xB10 }
  - { offset: 0xAE07B7, size: 0x8, addend: 0x0, symName: __ZN6twitch14FeatureRollout4rollEv, symObjAddr: 0x122634, symBinAddr: 0x11B9FC, symSize: 0x30 }
  - { offset: 0xAE44A1, size: 0x8, addend: 0x0, symName: __ZNSt3__114__split_bufferINS_4pairINS_12basic_stringIcNS_11char_traitsIcEENS_9allocatorIcEEEEdEERNS5_IS8_EEED2Ev, symObjAddr: 0x123F88, symBinAddr: 0x11D214, symSize: 0x60 }
  - { offset: 0xAE44B5, size: 0x8, addend: 0x0, symName: __ZNSt3__1plB8nn180100IcNS_11char_traitsIcEENS_9allocatorIcEEEENS_12basic_stringIT_T0_T1_EEPKS6_OS9_, symObjAddr: 0x124290, symBinAddr: 0x11D45C, symSize: 0x60 }
  - { offset: 0xAE7D5F, size: 0x8, addend: 0x0, symName: __ZN6twitch14FeatureRollout4rollEv, symObjAddr: 0x122634, symBinAddr: 0x11B9FC, symSize: 0x30 }
  - { offset: 0xAE822C, size: 0x8, addend: 0x0, symName: __ZN6twitch14FeatureRollout11parseSchemaERKNSt3__13mapINS1_12basic_stringIcNS1_11char_traitsIcEENS1_9allocatorIcEEEENS_4JsonENS1_4lessIS8_EENS6_INS1_4pairIKS8_S9_EEEEEE, symObjAddr: 0x122664, symBinAddr: 0x11BA2C, symSize: 0x11F4 }
  - { offset: 0xAEFEC9, size: 0x8, addend: 0x0, symName: __ZNSt3__16vectorINS_4pairINS_12basic_stringIcNS_11char_traitsIcEENS_9allocatorIcEEEEdEENS5_IS8_EEE16__init_with_sizeB8nn180100IPS8_SC_EEvT_T0_m, symObjAddr: 0x123858, symBinAddr: 0x11CC20, symSize: 0xBC }
  - { offset: 0xAEFEDE, size: 0x8, addend: 0x0, symName: __ZNSt3__114__split_bufferINS_4pairINS_12basic_stringIcNS_11char_traitsIcEENS_9allocatorIcEEEEdEERNS5_IS8_EEED2Ev, symObjAddr: 0x123F88, symBinAddr: 0x11D214, symSize: 0x60 }
  - { offset: 0xAF02FF, size: 0x8, addend: 0x0, symName: __ZN6twitch14FeatureRollout11createErrorERKNSt3__112basic_stringIcNS1_11char_traitsIcEENS1_9allocatorIcEEEENS_4Json4TypeESB_, symObjAddr: 0x123FE8, symBinAddr: 0x11D274, symSize: 0x1E8 }
  - { offset: 0xAF10BB, size: 0x8, addend: 0x0, symName: __ZNSt3__16vectorINS_4pairINS_12basic_stringIcNS_11char_traitsIcEENS_9allocatorIcEEEEdEENS5_IS8_EEE16__destroy_vectorclB8nn180100Ev, symObjAddr: 0x123914, symBinAddr: 0x11CCDC, symSize: 0x78 }
  - { offset: 0xAF1346, size: 0x8, addend: 0x0, symName: __ZNSt3__16vectorINS_4pairINS_12basic_stringIcNS_11char_traitsIcEENS_9allocatorIcEEEEdEENS5_IS8_EEE16__init_with_sizeB8nn180100IPS8_SC_EEvT_T0_m, symObjAddr: 0x123858, symBinAddr: 0x11CC20, symSize: 0xBC }
  - { offset: 0xAF168B, size: 0x8, addend: 0x0, symName: __ZNSt3__16vectorINS_4pairINS_12basic_stringIcNS_11char_traitsIcEENS_9allocatorIcEEEEdEENS5_IS8_EEE16__destroy_vectorclB8nn180100Ev, symObjAddr: 0x123914, symBinAddr: 0x11CCDC, symSize: 0x78 }
  - { offset: 0xAF16A8, size: 0x8, addend: 0x0, symName: __ZN6twitch4util8expectedINS_14FeatureRollout6SchemaENS_5ErrorEEC2IS3_EEOT_, symObjAddr: 0x1242F0, symBinAddr: 0x11D4BC, symSize: 0x84 }
  - { offset: 0xAF1835, size: 0x8, addend: 0x0, symName: __ZN6twitch14FeatureRollout6SchemaD1Ev, symObjAddr: 0x123DAC, symBinAddr: 0x11D174, symSize: 0x44 }
  - { offset: 0xAF2250, size: 0x8, addend: 0x0, symName: __ZNSt3__112__hash_tableINS_17__hash_value_typeINS_12basic_stringIcNS_11char_traitsIcEENS_9allocatorIcEEEEdEENS_22__unordered_map_hasherIS7_S8_NS_4hashIS7_EENS_8equal_toIS7_EELb1EEENS_21__unordered_map_equalIS7_S8_SD_SB_Lb1EEENS5_IS8_EEE25__emplace_unique_key_argsIS7_JRKNS_21piecewise_construct_tENS_5tupleIJRKS7_EEENSN_IJEEEEEENS_4pairINS_15__hash_iteratorIPNS_11__hash_nodeIS8_PvEEEEbEERKT_DpOT0_, symObjAddr: 0x12398C, symBinAddr: 0x11CD54, symSize: 0x420 }
  - { offset: 0xAF2EDE, size: 0x8, addend: 0x0, symName: __ZN6twitch14FeatureRollout6SchemaD1Ev, symObjAddr: 0x123DAC, symBinAddr: 0x11D174, symSize: 0x44 }
  - { offset: 0xAF2F0B, size: 0x8, addend: 0x0, symName: __ZN6twitch4util8expectedINS_14FeatureRollout6SchemaENS_5ErrorEED2Ev, symObjAddr: 0x123DF0, symBinAddr: 0x11D1B8, symSize: 0x5C }
  - { offset: 0xA4F7FE, size: 0x8, addend: 0x0, symName: _i2v_ASN1_BIT_STRING, symObjAddr: 0x10FFC8, symBinAddr: 0x10A210, symSize: 0x9C }
  - { offset: 0xA4F817, size: 0x8, addend: 0x0, symName: _v3_nscert, symObjAddr: 0x1E39D0, symBinAddr: 0x1EA988, symSize: 0x0 }
  - { offset: 0xA50E1A, size: 0x8, addend: 0x0, symName: _v3_key_usage, symObjAddr: 0x1E3D78, symBinAddr: 0x1EAD30, symSize: 0x0 }
  - { offset: 0xA50E30, size: 0x8, addend: 0x0, symName: _ns_cert_type_table, symObjAddr: 0x1E28A0, symBinAddr: 0x1E9858, symSize: 0x0 }
  - { offset: 0xA50EA0, size: 0x8, addend: 0x0, symName: _key_usage_type_table, symObjAddr: 0x1E2978, symBinAddr: 0x1E9930, symSize: 0x0 }
  - { offset: 0xA50F0D, size: 0x8, addend: 0x0, symName: _i2v_ASN1_BIT_STRING, symObjAddr: 0x10FFC8, symBinAddr: 0x10A210, symSize: 0x9C }
  - { offset: 0xA50FF4, size: 0x8, addend: 0x0, symName: _v2i_ASN1_BIT_STRING, symObjAddr: 0x110064, symBinAddr: 0x10A2AC, symSize: 0x15C }
  - { offset: 0xB3AFAA, size: 0x8, addend: 0x0, symName: __ZN6twitch14HEVCParsedNalu11ScalingListC2Ev, symObjAddr: 0x142E98, symBinAddr: 0x13C018, symSize: 0x94 }
  - { offset: 0xB3AFBE, size: 0x8, addend: 0x0, symName: __ZN6twitch14HEVCParsedNalu17QuantTSDefault4x4E, symObjAddr: 0x19D650, symBinAddr: 0x1B3F18, symSize: 0x0 }
  - { offset: 0xB3AFD2, size: 0x8, addend: 0x0, symName: __ZN6twitch14HEVCParsedNalu20QuantIntraDefault8x8E, symObjAddr: 0x19D690, symBinAddr: 0x1B3F58, symSize: 0x0 }
  - { offset: 0xB3AFE6, size: 0x8, addend: 0x0, symName: __ZN6twitch14HEVCParsedNalu20QuantInterDefault8x8E, symObjAddr: 0x19D790, symBinAddr: 0x1B4058, symSize: 0x0 }
  - { offset: 0xB3AFFA, size: 0x8, addend: 0x0, symName: __ZN6twitch14HEVCParsedNalu15ScalingListSizeE, symObjAddr: 0x19D890, symBinAddr: 0x1B4158, symSize: 0x0 }
  - { offset: 0xB3B00E, size: 0x8, addend: 0x0, symName: __ZN6twitch17HEVCParsedSpsNalu10m_winUnitXE, symObjAddr: 0x19D8A0, symBinAddr: 0x1B4168, symSize: 0x0 }
  - { offset: 0xB3B022, size: 0x8, addend: 0x0, symName: __ZN6twitch17HEVCParsedSpsNalu10m_winUnitYE, symObjAddr: 0x19D8B0, symBinAddr: 0x1B4178, symSize: 0x0 }
  - { offset: 0xB3BF23, size: 0x8, addend: 0x0, symName: __ZN6twitch10HEVCParser16parseScalingListERNS_12AVCBitReaderERNS_14HEVCParsedNalu11ScalingListE, symObjAddr: 0x143454, symBinAddr: 0x13C5A0, symSize: 0x1F4 }
  - { offset: 0xB3E5AB, size: 0x8, addend: 0x0, symName: __ZN6twitch14HEVCParsedNalu11ScalingListC2Ev, symObjAddr: 0x142E98, symBinAddr: 0x13C018, symSize: 0x94 }
  - { offset: 0xB3E64C, size: 0x8, addend: 0x0, symName: __ZNSt3__16vectorIiNS_9allocatorIiEEE6resizeEm, symObjAddr: 0x142F2C, symBinAddr: 0x13C0AC, symSize: 0x100 }
  - { offset: 0xB3EAA1, size: 0x8, addend: 0x0, symName: __ZN6twitch10HEVCParser16parseProfileTierERNS_12AVCBitReaderERNS_14HEVCParsedNalu16ProfileTierLevelE, symObjAddr: 0x14302C, symBinAddr: 0x13C1AC, symSize: 0x84 }
  - { offset: 0xB3EDBA, size: 0x8, addend: 0x0, symName: __ZN6twitch10HEVCParser16parseProfileTierERNS_12AVCBitReaderERNS_14HEVCParsedNalu16ProfileTierLevelE, symObjAddr: 0x14302C, symBinAddr: 0x13C1AC, symSize: 0x84 }
  - { offset: 0xB3EE5A, size: 0x8, addend: 0x0, symName: __ZN6twitch10HEVCParser8parsePTLERNS_12AVCBitReaderERNS_14HEVCParsedNalu3PTLEbi, symObjAddr: 0x1430B0, symBinAddr: 0x13C230, symSize: 0xE0 }
  - { offset: 0xB3EFA2, size: 0x8, addend: 0x0, symName: __ZN6twitch10HEVCParser18parseHrdParametersERNS_12AVCBitReaderERNS_14HEVCParsedNalu3HRDEbj, symObjAddr: 0x143190, symBinAddr: 0x13C310, symSize: 0x290 }
  - { offset: 0xB3F36D, size: 0x8, addend: 0x0, symName: __ZN6twitch10HEVCParser16parseScalingListERNS_12AVCBitReaderERNS_14HEVCParsedNalu11ScalingListE, symObjAddr: 0x143454, symBinAddr: 0x13C5A0, symSize: 0x1F4 }
  - { offset: 0xB4129B, size: 0x8, addend: 0x0, symName: __ZN6twitch10HEVCParser25getExtradataFromVpsSpsPpsERKNSt3__16vectorIhNS1_9allocatorIhEEEES7_S7_, symObjAddr: 0x143648, symBinAddr: 0x13C794, symSize: 0x24E8 }
  - { offset: 0xB460D3, size: 0x8, addend: 0x0, symName: __ZN6twitch14BufferedSocket10flushCacheEv, symObjAddr: 0x145B30, symBinAddr: 0x13EC7C, symSize: 0xD24 }
  - { offset: 0x8C69C1, size: 0x8, addend: 0x0, symName: __ZN6twitchL18matrixConstantsMapE, symObjAddr: 0x34F21F8, symBinAddr: 0x200F58, symSize: 0x0 }
  - { offset: 0x8CB312, size: 0x8, addend: 0x0, symName: __ZNSt3__113unordered_mapIN6twitch11YCbCrMatrixENS1_20YCbCrMatrixConstantsENS_4hashIS2_EENS_8equal_toIS2_EENS_9allocatorINS_4pairIKS2_S3_EEEEED1B8nn180100Ev, symObjAddr: 0xD13A8, symBinAddr: 0xCC2D4, symSize: 0x48 }
  - { offset: 0x8CBDF4, size: 0x8, addend: 0x0, symName: __ZN6twitch13PictureSampleC1ERKNSt3__110shared_ptrINS_11ImageBufferEEENS_10AccessModeENS_9MediaTimeE, symObjAddr: 0xD13F0, symBinAddr: 0xCC31C, symSize: 0x1DC }
  - { offset: 0x8CCDFB, size: 0x8, addend: 0x0, symName: __ZNK6twitch13PictureSample14getAspectRatioEv, symObjAddr: 0xD15CC, symBinAddr: 0xCC4F8, symSize: 0xB8 }
  - { offset: 0x8CD098, size: 0x8, addend: 0x0, symName: __ZN6twitch13PictureSample19setPresentationTimeENS_9MediaTimeE, symObjAddr: 0xD1684, symBinAddr: 0xCC5B0, symSize: 0xD8 }
  - { offset: 0x8CD6F4, size: 0x8, addend: 0x0, symName: __ZNK6twitch13PictureSample25kernelNameForConvertingToENS_11PixelFormatE, symObjAddr: 0xD175C, symBinAddr: 0xCC688, symSize: 0x7C }
  - { offset: 0x8CD8E1, size: 0x8, addend: 0x0, symName: __ZNK6twitch13PictureSample20yCbCrMatrixConstantsEv, symObjAddr: 0xD17D8, symBinAddr: 0xCC704, symSize: 0x11C }
  - { offset: 0x89869F, size: 0x8, addend: 0x0, symName: __ZN6twitch3BusINS_14StageArnSampleEE7receiveERKS1_, symObjAddr: 0xCC56C, symBinAddr: 0xC7868, symSize: 0x718 }
  - { offset: 0x89C169, size: 0x8, addend: 0x0, symName: __ZN6twitch3BusINS_14StageArnSampleEE7receiveERKS1_, symObjAddr: 0xCC56C, symBinAddr: 0xC7868, symSize: 0x718 }
  - { offset: 0x89F721, size: 0x8, addend: 0x0, symName: __ZN6twitch3BusINS_14StageArnSampleEED1Ev, symObjAddr: 0xCCC84, symBinAddr: 0xC7F80, symSize: 0x64 }
  - { offset: 0x89FCBE, size: 0x8, addend: 0x0, symName: __ZN6twitch3BusINS_14StageArnSampleEED1Ev, symObjAddr: 0xCCC84, symBinAddr: 0xC7F80, symSize: 0x64 }
  - { offset: 0x89FDC6, size: 0x8, addend: 0x0, symName: __ZN6twitch3BusINS_14StageArnSampleEED0Ev, symObjAddr: 0xCCCE8, symBinAddr: 0xC7FE4, symSize: 0x64 }
  - { offset: 0x8A021C, size: 0x8, addend: 0x0, symName: __ZN6twitch3BusINS_14StageArnSampleEE9setOutputERKNSt3__110shared_ptrINS_8ReceiverIS1_NS_5ErrorEEEEE, symObjAddr: 0xCCD4C, symBinAddr: 0xC8048, symSize: 0x13C }
  - { offset: 0x8A094D, size: 0x8, addend: 0x0, symName: __ZN6twitch3BusINS_14StageArnSampleEE11unsetOutputERKNSt3__110shared_ptrINS_8ReceiverIS1_NS_5ErrorEEEEE, symObjAddr: 0xCCE88, symBinAddr: 0xC8184, symSize: 0x1B8 }
  - { offset: 0x8A0A2A, size: 0x8, addend: 0x0, symName: __ZN6twitch3BusINS_14StageArnSampleEE11unsetOutputERKNSt3__110shared_ptrINS_8ReceiverIS1_NS_5ErrorEEEEE, symObjAddr: 0xCCE88, symBinAddr: 0xC8184, symSize: 0x1B8 }
  - { offset: 0x8A0EF1, size: 0x8, addend: 0x0, symName: __ZThn8_N6twitch3BusINS_14StageArnSampleEE9setOutputERKNSt3__110shared_ptrINS_8ReceiverIS1_NS_5ErrorEEEEE, symObjAddr: 0xCD040, symBinAddr: 0xC833C, symSize: 0x8 }
  - { offset: 0x8A0F16, size: 0x8, addend: 0x0, symName: __ZThn8_N6twitch3BusINS_14StageArnSampleEE11unsetOutputERKNSt3__110shared_ptrINS_8ReceiverIS1_NS_5ErrorEEEEE, symObjAddr: 0xCD048, symBinAddr: 0xC8344, symSize: 0x8 }
  - { offset: 0x8A0F3B, size: 0x8, addend: 0x0, symName: __ZThn8_N6twitch3BusINS_14StageArnSampleEED1Ev, symObjAddr: 0xCD050, symBinAddr: 0xC834C, symSize: 0x58 }
  - { offset: 0x8A1056, size: 0x8, addend: 0x0, symName: __ZThn8_N6twitch3BusINS_14StageArnSampleEED0Ev, symObjAddr: 0xCD0A8, symBinAddr: 0xC83A4, symSize: 0x68 }
  - { offset: 0x8A1177, size: 0x8, addend: 0x0, symName: __ZThn16_N6twitch3BusINS_14StageArnSampleEED1Ev, symObjAddr: 0xCD110, symBinAddr: 0xC840C, symSize: 0x58 }
  - { offset: 0x8A1278, size: 0x8, addend: 0x0, symName: __ZThn16_N6twitch3BusINS_14StageArnSampleEED0Ev, symObjAddr: 0xCD168, symBinAddr: 0xC8464, symSize: 0x64 }
  - { offset: 0x8A13FB, size: 0x8, addend: 0x0, symName: __ZN6twitch7ISenderINS_14StageArnSampleENS_5ErrorEED1Ev, symObjAddr: 0xCD254, symBinAddr: 0xC84C8, symSize: 0x4 }
  - { offset: 0x8A1422, size: 0x8, addend: 0x0, symName: __ZN6twitch7ISenderINS_14StageArnSampleENS_5ErrorEED0Ev, symObjAddr: 0xCD258, symBinAddr: 0xC84CC, symSize: 0x4 }
  - { offset: 0x8A15DD, size: 0x8, addend: 0x0, symName: __ZNSt3__120__shared_ptr_emplaceIN6twitch3BusINS1_14StageArnSampleEEENS_9allocatorIS4_EEED1Ev, symObjAddr: 0xCD4FC, symBinAddr: 0xC84D0, symSize: 0x10 }
  - { offset: 0x8A1601, size: 0x8, addend: 0x0, symName: __ZNSt3__120__shared_ptr_emplaceIN6twitch3BusINS1_14StageArnSampleEEENS_9allocatorIS4_EEED1Ev, symObjAddr: 0xCD4FC, symBinAddr: 0xC84D0, symSize: 0x10 }
  - { offset: 0x8A1638, size: 0x8, addend: 0x0, symName: __ZNSt3__120__shared_ptr_emplaceIN6twitch3BusINS1_14StageArnSampleEEENS_9allocatorIS4_EEED0Ev, symObjAddr: 0xCD50C, symBinAddr: 0xC84E0, symSize: 0x20 }
  - { offset: 0x8A1707, size: 0x8, addend: 0x0, symName: __ZNSt3__120__shared_ptr_emplaceIN6twitch3BusINS1_14StageArnSampleEEENS_9allocatorIS4_EEE16__on_zero_sharedEv, symObjAddr: 0xCD52C, symBinAddr: 0xC8500, symSize: 0xC }
  - { offset: 0x8A1731, size: 0x8, addend: 0x0, symName: __ZNSt3__120__shared_ptr_emplaceIN6twitch3BusINS1_14StageArnSampleEEENS_9allocatorIS4_EEE16__on_zero_sharedEv, symObjAddr: 0xCD52C, symBinAddr: 0xC8500, symSize: 0xC }
  - { offset: 0x8A1751, size: 0x8, addend: 0x0, symName: __ZNSt3__120__shared_ptr_emplaceIN6twitch3BusINS1_14StageArnSampleEEENS_9allocatorIS4_EEE16__on_zero_sharedEv, symObjAddr: 0xCD52C, symBinAddr: 0xC8500, symSize: 0xC }
  - { offset: 0x8A1771, size: 0x8, addend: 0x0, symName: __ZNSt3__120__shared_ptr_emplaceIN6twitch3BusINS1_14StageArnSampleEEENS_9allocatorIS4_EEE16__on_zero_sharedEv, symObjAddr: 0xCD52C, symBinAddr: 0xC8500, symSize: 0xC }
  - { offset: 0x8A17FA, size: 0x8, addend: 0x0, symName: __ZNSt3__120__shared_ptr_emplaceIN6twitch3BusINS1_14StageArnSampleEEENS_9allocatorIS4_EEE21__on_zero_shared_weakEv, symObjAddr: 0xCD538, symBinAddr: 0xC850C, symSize: 0x4 }
  - { offset: 0x8A182F, size: 0x8, addend: 0x0, symName: __ZNSt3__120__shared_ptr_emplaceIN6twitch3BusINS1_14StageArnSampleEEENS_9allocatorIS4_EEE21__on_zero_shared_weakEv, symObjAddr: 0xCD538, symBinAddr: 0xC850C, symSize: 0x4 }
  - { offset: 0x8A1854, size: 0x8, addend: 0x0, symName: __ZNSt3__120__shared_ptr_emplaceIN6twitch3BusINS1_14StageArnSampleEEENS_9allocatorIS4_EEE21__on_zero_shared_weakEv, symObjAddr: 0xCD538, symBinAddr: 0xC850C, symSize: 0x4 }
  - { offset: 0x8A1879, size: 0x8, addend: 0x0, symName: __ZNSt3__120__shared_ptr_emplaceIN6twitch3BusINS1_14StageArnSampleEEENS_9allocatorIS4_EEE21__on_zero_shared_weakEv, symObjAddr: 0xCD538, symBinAddr: 0xC850C, symSize: 0x4 }
  - { offset: 0x8A18A9, size: 0x8, addend: 0x0, symName: __ZNSt3__120__shared_ptr_emplaceIN6twitch3BusINS1_14StageArnSampleEEENS_9allocatorIS4_EEE21__on_zero_shared_weakEv, symObjAddr: 0xCD538, symBinAddr: 0xC850C, symSize: 0x4 }
  - { offset: 0x8A18D3, size: 0x8, addend: 0x0, symName: __ZNSt3__120__shared_ptr_emplaceIN6twitch3BusINS1_14StageArnSampleEEENS_9allocatorIS4_EEE21__on_zero_shared_weakEv, symObjAddr: 0xCD538, symBinAddr: 0xC850C, symSize: 0x4 }
  - { offset: 0xA0A0A4, size: 0x8, addend: 0x0, symName: _rsa_pub_decode, symObjAddr: 0x100990, symBinAddr: 0xFAC38, symSize: 0x184 }
  - { offset: 0xA0A0BD, size: 0x8, addend: 0x0, symName: _rsa_asn1_meth, symObjAddr: 0x1D7E90, symBinAddr: 0x1DEE48, symSize: 0x0 }
  - { offset: 0xA0A873, size: 0x8, addend: 0x0, symName: _rsa_pub_decode, symObjAddr: 0x100990, symBinAddr: 0xFAC38, symSize: 0x184 }
  - { offset: 0xA0AB58, size: 0x8, addend: 0x0, symName: _rsa_pub_encode, symObjAddr: 0x100B14, symBinAddr: 0xFADBC, symSize: 0x148 }
  - { offset: 0xA0ACDA, size: 0x8, addend: 0x0, symName: _rsa_pub_cmp, symObjAddr: 0x100C5C, symBinAddr: 0xFAF04, symSize: 0x50 }
  - { offset: 0xA0AD33, size: 0x8, addend: 0x0, symName: _rsa_priv_decode, symObjAddr: 0x100CAC, symBinAddr: 0xFAF54, symSize: 0x228 }
  - { offset: 0xA0B0F6, size: 0x8, addend: 0x0, symName: _rsa_priv_encode, symObjAddr: 0x100ED4, symBinAddr: 0xFB17C, symSize: 0x1B8 }
  - { offset: 0xA0B2D2, size: 0x8, addend: 0x0, symName: _rsa_opaque, symObjAddr: 0x10108C, symBinAddr: 0xFB334, symSize: 0x20 }
  - { offset: 0xA0B31D, size: 0x8, addend: 0x0, symName: _int_rsa_size, symObjAddr: 0x1010AC, symBinAddr: 0xFB354, symSize: 0x38 }
  - { offset: 0xA0B3C4, size: 0x8, addend: 0x0, symName: _rsa_bits, symObjAddr: 0x1010E4, symBinAddr: 0xFB38C, symSize: 0xC }
  - { offset: 0xA0B41B, size: 0x8, addend: 0x0, symName: _int_rsa_free, symObjAddr: 0x1010F0, symBinAddr: 0xFB398, symSize: 0x8 }
  - { offset: 0xA65C80, size: 0x8, addend: 0x0, symName: _v2i_NAME_CONSTRAINTS, symObjAddr: 0x112DE0, symBinAddr: 0x10D028, symSize: 0x1E0 }
  - { offset: 0xA65C99, size: 0x8, addend: 0x0, symName: _v3_name_constraints, symObjAddr: 0x1E4498, symBinAddr: 0x1EB450, symSize: 0x0 }
  - { offset: 0xA67396, size: 0x8, addend: 0x0, symName: _GENERAL_SUBTREE_it, symObjAddr: 0x1E4578, symBinAddr: 0x1EB530, symSize: 0x0 }
  - { offset: 0xA673AB, size: 0x8, addend: 0x0, symName: _NAME_CONSTRAINTS_it, symObjAddr: 0x1E4460, symBinAddr: 0x1EB418, symSize: 0x0 }
  - { offset: 0xA673C1, size: 0x8, addend: 0x0, symName: _GENERAL_SUBTREE_seq_tt, symObjAddr: 0x1E4500, symBinAddr: 0x1EB4B8, symSize: 0x0 }
  - { offset: 0xA673EA, size: 0x8, addend: 0x0, symName: _NAME_CONSTRAINTS_seq_tt, symObjAddr: 0x1E45B0, symBinAddr: 0x1EB568, symSize: 0x0 }
  - { offset: 0xA67835, size: 0x8, addend: 0x0, symName: _v2i_NAME_CONSTRAINTS, symObjAddr: 0x112DE0, symBinAddr: 0x10D028, symSize: 0x1E0 }
  - { offset: 0xA67C03, size: 0x8, addend: 0x0, symName: _i2r_NAME_CONSTRAINTS, symObjAddr: 0x112FC0, symBinAddr: 0x10D208, symSize: 0x60 }
  - { offset: 0xA67C86, size: 0x8, addend: 0x0, symName: _do_i2r_name_constraints, symObjAddr: 0x113020, symBinAddr: 0x10D268, symSize: 0x1D4 }
  - { offset: 0xA67F54, size: 0x8, addend: 0x0, symName: _nc_match, symObjAddr: 0x1131F4, symBinAddr: 0x10D43C, symSize: 0x138 }
  - { offset: 0xA68112, size: 0x8, addend: 0x0, symName: _nc_match_single, symObjAddr: 0x11332C, symBinAddr: 0x10D574, symSize: 0x2BC }
  - { offset: 0x419CE7, size: 0x8, addend: 0x0, symName: __ZN6twitch17NWNetworkLinkInfoD1Ev, symObjAddr: 0x620E0, symBinAddr: 0x62214, symSize: 0x4 }
  - { offset: 0x41C09B, size: 0x8, addend: 0x0, symName: ____ZN6twitch17NWNetworkLinkInfoC2ENSt3__110shared_ptrINS_9SchedulerEEEPU28objcproto17OS_dispatch_queue8NSObject_block_invoke, symObjAddr: 0x62258, symBinAddr: 0x6238C, symSize: 0xF8 }
  - { offset: 0x41C6CD, size: 0x8, addend: 0x0, symName: __ZN6twitch17NWNetworkLinkInfoD1Ev, symObjAddr: 0x620E0, symBinAddr: 0x62214, symSize: 0x4 }
  - { offset: 0x41C6F1, size: 0x8, addend: 0x0, symName: __ZN6twitch17NWNetworkLinkInfoD1Ev, symObjAddr: 0x620E0, symBinAddr: 0x62214, symSize: 0x4 }
  - { offset: 0x41C6FC, size: 0x8, addend: 0x0, symName: __ZN6twitch17NWNetworkLinkInfoD2Ev, symObjAddr: 0x621A8, symBinAddr: 0x622DC, symSize: 0x9C }
  - { offset: 0x41C761, size: 0x8, addend: 0x0, symName: __ZN6twitch17NWNetworkLinkInfoD0Ev, symObjAddr: 0x620E4, symBinAddr: 0x62218, symSize: 0x14 }
  - { offset: 0x41C7AE, size: 0x8, addend: 0x0, symName: __ZN6twitch17NWNetworkLinkInfo14getNetworkTypeEv, symObjAddr: 0x620F8, symBinAddr: 0x6222C, symSize: 0x38 }
  - { offset: 0x41C7D7, size: 0x8, addend: 0x0, symName: __ZN6twitch17NWNetworkLinkInfo20getDownlinkBandwidthEv, symObjAddr: 0x62130, symBinAddr: 0x62264, symSize: 0x8 }
  - { offset: 0x41C7FC, size: 0x8, addend: 0x0, symName: __ZN6twitch17NWNetworkLinkInfo8getStateEv, symObjAddr: 0x62138, symBinAddr: 0x6226C, symSize: 0x8 }
  - { offset: 0x41C825, size: 0x8, addend: 0x0, symName: __ZN6twitch17NWNetworkLinkInfo11setListenerEPNS_15NetworkLinkInfo8ListenerE, symObjAddr: 0x62140, symBinAddr: 0x62274, symSize: 0x8 }
  - { offset: 0x41C85A, size: 0x8, addend: 0x0, symName: __ZThn8_N6twitch17NWNetworkLinkInfoD1Ev, symObjAddr: 0x62148, symBinAddr: 0x6227C, symSize: 0x8 }
  - { offset: 0x41C8B8, size: 0x8, addend: 0x0, symName: __ZThn8_N6twitch17NWNetworkLinkInfoD0Ev, symObjAddr: 0x62150, symBinAddr: 0x62284, symSize: 0x18 }
  - { offset: 0x41C92E, size: 0x8, addend: 0x0, symName: __ZNK6twitch15ScopedScheduler14checkIsCurrentEv, symObjAddr: 0x62168, symBinAddr: 0x6229C, symSize: 0x10 }
  - { offset: 0x41C958, size: 0x8, addend: 0x0, symName: __ZNK6twitch15ScopedScheduler14checkIsCurrentEv, symObjAddr: 0x62168, symBinAddr: 0x6229C, symSize: 0x10 }
  - { offset: 0x41C981, size: 0x8, addend: 0x0, symName: __ZNK6twitch15ScopedScheduler17checkIsNotCurrentEv, symObjAddr: 0x62178, symBinAddr: 0x622AC, symSize: 0x10 }
  - { offset: 0x41C9AB, size: 0x8, addend: 0x0, symName: __ZNK6twitch15ScopedScheduler17checkIsNotCurrentEv, symObjAddr: 0x62178, symBinAddr: 0x622AC, symSize: 0x10 }
  - { offset: 0x41C9D4, size: 0x8, addend: 0x0, symName: __ZThn16_N6twitch17NWNetworkLinkInfoD1Ev, symObjAddr: 0x62188, symBinAddr: 0x622BC, symSize: 0x8 }
  - { offset: 0x41CA16, size: 0x8, addend: 0x0, symName: __ZThn16_N6twitch17NWNetworkLinkInfoD0Ev, symObjAddr: 0x62190, symBinAddr: 0x622C4, symSize: 0x18 }
  - { offset: 0x41CA78, size: 0x8, addend: 0x0, symName: ____ZN6twitch17NWNetworkLinkInfoD2Ev_block_invoke, symObjAddr: 0x62244, symBinAddr: 0x62378, symSize: 0x14 }
  - { offset: 0x41CFBB, size: 0x8, addend: 0x0, symName: '__ZNSt3__110__function6__funcIZZN6twitch17NWNetworkLinkInfoC1ENS_10shared_ptrINS2_9SchedulerEEEPU28objcproto17OS_dispatch_queue8NSObjectEUb_E3$_1NS_9allocatorISA_EEFvvEED1Ev', symObjAddr: 0x62350, symBinAddr: 0x62484, symSize: 0x28 }
  - { offset: 0x41D0F8, size: 0x8, addend: 0x0, symName: '__ZNSt3__110__function6__funcIZZN6twitch17NWNetworkLinkInfoC1ENS_10shared_ptrINS2_9SchedulerEEEPU28objcproto17OS_dispatch_queue8NSObjectEUb_E3$_1NS_9allocatorISA_EEFvvEED0Ev', symObjAddr: 0x62378, symBinAddr: 0x624AC, symSize: 0x28 }
  - { offset: 0x41D46C, size: 0x8, addend: 0x0, symName: '__ZNKSt3__110__function6__funcIZZN6twitch17NWNetworkLinkInfoC1ENS_10shared_ptrINS2_9SchedulerEEEPU28objcproto17OS_dispatch_queue8NSObjectEUb_E3$_1NS_9allocatorISA_EEFvvEE7__cloneEv', symObjAddr: 0x623A0, symBinAddr: 0x624D4, symSize: 0x44 }
  - { offset: 0x41D78F, size: 0x8, addend: 0x0, symName: '__ZNKSt3__110__function6__funcIZZN6twitch17NWNetworkLinkInfoC1ENS_10shared_ptrINS2_9SchedulerEEEPU28objcproto17OS_dispatch_queue8NSObjectEUb_E3$_1NS_9allocatorISA_EEFvvEE7__cloneEPNS0_6__baseISD_EE', symObjAddr: 0x623E4, symBinAddr: 0x62518, symSize: 0x34 }
  - { offset: 0x41D8EE, size: 0x8, addend: 0x0, symName: '__ZNSt3__110__function6__funcIZZN6twitch17NWNetworkLinkInfoC1ENS_10shared_ptrINS2_9SchedulerEEEPU28objcproto17OS_dispatch_queue8NSObjectEUb_E3$_1NS_9allocatorISA_EEFvvEE7destroyEv', symObjAddr: 0x62418, symBinAddr: 0x6254C, symSize: 0x8 }
  - { offset: 0x41D91A, size: 0x8, addend: 0x0, symName: '__ZNSt3__110__function6__funcIZZN6twitch17NWNetworkLinkInfoC1ENS_10shared_ptrINS2_9SchedulerEEEPU28objcproto17OS_dispatch_queue8NSObjectEUb_E3$_1NS_9allocatorISA_EEFvvEE7destroyEv', symObjAddr: 0x62418, symBinAddr: 0x6254C, symSize: 0x8 }
  - { offset: 0x41D93A, size: 0x8, addend: 0x0, symName: '__ZNSt3__110__function6__funcIZZN6twitch17NWNetworkLinkInfoC1ENS_10shared_ptrINS2_9SchedulerEEEPU28objcproto17OS_dispatch_queue8NSObjectEUb_E3$_1NS_9allocatorISA_EEFvvEE7destroyEv', symObjAddr: 0x62418, symBinAddr: 0x6254C, symSize: 0x8 }
  - { offset: 0x41D959, size: 0x8, addend: 0x0, symName: '__ZNSt3__110__function6__funcIZZN6twitch17NWNetworkLinkInfoC1ENS_10shared_ptrINS2_9SchedulerEEEPU28objcproto17OS_dispatch_queue8NSObjectEUb_E3$_1NS_9allocatorISA_EEFvvEE7destroyEv', symObjAddr: 0x62418, symBinAddr: 0x6254C, symSize: 0x8 }
  - { offset: 0x41D978, size: 0x8, addend: 0x0, symName: '__ZNSt3__110__function6__funcIZZN6twitch17NWNetworkLinkInfoC1ENS_10shared_ptrINS2_9SchedulerEEEPU28objcproto17OS_dispatch_queue8NSObjectEUb_E3$_1NS_9allocatorISA_EEFvvEE7destroyEv', symObjAddr: 0x62418, symBinAddr: 0x6254C, symSize: 0x8 }
  - { offset: 0x41D997, size: 0x8, addend: 0x0, symName: '__ZNSt3__110__function6__funcIZZN6twitch17NWNetworkLinkInfoC1ENS_10shared_ptrINS2_9SchedulerEEEPU28objcproto17OS_dispatch_queue8NSObjectEUb_E3$_1NS_9allocatorISA_EEFvvEE7destroyEv', symObjAddr: 0x62418, symBinAddr: 0x6254C, symSize: 0x8 }
  - { offset: 0x41D9B6, size: 0x8, addend: 0x0, symName: '__ZNSt3__110__function6__funcIZZN6twitch17NWNetworkLinkInfoC1ENS_10shared_ptrINS2_9SchedulerEEEPU28objcproto17OS_dispatch_queue8NSObjectEUb_E3$_1NS_9allocatorISA_EEFvvEE7destroyEv', symObjAddr: 0x62418, symBinAddr: 0x6254C, symSize: 0x8 }
  - { offset: 0x41DA06, size: 0x8, addend: 0x0, symName: '__ZNSt3__110__function6__funcIZZN6twitch17NWNetworkLinkInfoC1ENS_10shared_ptrINS2_9SchedulerEEEPU28objcproto17OS_dispatch_queue8NSObjectEUb_E3$_1NS_9allocatorISA_EEFvvEE18destroy_deallocateEv', symObjAddr: 0x62420, symBinAddr: 0x62554, symSize: 0x28 }
  - { offset: 0x41DC39, size: 0x8, addend: 0x0, symName: '__ZNSt3__110__function6__funcIZZN6twitch17NWNetworkLinkInfoC1ENS_10shared_ptrINS2_9SchedulerEEEPU28objcproto17OS_dispatch_queue8NSObjectEUb_E3$_1NS_9allocatorISA_EEFvvEEclEv', symObjAddr: 0x62448, symBinAddr: 0x6257C, symSize: 0xBC }
  - { offset: 0x41DD66, size: 0x8, addend: 0x0, symName: ____ZN6twitch17NWNetworkLinkInfo8onUpdateEPU21objcproto10OS_nw_path8NSObject_block_invoke, symObjAddr: 0x62504, symBinAddr: 0x62638, symSize: 0x2C }
  - { offset: 0x41DDC5, size: 0x8, addend: 0x0, symName: __ZN6twitch15NetworkLinkInfoD1Ev, symObjAddr: 0x62530, symBinAddr: 0x62664, symSize: 0x4 }
  - { offset: 0x41DDEC, size: 0x8, addend: 0x0, symName: __ZN6twitch15NetworkLinkInfoD0Ev, symObjAddr: 0x62534, symBinAddr: 0x62668, symSize: 0x4 }
  - { offset: 0x41DEB1, size: 0x8, addend: 0x0, symName: __ZN6twitch17NWNetworkLinkInfoC1ENSt3__110shared_ptrINS_9SchedulerEEEPU28objcproto17OS_dispatch_queue8NSObject, symObjAddr: 0x62538, symBinAddr: 0x6266C, symSize: 0x154 }
  - { offset: 0xA56414, size: 0x8, addend: 0x0, symName: _dpn_cb, symObjAddr: 0x11102C, symBinAddr: 0x10B274, symSize: 0x58 }
  - { offset: 0xA5642D, size: 0x8, addend: 0x0, symName: _v3_crld, symObjAddr: 0x1E40B8, symBinAddr: 0x1EB070, symSize: 0x0 }
  - { offset: 0xA57B2A, size: 0x8, addend: 0x0, symName: _v3_freshest_crl, symObjAddr: 0x1E43F8, symBinAddr: 0x1EB3B0, symSize: 0x0 }
  - { offset: 0xA57B41, size: 0x8, addend: 0x0, symName: _DIST_POINT_NAME_it, symObjAddr: 0x1E2E88, symBinAddr: 0x1E9E40, symSize: 0x0 }
  - { offset: 0xA57B58, size: 0x8, addend: 0x0, symName: _DIST_POINT_it, symObjAddr: 0x1E2F38, symBinAddr: 0x1E9EF0, symSize: 0x0 }
  - { offset: 0xA57B6F, size: 0x8, addend: 0x0, symName: _CRL_DIST_POINTS_it, symObjAddr: 0x1E2DE0, symBinAddr: 0x1E9D98, symSize: 0x0 }
  - { offset: 0xA57B86, size: 0x8, addend: 0x0, symName: _ISSUING_DIST_POINT_it, symObjAddr: 0x1E3088, symBinAddr: 0x1EA040, symSize: 0x0 }
  - { offset: 0xA57B9D, size: 0x8, addend: 0x0, symName: _v3_idp, symObjAddr: 0x1E4390, symBinAddr: 0x1EB348, symSize: 0x0 }
  - { offset: 0xA57BB3, size: 0x8, addend: 0x0, symName: _reason_flags, symObjAddr: 0x1E30C0, symBinAddr: 0x1EA078, symSize: 0x0 }
  - { offset: 0xA57C24, size: 0x8, addend: 0x0, symName: _DIST_POINT_NAME_ch_tt, symObjAddr: 0x1E2E18, symBinAddr: 0x1E9DD0, symSize: 0x0 }
  - { offset: 0xA57C47, size: 0x8, addend: 0x0, symName: _DIST_POINT_NAME_aux, symObjAddr: 0x1E2E68, symBinAddr: 0x1E9E20, symSize: 0x0 }
  - { offset: 0xA57CF6, size: 0x8, addend: 0x0, symName: _DIST_POINT_seq_tt, symObjAddr: 0x1E2EC0, symBinAddr: 0x1E9E78, symSize: 0x0 }
  - { offset: 0xA57D19, size: 0x8, addend: 0x0, symName: _CRL_DIST_POINTS_item_tt, symObjAddr: 0x1E2F70, symBinAddr: 0x1E9F28, symSize: 0x0 }
  - { offset: 0xA57D30, size: 0x8, addend: 0x0, symName: _ISSUING_DIST_POINT_seq_tt, symObjAddr: 0x1E2F98, symBinAddr: 0x1E9F50, symSize: 0x0 }
  - { offset: 0xA5804D, size: 0x8, addend: 0x0, symName: _dpn_cb, symObjAddr: 0x11102C, symBinAddr: 0x10B274, symSize: 0x58 }
  - { offset: 0xA58293, size: 0x8, addend: 0x0, symName: _v2i_crld, symObjAddr: 0x111084, symBinAddr: 0x10B2CC, symSize: 0x3B0 }
  - { offset: 0xA58C7B, size: 0x8, addend: 0x0, symName: _set_dist_point_name, symObjAddr: 0x1117E0, symBinAddr: 0x10BA28, symSize: 0x2FC }
  - { offset: 0xA59391, size: 0x8, addend: 0x0, symName: _gnames_from_sectname, symObjAddr: 0x111C28, symBinAddr: 0x10BE70, symSize: 0x214 }
  - { offset: 0xA599D7, size: 0x8, addend: 0x0, symName: _set_reasons, symObjAddr: 0x111ADC, symBinAddr: 0x10BD24, symSize: 0x14C }
  - { offset: 0xA59D35, size: 0x8, addend: 0x0, symName: _i2r_crldp, symObjAddr: 0x111434, symBinAddr: 0x10B67C, symSize: 0xF8 }
  - { offset: 0xA59EB3, size: 0x8, addend: 0x0, symName: _print_distpoint, symObjAddr: 0x11152C, symBinAddr: 0x10B774, symSize: 0xC4 }
  - { offset: 0xA59F91, size: 0x8, addend: 0x0, symName: _print_reasons, symObjAddr: 0x1115F0, symBinAddr: 0x10B838, symSize: 0x134 }
  - { offset: 0xA5A13F, size: 0x8, addend: 0x0, symName: _print_gens, symObjAddr: 0x111724, symBinAddr: 0x10B96C, symSize: 0xBC }
  - { offset: 0xA5A3D7, size: 0x8, addend: 0x0, symName: _v2i_idp, symObjAddr: 0x111E3C, symBinAddr: 0x10C084, symSize: 0x20C }
  - { offset: 0xA5A6A5, size: 0x8, addend: 0x0, symName: _i2r_idp, symObjAddr: 0x112048, symBinAddr: 0x10C290, symSize: 0x170 }
  - { offset: 0xA5A774, size: 0x8, addend: 0x0, symName: _DIST_POINT_set_dpname, symObjAddr: 0x1121B8, symBinAddr: 0x10C400, symSize: 0xE8 }
  - { offset: 0x9AFAA7, size: 0x8, addend: 0x0, symName: __ZN6twitch3ios14VTVideoEncoder7receiveERKNS_13PictureSampleE, symObjAddr: 0xE7DCC, symBinAddr: 0xE2074, symSize: 0x61C }
  - { offset: 0x9AFB1F, size: 0x8, addend: 0x0, symName: __ZN6twitch3iosL15getProfileLevelERKNS_10VideoCodecE, symObjAddr: 0xEA930, symBinAddr: 0xE4BD8, symSize: 0x64 }
  - { offset: 0x9AFB95, size: 0x8, addend: 0x0, symName: __ZN6twitch3iosL15getProfileLevelERKNS_10VideoCodecE, symObjAddr: 0xEA930, symBinAddr: 0xE4BD8, symSize: 0x64 }
  - { offset: 0x9B3630, size: 0x8, addend: 0x0, symName: ____ZN6twitch3ios14VTVideoEncoder7receiveERKNS_13PictureSampleE_block_invoke, symObjAddr: 0xEAA04, symBinAddr: 0xE4CAC, symSize: 0x42C }
  - { offset: 0x9B54FC, size: 0x8, addend: 0x0, symName: __ZN6twitch3ios14VTVideoEncoder7receiveERKNS_13PictureSampleE, symObjAddr: 0xE7DCC, symBinAddr: 0xE2074, symSize: 0x61C }
  - { offset: 0x9B6B46, size: 0x8, addend: 0x0, symName: __ZN6twitch3ios14VTVideoEncoder22handleCompressionErrorEiRKNS_9MediaTimeERKNSt3__112basic_stringIcNS5_11char_traitsIcEENS5_9allocatorIcEEEE, symObjAddr: 0xEAE30, symBinAddr: 0xE50D8, symSize: 0x9C8 }
  - { offset: 0x9BC211, size: 0x8, addend: 0x0, symName: __ZN6twitch3ios14VTVideoEncoderD1Ev, symObjAddr: 0xE83E8, symBinAddr: 0xE2690, symSize: 0x4 }
  - { offset: 0x9BC235, size: 0x8, addend: 0x0, symName: __ZN6twitch3ios14VTVideoEncoderD1Ev, symObjAddr: 0xE83E8, symBinAddr: 0xE2690, symSize: 0x4 }
  - { offset: 0x9BC240, size: 0x8, addend: 0x0, symName: __ZN6twitch3ios14VTVideoEncoderD2Ev, symObjAddr: 0xE87EC, symBinAddr: 0xE2A94, symSize: 0xD4 }
  - { offset: 0x9BCAC4, size: 0x8, addend: 0x0, symName: __ZN6twitch3ios14VTVideoEncoderD0Ev, symObjAddr: 0xE83EC, symBinAddr: 0xE2694, symSize: 0x14 }
  - { offset: 0x9BCB53, size: 0x8, addend: 0x0, symName: __ZNK6twitch3ios14VTVideoEncoder18getCodecPropertiesEv, symObjAddr: 0xE8400, symBinAddr: 0xE26A8, symSize: 0xCC }
  - { offset: 0x9BCDE4, size: 0x8, addend: 0x0, symName: __ZN6twitch3ios14VTVideoEncoder15requestKeyframeEv, symObjAddr: 0xE84CC, symBinAddr: 0xE2774, symSize: 0x10 }
  - { offset: 0x9BCE8E, size: 0x8, addend: 0x0, symName: __ZN6twitch3ios14VTVideoEncoder10setBitrateEi, symObjAddr: 0xE84DC, symBinAddr: 0xE2784, symSize: 0x48 }
  - { offset: 0x9BCFC8, size: 0x8, addend: 0x0, symName: __ZN6twitch3ios14VTVideoEncoder16setBitrateLockedEiP26OpaqueVTCompressionSession, symObjAddr: 0xEA09C, symBinAddr: 0xE4344, symSize: 0x46C }
  - { offset: 0x9BEEAA, size: 0x8, addend: 0x0, symName: __ZN6twitch3ios14VTVideoEncoder5startEv, symObjAddr: 0xE8524, symBinAddr: 0xE27CC, symSize: 0x44 }
  - { offset: 0x9BEFB3, size: 0x8, addend: 0x0, symName: __ZN6twitch3ios14VTVideoEncoder11startLockedEv, symObjAddr: 0xE89B0, symBinAddr: 0xE2C58, symSize: 0x8EC }
  - { offset: 0x9C2950, size: 0x8, addend: 0x0, symName: __ZN6twitch3ios14VTVideoEncoder4stopEv, symObjAddr: 0xE8568, symBinAddr: 0xE2810, symSize: 0x34 }
  - { offset: 0x9C2A4D, size: 0x8, addend: 0x0, symName: __ZN6twitch3ios14VTVideoEncoder10stopLockedEv, symObjAddr: 0xE88C0, symBinAddr: 0xE2B68, symSize: 0x68 }
  - { offset: 0x9C2C8C, size: 0x8, addend: 0x0, symName: __ZN6twitch3ios14VTVideoEncoder18restartIfNecessaryEv, symObjAddr: 0xE859C, symBinAddr: 0xE2844, symSize: 0xC4 }
  - { offset: 0x9C2F53, size: 0x8, addend: 0x0, symName: __ZN6twitch3ios14VTVideoEncoder5flushEv, symObjAddr: 0xE8660, symBinAddr: 0xE2908, symSize: 0x5C }
  - { offset: 0x9C2F62, size: 0x8, addend: 0x0, symName: __ZN6twitch3ios14VTVideoEncoder5flushEv, symObjAddr: 0xE8660, symBinAddr: 0xE2908, symSize: 0x5C }
  - { offset: 0x9C30A2, size: 0x8, addend: 0x0, symName: __ZNK6twitch3ios14VTVideoEncoder20preferredPixelFormatEv, symObjAddr: 0xE86BC, symBinAddr: 0xE2964, symSize: 0x8 }
  - { offset: 0x9C31D3, size: 0x8, addend: 0x0, symName: __ZN6twitch3ios14VTVideoEncoder23setBFramesForceDisabledEb, symObjAddr: 0xE86C4, symBinAddr: 0xE296C, symSize: 0xE8 }
  - { offset: 0x9C34CB, size: 0x8, addend: 0x0, symName: __ZThn8_N6twitch3ios14VTVideoEncoderD1Ev, symObjAddr: 0xE87AC, symBinAddr: 0xE2A54, symSize: 0x8 }
  - { offset: 0x9C3529, size: 0x8, addend: 0x0, symName: __ZThn8_N6twitch3ios14VTVideoEncoderD0Ev, symObjAddr: 0xE87B4, symBinAddr: 0xE2A5C, symSize: 0x18 }
  - { offset: 0x9C3589, size: 0x8, addend: 0x0, symName: __ZThn32_N6twitch3ios14VTVideoEncoderD1Ev, symObjAddr: 0xE87CC, symBinAddr: 0xE2A74, symSize: 0x8 }
  - { offset: 0x9C35CB, size: 0x8, addend: 0x0, symName: __ZThn32_N6twitch3ios14VTVideoEncoderD0Ev, symObjAddr: 0xE87D4, symBinAddr: 0xE2A7C, symSize: 0x18 }
  - { offset: 0x9C386C, size: 0x8, addend: 0x0, symName: __ZN6twitch5CFRefIP26OpaqueVTCompressionSessionED1Ev, symObjAddr: 0xE8928, symBinAddr: 0xE2BD0, symSize: 0x38 }
  - { offset: 0x9C38CC, size: 0x8, addend: 0x0, symName: __ZN6twitch5CFRefIP26OpaqueVTCompressionSessionED0Ev, symObjAddr: 0xE8960, symBinAddr: 0xE2C08, symSize: 0x38 }
  - { offset: 0x9C3952, size: 0x8, addend: 0x0, symName: __ZN6twitch12VideoEncoderD1Ev, symObjAddr: 0xE8998, symBinAddr: 0xE2C40, symSize: 0x4 }
  - { offset: 0x9C3971, size: 0x8, addend: 0x0, symName: __ZN6twitch12VideoEncoderD0Ev, symObjAddr: 0xE899C, symBinAddr: 0xE2C44, symSize: 0x4 }
  - { offset: 0x9C39AA, size: 0x8, addend: 0x0, symName: __ZThn8_N6twitch12VideoEncoderD1Ev, symObjAddr: 0xE89A0, symBinAddr: 0xE2C48, symSize: 0x4 }
  - { offset: 0x9C39C4, size: 0x8, addend: 0x0, symName: __ZThn8_N6twitch12VideoEncoderD1Ev, symObjAddr: 0xE89A0, symBinAddr: 0xE2C48, symSize: 0x4 }
  - { offset: 0x9C39EF, size: 0x8, addend: 0x0, symName: __ZThn8_N6twitch12VideoEncoderD0Ev, symObjAddr: 0xE89A4, symBinAddr: 0xE2C4C, symSize: 0x4 }
  - { offset: 0x9C3A09, size: 0x8, addend: 0x0, symName: __ZThn8_N6twitch12VideoEncoderD0Ev, symObjAddr: 0xE89A4, symBinAddr: 0xE2C4C, symSize: 0x4 }
  - { offset: 0x9C3A1A, size: 0x8, addend: 0x0, symName: __ZThn32_N6twitch12VideoEncoderD1Ev, symObjAddr: 0xE89A8, symBinAddr: 0xE2C50, symSize: 0x4 }
  - { offset: 0x9C3A34, size: 0x8, addend: 0x0, symName: __ZThn32_N6twitch12VideoEncoderD1Ev, symObjAddr: 0xE89A8, symBinAddr: 0xE2C50, symSize: 0x4 }
  - { offset: 0x9C3A45, size: 0x8, addend: 0x0, symName: __ZThn32_N6twitch12VideoEncoderD0Ev, symObjAddr: 0xE89AC, symBinAddr: 0xE2C54, symSize: 0x4 }
  - { offset: 0x9C3A5F, size: 0x8, addend: 0x0, symName: __ZThn32_N6twitch12VideoEncoderD0Ev, symObjAddr: 0xE89AC, symBinAddr: 0xE2C54, symSize: 0x4 }
  - { offset: 0x9C45D9, size: 0x8, addend: 0x0, symName: __ZN6twitch3ios14VTVideoEncoder25setupVTCompressionSessionEv, symObjAddr: 0xE929C, symBinAddr: 0xE3544, symSize: 0xDB0 }
  - { offset: 0x9C91A3, size: 0x8, addend: 0x0, symName: __ZN6twitch5CFRefIP26OpaqueVTCompressionSessionE5resetES2_, symObjAddr: 0xEA04C, symBinAddr: 0xE42F4, symSize: 0x50 }
  - { offset: 0x9C94B4, size: 0x8, addend: 0x0, symName: __ZN6twitch3ios14VTVideoEncoder22setCompressionPropertyEP26OpaqueVTCompressionSessionPK14__CFDictionaryPK10__CFStringPKvb, symObjAddr: 0xEA508, symBinAddr: 0xE47B0, symSize: 0x2A4 }
  - { offset: 0x9CA160, size: 0x8, addend: 0x0, symName: __ZN6twitch5ErroraSEOS0_, symObjAddr: 0xEA7AC, symBinAddr: 0xE4A54, symSize: 0x104 }
  - { offset: 0x9CA789, size: 0x8, addend: 0x0, symName: __ZN6twitch5ErrorD1Ev, symObjAddr: 0xEA8B0, symBinAddr: 0xE4B58, symSize: 0x80 }
  - { offset: 0x9CADF5, size: 0x8, addend: 0x0, symName: __ZN6twitch5CFRefIPK14__CFDictionaryED1Ev, symObjAddr: 0xEA994, symBinAddr: 0xE4C3C, symSize: 0x38 }
  - { offset: 0x9CAE55, size: 0x8, addend: 0x0, symName: __ZN6twitch5CFRefIPK14__CFDictionaryED0Ev, symObjAddr: 0xEA9CC, symBinAddr: 0xE4C74, symSize: 0x38 }
  - { offset: 0x9CB5FE, size: 0x8, addend: 0x0, symName: ___copy_helper_block_a8_40c28_ZTSN6twitch13PictureSampleE, symObjAddr: 0xEB7F8, symBinAddr: 0xE5AA0, symSize: 0x12C }
  - { offset: 0x9CB91E, size: 0x8, addend: 0x0, symName: ___destroy_helper_block_a8_40c28_ZTSN6twitch13PictureSampleE, symObjAddr: 0xEB924, symBinAddr: 0xE5BCC, symSize: 0x78 }
  - { offset: 0x9CBDDA, size: 0x8, addend: 0x0, symName: '__ZNSt3__110__function6__funcIZZN6twitch3ios14VTVideoEncoder7receiveERKNS2_13PictureSampleEEUb_E3$_0NS_9allocatorIS8_EEFvvEED1Ev', symObjAddr: 0xEB99C, symBinAddr: 0xE5C44, symSize: 0x94 }
  - { offset: 0x9CC3BD, size: 0x8, addend: 0x0, symName: '__ZNSt3__110__function6__funcIZZN6twitch3ios14VTVideoEncoder7receiveERKNS2_13PictureSampleEEUb_E3$_0NS_9allocatorIS8_EEFvvEED0Ev', symObjAddr: 0xEBA30, symBinAddr: 0xE5CD8, symSize: 0x94 }
  - { offset: 0x9CCB20, size: 0x8, addend: 0x0, symName: '__ZNKSt3__110__function6__funcIZZN6twitch3ios14VTVideoEncoder7receiveERKNS2_13PictureSampleEEUb_E3$_0NS_9allocatorIS8_EEFvvEE7__cloneEv', symObjAddr: 0xEBAC4, symBinAddr: 0xE5D6C, symSize: 0x40 }
  - { offset: 0x9CCCCB, size: 0x8, addend: 0x0, symName: '__ZNSt3__122__compressed_pair_elemIZZN6twitch3ios14VTVideoEncoder7receiveERKNS1_13PictureSampleEEUb_E3$_0Li0ELb0EEC2B8nn180100IJRKS7_EJLm0EEEENS_21piecewise_construct_tENS_5tupleIJDpT_EEENS_15__tuple_indicesIJXspT0_EEEE', symObjAddr: 0xEC6FC, symBinAddr: 0xE69A4, symSize: 0x150 }
  - { offset: 0x9CD252, size: 0x8, addend: 0x0, symName: '__ZNKSt3__110__function6__funcIZZN6twitch3ios14VTVideoEncoder7receiveERKNS2_13PictureSampleEEUb_E3$_0NS_9allocatorIS8_EEFvvEE7__cloneEPNS0_6__baseISB_EE', symObjAddr: 0xEBB04, symBinAddr: 0xE5DAC, symSize: 0x1C }
  - { offset: 0x9CD3B5, size: 0x8, addend: 0x0, symName: '__ZNSt3__110__function6__funcIZZN6twitch3ios14VTVideoEncoder7receiveERKNS2_13PictureSampleEEUb_E3$_0NS_9allocatorIS8_EEFvvEE7destroyEv', symObjAddr: 0xEBB20, symBinAddr: 0xE5DC8, symSize: 0x8 }
  - { offset: 0x9CD3EC, size: 0x8, addend: 0x0, symName: '__ZNSt3__110__function12__alloc_funcIZZN6twitch3ios14VTVideoEncoder7receiveERKNS2_13PictureSampleEEUb_E3$_0NS_9allocatorIS8_EEFvvEE7destroyB8nn180100Ev', symObjAddr: 0xEC66C, symBinAddr: 0xE6914, symSize: 0x90 }
  - { offset: 0x9CD911, size: 0x8, addend: 0x0, symName: '__ZNSt3__110__function6__funcIZZN6twitch3ios14VTVideoEncoder7receiveERKNS2_13PictureSampleEEUb_E3$_0NS_9allocatorIS8_EEFvvEE18destroy_deallocateEv', symObjAddr: 0xEBB28, symBinAddr: 0xE5DD0, symSize: 0x28 }
  - { offset: 0x9CE3A6, size: 0x8, addend: 0x0, symName: '__ZNSt3__110__function6__funcIZZN6twitch3ios14VTVideoEncoder7receiveERKNS2_13PictureSampleEEUb_E3$_0NS_9allocatorIS8_EEFvvEEclEv', symObjAddr: 0xEBB50, symBinAddr: 0xE5DF8, symSize: 0xB1C }
  - { offset: 0x9D3AF4, size: 0x8, addend: 0x0, symName: '__ZNSt3__110__function12__alloc_funcIZZN6twitch3ios14VTVideoEncoder7receiveERKNS2_13PictureSampleEEUb_E3$_0NS_9allocatorIS8_EEFvvEE7destroyB8nn180100Ev', symObjAddr: 0xEC66C, symBinAddr: 0xE6914, symSize: 0x90 }
  - { offset: 0xA0DFFD, size: 0x8, addend: 0x0, symName: _poly3_mul_aux, symObjAddr: 0x101A34, symBinAddr: 0xFBCDC, symSize: 0x2E8 }
  - { offset: 0xA0E00B, size: 0x8, addend: 0x0, symName: _poly2_reverse_700, symObjAddr: 0x101D64, symBinAddr: 0xFC00C, symSize: 0xA8 }
  - { offset: 0xA0E0E8, size: 0x8, addend: 0x0, symName: _poly_mul_vec_aux, symObjAddr: 0x101F90, symBinAddr: 0xFC238, symSize: 0x514 }
  - { offset: 0xA10054, size: 0x8, addend: 0x0, symName: _kSharedKey, symObjAddr: 0x197BFE, symBinAddr: 0x1AE4C6, symSize: 0x0 }
  - { offset: 0xA10393, size: 0x8, addend: 0x0, symName: _poly3_mul_aux, symObjAddr: 0x101A34, symBinAddr: 0xFBCDC, symSize: 0x2E8 }
  - { offset: 0xA10881, size: 0x8, addend: 0x0, symName: _poly3_span_sub, symObjAddr: 0x101D1C, symBinAddr: 0xFBFC4, symSize: 0x48 }
  - { offset: 0xA108C7, size: 0x8, addend: 0x0, symName: _poly3_span_sub, symObjAddr: 0x101D1C, symBinAddr: 0xFBFC4, symSize: 0x48 }
  - { offset: 0xA10A19, size: 0x8, addend: 0x0, symName: _poly3_cswap, symObjAddr: 0x101E0C, symBinAddr: 0xFC0B4, symSize: 0x74 }
  - { offset: 0xA10B18, size: 0x8, addend: 0x0, symName: _poly_short_sample_plus, symObjAddr: 0x101E80, symBinAddr: 0xFC128, symSize: 0x6C }
  - { offset: 0xA10BC2, size: 0x8, addend: 0x0, symName: _poly_short_sample, symObjAddr: 0x1024A4, symBinAddr: 0xFC74C, symSize: 0x50 }
  - { offset: 0xA10CA1, size: 0x8, addend: 0x0, symName: _poly3_from_poly, symObjAddr: 0x101EEC, symBinAddr: 0xFC194, symSize: 0xA4 }
  - { offset: 0xA10FE7, size: 0x8, addend: 0x0, symName: _poly_lift, symObjAddr: 0x1024F4, symBinAddr: 0xFC79C, symSize: 0x160 }
  - { offset: 0xA1112E, size: 0x8, addend: 0x0, symName: _poly_marshal, symObjAddr: 0x102654, symBinAddr: 0xFC8FC, symSize: 0x150 }
  - { offset: 0xA11195, size: 0x8, addend: 0x0, symName: _poly_unmarshal, symObjAddr: 0x1027A4, symBinAddr: 0xFCA4C, symSize: 0x190 }
  - { offset: 0x9D7B83, size: 0x8, addend: 0x0, symName: _ASN1_get_object, symObjAddr: 0xEDAF0, symBinAddr: 0xE7D98, symSize: 0x184 }
  - { offset: 0x9D7C44, size: 0x8, addend: 0x0, symName: _ASN1_get_object, symObjAddr: 0xEDAF0, symBinAddr: 0xE7D98, symSize: 0x184 }
  - { offset: 0x9D7DE9, size: 0x8, addend: 0x0, symName: _ASN1_put_object, symObjAddr: 0xEDC74, symBinAddr: 0xE7F1C, symSize: 0xF8 }
  - { offset: 0x9D7EB4, size: 0x8, addend: 0x0, symName: _ASN1_object_size, symObjAddr: 0xEDD6C, symBinAddr: 0xE8014, symSize: 0x74 }
  - { offset: 0x9D7F68, size: 0x8, addend: 0x0, symName: _ASN1_STRING_set, symObjAddr: 0xEDDE0, symBinAddr: 0xE8088, symSize: 0x110 }
  - { offset: 0x9D80A7, size: 0x8, addend: 0x0, symName: _ASN1_STRING_dup, symObjAddr: 0xEDEF0, symBinAddr: 0xE8198, symSize: 0x64 }
  - { offset: 0x9D814C, size: 0x8, addend: 0x0, symName: _ASN1_STRING_type_new, symObjAddr: 0xEDF54, symBinAddr: 0xE81FC, symSize: 0x64 }
  - { offset: 0x9D81CE, size: 0x8, addend: 0x0, symName: _ASN1_STRING_free, symObjAddr: 0xEDFB8, symBinAddr: 0xE8260, symSize: 0x68 }
  - { offset: 0x9D8339, size: 0x8, addend: 0x0, symName: _ASN1_STRING_cmp, symObjAddr: 0xEE020, symBinAddr: 0xE82C8, symSize: 0x50 }
  - { offset: 0xA69FA5, size: 0x8, addend: 0x0, symName: _i2r_pci, symObjAddr: 0x11383C, symBinAddr: 0x10DA84, symSize: 0x1F8 }
  - { offset: 0xA69FBE, size: 0x8, addend: 0x0, symName: _v3_pci, symObjAddr: 0x1E4778, symBinAddr: 0x1EB730, symSize: 0x0 }
  - { offset: 0xA6B696, size: 0x8, addend: 0x0, symName: _i2r_pci, symObjAddr: 0x11383C, symBinAddr: 0x10DA84, symSize: 0x1F8 }
  - { offset: 0xA6B89E, size: 0x8, addend: 0x0, symName: _r2i_pci, symObjAddr: 0x113A34, symBinAddr: 0x10DC7C, symSize: 0x2D0 }
  - { offset: 0xA6BE4F, size: 0x8, addend: 0x0, symName: _process_pci_value, symObjAddr: 0x113D04, symBinAddr: 0x10DF4C, symSize: 0x3A8 }
  - { offset: 0x9520AB, size: 0x8, addend: 0x0, symName: __ZN6twitch3ios19BroadcastSdkGlobals11getInstanceEv, symObjAddr: 0xDB68C, symBinAddr: 0xD5EF8, symSize: 0x5C }
  - { offset: 0x9520C9, size: 0x8, addend: 0x0, symName: __ZN6twitch3ios19BroadcastSdkGlobals10g_instanceE, symObjAddr: 0x34F2220, symBinAddr: 0x200F80, symSize: 0x0 }
  - { offset: 0x9520DD, size: 0x8, addend: 0x0, symName: __ZN6twitch3ios19BroadcastSdkGlobals6g_onceE, symObjAddr: 0x34F2228, symBinAddr: 0x200F88, symSize: 0x0 }
  - { offset: 0x9524FC, size: 0x8, addend: 0x0, symName: '__ZNSt3__117__call_once_proxyB8nn180100INS_5tupleIJOZN6twitch3ios19BroadcastSdkGlobals11getInstanceEvE3$_0EEEEEvPv', symObjAddr: 0xDB6E8, symBinAddr: 0xD5F54, symSize: 0x24 }
  - { offset: 0x9532A6, size: 0x8, addend: 0x0, symName: __ZN6twitch3ios19BroadcastSdkGlobals11getInstanceEv, symObjAddr: 0xDB68C, symBinAddr: 0xD5EF8, symSize: 0x5C }
  - { offset: 0x9538DA, size: 0x8, addend: 0x0, symName: __ZN6twitch3ios19BroadcastSdkGlobals9DependentC1Ev, symObjAddr: 0xDB70C, symBinAddr: 0xD5F78, symSize: 0x34 }
  - { offset: 0x953A88, size: 0x8, addend: 0x0, symName: __ZN6twitch3ios19BroadcastSdkGlobals9DependentD1Ev, symObjAddr: 0xDB740, symBinAddr: 0xD5FAC, symSize: 0x38 }
  - { offset: 0x3E0F57, size: 0x8, addend: 0x0, symName: '-[IVSBroadcastUserDataUnregisteredSEIMessage initWithCxxPointer:]', symObjAddr: 0x5B594, symBinAddr: 0x5B8E0, symSize: 0xB4 }
  - { offset: 0x3E1E75, size: 0x8, addend: 0x0, symName: '-[IVSBroadcastUserDataUnregisteredSEIMessage initWithCxxPointer:]', symObjAddr: 0x5B594, symBinAddr: 0x5B8E0, symSize: 0xB4 }
  - { offset: 0x3E1FB5, size: 0x8, addend: 0x0, symName: '-[IVSBroadcastUserDataUnregisteredSEIMessage cxxValue]', symObjAddr: 0x5B648, symBinAddr: 0x5B994, symSize: 0x8 }
  - { offset: 0x3E1FEF, size: 0x8, addend: 0x0, symName: '-[IVSBroadcastUserDataUnregisteredSEIMessage cxxValue]', symObjAddr: 0x5B648, symBinAddr: 0x5B994, symSize: 0x8 }
  - { offset: 0x3E20C9, size: 0x8, addend: 0x0, symName: '-[IVSBroadcastUserDataUnregisteredSEIMessage UUID]', symObjAddr: 0x5B650, symBinAddr: 0x5B99C, symSize: 0x858 }
  - { offset: 0x3E52A6, size: 0x8, addend: 0x0, symName: '-[IVSBroadcastUserDataUnregisteredSEIMessage timestamp]', symObjAddr: 0x5BEA8, symBinAddr: 0x5C1F4, symSize: 0x6C }
  - { offset: 0x3E52B5, size: 0x8, addend: 0x0, symName: '-[IVSBroadcastUserDataUnregisteredSEIMessage timestamp]', symObjAddr: 0x5BEA8, symBinAddr: 0x5C1F4, symSize: 0x6C }
  - { offset: 0x3E5326, size: 0x8, addend: 0x0, symName: '-[IVSBroadcastUserDataUnregisteredSEIMessage data]', symObjAddr: 0x5BF14, symBinAddr: 0x5C260, symSize: 0x98 }
  - { offset: 0x3E539D, size: 0x8, addend: 0x0, symName: '-[IVSBroadcastUserDataUnregisteredSEIMessage .cxx_destruct]', symObjAddr: 0x5BFAC, symBinAddr: 0x5C2F8, symSize: 0x40 }
  - { offset: 0x9FCA45, size: 0x8, addend: 0x0, symName: _pkey_ec_init, symObjAddr: 0xFA59C, symBinAddr: 0xF4844, symSize: 0x40 }
  - { offset: 0x9FCA60, size: 0x8, addend: 0x0, symName: _ec_pkey_meth, symObjAddr: 0x1D7C08, symBinAddr: 0x1DEBC0, symSize: 0x0 }
  - { offset: 0x9FDC41, size: 0x8, addend: 0x0, symName: _pkey_ec_init, symObjAddr: 0xFA59C, symBinAddr: 0xF4844, symSize: 0x40 }
  - { offset: 0x9FDCEF, size: 0x8, addend: 0x0, symName: _pkey_ec_copy, symObjAddr: 0xFA5DC, symBinAddr: 0xF4884, symSize: 0x50 }
  - { offset: 0x9FDDCB, size: 0x8, addend: 0x0, symName: _pkey_ec_cleanup, symObjAddr: 0xFA62C, symBinAddr: 0xF48D4, symSize: 0x4C }
  - { offset: 0x9FDE8D, size: 0x8, addend: 0x0, symName: _pkey_ec_keygen, symObjAddr: 0xFA678, symBinAddr: 0xF4920, symSize: 0x1B4 }
  - { offset: 0x9FE20D, size: 0x8, addend: 0x0, symName: _pkey_ec_sign, symObjAddr: 0xFA82C, symBinAddr: 0xF4AD4, symSize: 0x190 }
  - { offset: 0x9FE496, size: 0x8, addend: 0x0, symName: _pkey_ec_verify, symObjAddr: 0xFA9BC, symBinAddr: 0xF4C64, symSize: 0x388 }
  - { offset: 0x9FEB92, size: 0x8, addend: 0x0, symName: _pkey_ec_derive, symObjAddr: 0xFAD44, symBinAddr: 0xF4FEC, symSize: 0x1AC }
  - { offset: 0x9FED84, size: 0x8, addend: 0x0, symName: _pkey_ec_paramgen, symObjAddr: 0xFAEF0, symBinAddr: 0xF5198, symSize: 0x8C }
  - { offset: 0x9FEE7A, size: 0x8, addend: 0x0, symName: _pkey_ec_ctrl, symObjAddr: 0xFAF7C, symBinAddr: 0xF5224, symSize: 0xD4 }
  - { offset: 0xA36319, size: 0x8, addend: 0x0, symName: _crl_inf_cb, symObjAddr: 0x10BEC4, symBinAddr: 0x10610C, symSize: 0x3C }
  - { offset: 0xA36332, size: 0x8, addend: 0x0, symName: _X509_REVOKED_it, symObjAddr: 0x1E1CF0, symBinAddr: 0x1E8CA8, symSize: 0x0 }
  - { offset: 0xA36441, size: 0x8, addend: 0x0, symName: _X509_CRL_INFO_it, symObjAddr: 0x1E1E60, symBinAddr: 0x1E8E18, symSize: 0x0 }
  - { offset: 0xA36458, size: 0x8, addend: 0x0, symName: _X509_CRL_it, symObjAddr: 0x1E1F30, symBinAddr: 0x1E8EE8, symSize: 0x0 }
  - { offset: 0xA3646E, size: 0x8, addend: 0x0, symName: _X509_REVOKED_seq_tt, symObjAddr: 0x1E1C78, symBinAddr: 0x1E8C30, symSize: 0x0 }
  - { offset: 0xA36497, size: 0x8, addend: 0x0, symName: _X509_CRL_INFO_seq_tt, symObjAddr: 0x1E1D28, symBinAddr: 0x1E8CE0, symSize: 0x0 }
  - { offset: 0xA364B9, size: 0x8, addend: 0x0, symName: _X509_CRL_INFO_aux, symObjAddr: 0x1E1E40, symBinAddr: 0x1E8DF8, symSize: 0x0 }
  - { offset: 0xA36568, size: 0x8, addend: 0x0, symName: _X509_CRL_seq_tt, symObjAddr: 0x1E1E98, symBinAddr: 0x1E8E50, symSize: 0x0 }
  - { offset: 0xA3657F, size: 0x8, addend: 0x0, symName: _X509_CRL_aux, symObjAddr: 0x1E1F10, symBinAddr: 0x1E8EC8, symSize: 0x0 }
  - { offset: 0xA36595, size: 0x8, addend: 0x0, symName: _int_crl_meth, symObjAddr: 0x1E1F68, symBinAddr: 0x1E8F20, symSize: 0x0 }
  - { offset: 0xA3746D, size: 0x8, addend: 0x0, symName: _g_crl_sort_lock, symObjAddr: 0x2024B0, symBinAddr: 0x1FFE40, symSize: 0x0 }
  - { offset: 0xA37A04, size: 0x8, addend: 0x0, symName: _crl_inf_cb, symObjAddr: 0x10BEC4, symBinAddr: 0x10610C, symSize: 0x3C }
  - { offset: 0xA37AC0, size: 0x8, addend: 0x0, symName: _X509_REVOKED_cmp, symObjAddr: 0x10BF00, symBinAddr: 0x106148, symSize: 0x14 }
  - { offset: 0xA37BC8, size: 0x8, addend: 0x0, symName: _crl_cb, symObjAddr: 0x10BF14, symBinAddr: 0x10615C, symSize: 0x3E8 }
  - { offset: 0xA38217, size: 0x8, addend: 0x0, symName: _crl_set_issuers, symObjAddr: 0x10C2FC, symBinAddr: 0x106544, symSize: 0x170 }
  - { offset: 0xA3870F, size: 0x8, addend: 0x0, symName: _def_crl_lookup, symObjAddr: 0x10C46C, symBinAddr: 0x1066B4, symSize: 0x1CC }
  - { offset: 0xA38B0E, size: 0x8, addend: 0x0, symName: _def_crl_verify, symObjAddr: 0x10C638, symBinAddr: 0x106880, symSize: 0x1C }
  - { offset: 0xA38B21, size: 0x8, addend: 0x0, symName: _def_crl_verify, symObjAddr: 0x10C638, symBinAddr: 0x106880, symSize: 0x1C }
  - { offset: 0xA38B6F, size: 0x8, addend: 0x0, symName: _sk_X509_REVOKED_call_cmp_func, symObjAddr: 0x10C654, symBinAddr: 0x10689C, symSize: 0x34 }
  - { offset: 0xA0097C, size: 0x8, addend: 0x0, symName: _pkey_ed25519_copy, symObjAddr: 0xFBA44, symBinAddr: 0xF5CEC, symSize: 0x8 }
  - { offset: 0xA00995, size: 0x8, addend: 0x0, symName: _ed25519_pkey_meth, symObjAddr: 0x1D7D10, symBinAddr: 0x1DECC8, symSize: 0x0 }
  - { offset: 0xA01239, size: 0x8, addend: 0x0, symName: _pkey_ed25519_copy, symObjAddr: 0xFBA44, symBinAddr: 0xF5CEC, symSize: 0x8 }
  - { offset: 0xA0126C, size: 0x8, addend: 0x0, symName: _pkey_ed25519_keygen, symObjAddr: 0xFBA4C, symBinAddr: 0xF5CF4, symSize: 0x108 }
  - { offset: 0xA01448, size: 0x8, addend: 0x0, symName: _pkey_ed25519_sign_message, symObjAddr: 0xFBB54, symBinAddr: 0xF5DFC, symSize: 0xD54 }
  - { offset: 0xA02054, size: 0x8, addend: 0x0, symName: _pkey_ed25519_verify_message, symObjAddr: 0xFC8A8, symBinAddr: 0xF6B50, symSize: 0xFE0 }
  - { offset: 0xCFB57B, size: 0x8, addend: 0x0, symName: __ZN4bssl24tls1_change_cipher_stateEPNS_13SSL_HANDSHAKEE20evp_aead_direction_t, symObjAddr: 0x17D1FC, symBinAddr: 0x174AA0, symSize: 0x300 }
  - { offset: 0xCFB58E, size: 0x8, addend: 0x0, symName: __ZN4bssl27tls1_generate_master_secretEPNS_13SSL_HANDSHAKEEPhNS_4SpanIKhEE, symObjAddr: 0x17D4FC, symBinAddr: 0x174DA0, symSize: 0x10C }
  - { offset: 0xCFB5BA, size: 0x8, addend: 0x0, symName: __ZZN4bssl27tls1_generate_master_secretEPNS_13SSL_HANDSHAKEEPhNS_4SpanIKhEEE18kMasterSecretLabel, symObjAddr: 0x19DC38, symBinAddr: 0x1B4500, symSize: 0x0 }
  - { offset: 0xCFB5D1, size: 0x8, addend: 0x0, symName: __ZZN4bssl27tls1_generate_master_secretEPNS_13SSL_HANDSHAKEEPhNS_4SpanIKhEEE26kExtendedMasterSecretLabel, symObjAddr: 0x19DC46, symBinAddr: 0x1B450E, symSize: 0x0 }
  - { offset: 0xCFBB93, size: 0x8, addend: 0x0, symName: __ZN4bssl24tls1_change_cipher_stateEPNS_13SSL_HANDSHAKEE20evp_aead_direction_t, symObjAddr: 0x17D1FC, symBinAddr: 0x174AA0, symSize: 0x300 }
  - { offset: 0xCFC4E6, size: 0x8, addend: 0x0, symName: __ZN4bssl27tls1_generate_master_secretEPNS_13SSL_HANDSHAKEEPhNS_4SpanIKhEE, symObjAddr: 0x17D4FC, symBinAddr: 0x174DA0, symSize: 0x10C }
  - { offset: 0xB767B0, size: 0x8, addend: 0x0, symName: __ZN6twitch14createNetErrorENS_8NetErrorEiRKNSt3__112basic_stringIcNS1_11char_traitsIcEENS1_9allocatorIcEEEE, symObjAddr: 0x14BB74, symBinAddr: 0x144B0C, symSize: 0xBC }
  - { offset: 0xB767CF, size: 0x8, addend: 0x0, symName: __ZN6twitchL6SourceE, symObjAddr: 0x19D8C0, symBinAddr: 0x1B4188, symSize: 0x0 }
  - { offset: 0xB767DD, size: 0x8, addend: 0x0, symName: __ZN6twitch14createNetErrorENS_8NetErrorEiRKNSt3__112basic_stringIcNS1_11char_traitsIcEENS1_9allocatorIcEEEE, symObjAddr: 0x14BB74, symBinAddr: 0x144B0C, symSize: 0xBC }
  - { offset: 0xCFD3D9, size: 0x8, addend: 0x0, symName: __ZN4bsslL16compare_uint16_tEPKvS1_, symObjAddr: 0x17D608, symBinAddr: 0x174EAC, symSize: 0x18 }
  - { offset: 0xCFD3F9, size: 0x8, addend: 0x0, symName: __ZN4bsslL14kDefaultGroupsE, symObjAddr: 0x19DC6C, symBinAddr: 0x1B4534, symSize: 0x0 }
  - { offset: 0xCFD414, size: 0x8, addend: 0x0, symName: __ZN4bsslL26kVerifySignatureAlgorithmsE, symObjAddr: 0x19DCB2, symBinAddr: 0x1B457A, symSize: 0x0 }
  - { offset: 0xCFD42F, size: 0x8, addend: 0x0, symName: __ZN4bsslL11kExtensionsE, symObjAddr: 0x1E7CF8, symBinAddr: 0x1EECB0, symSize: 0x0 }
  - { offset: 0xCFD4AA, size: 0x8, addend: 0x0, symName: __ZN4bsslL24kSignSignatureAlgorithmsE, symObjAddr: 0x19DC72, symBinAddr: 0x1B453A, symSize: 0x0 }
  - { offset: 0xCFD6BE, size: 0x8, addend: 0x0, symName: __ZN4bsslL16compare_uint16_tEPKvS1_, symObjAddr: 0x17D608, symBinAddr: 0x174EAC, symSize: 0x18 }
  - { offset: 0xCFD733, size: 0x8, addend: 0x0, symName: __ZN4bssl19tls1_check_group_idEPKNS_13SSL_HANDSHAKEEt, symObjAddr: 0x17D620, symBinAddr: 0x174EC4, symSize: 0x88 }
  - { offset: 0xCFD898, size: 0x8, addend: 0x0, symName: __ZN4bssl23tls12_check_peer_sigalgEPKNS_13SSL_HANDSHAKEEPht, symObjAddr: 0x17D6A8, symBinAddr: 0x174F4C, symSize: 0x88 }
  - { offset: 0xCFD9FA, size: 0x8, addend: 0x0, symName: __ZN4bssl28ssl_is_alpn_protocol_allowedEPKNS_13SSL_HANDSHAKEENS_4SpanIKhEE, symObjAddr: 0x17D730, symBinAddr: 0x174FD4, symSize: 0x88 }
  - { offset: 0xCFDC10, size: 0x8, addend: 0x0, symName: __ZN4bssl40ssl_ext_pre_shared_key_parse_serverhelloEPNS_13SSL_HANDSHAKEEPhP6cbs_st, symObjAddr: 0x17D7B8, symBinAddr: 0x17505C, symSize: 0x94 }
  - { offset: 0xCFDD3A, size: 0x8, addend: 0x0, symName: __ZN4bssl35ssl_ext_key_share_parse_serverhelloEPNS_13SSL_HANDSHAKEEPNS_5ArrayIhEEPhP6cbs_st, symObjAddr: 0x17D84C, symBinAddr: 0x1750F0, symSize: 0x1C8 }
  - { offset: 0xCFE243, size: 0x8, addend: 0x0, symName: __ZN4bsslL34ssl_get_local_application_settingsEPKNS_13SSL_HANDSHAKEEPNS_4SpanIKhEES5_, symObjAddr: 0x17DA14, symBinAddr: 0x1752B8, symSize: 0x74 }
  - { offset: 0xCFE4D1, size: 0x8, addend: 0x0, symName: __ZN4bssl26ssl_add_clienthello_tlsextEPNS_13SSL_HANDSHAKEEP6cbb_stm, symObjAddr: 0x17DA88, symBinAddr: 0x17532C, symSize: 0x554 }
  - { offset: 0xCFEC98, size: 0x8, addend: 0x0, symName: __ZN4bsslL23ext_sni_add_clienthelloEPNS_13SSL_HANDSHAKEEP6cbb_st, symObjAddr: 0x17DFDC, symBinAddr: 0x175880, symSize: 0xC4 }
  - { offset: 0xCFEE69, size: 0x8, addend: 0x0, symName: __ZN4bsslL25ext_sni_parse_serverhelloEPNS_13SSL_HANDSHAKEEPhP6cbs_st, symObjAddr: 0x17E0A0, symBinAddr: 0x175944, symSize: 0x1C }
  - { offset: 0xCFEED1, size: 0x8, addend: 0x0, symName: __ZN4bsslL25ext_sni_parse_clienthelloEPNS_13SSL_HANDSHAKEEPhP6cbs_st, symObjAddr: 0x17E0BC, symBinAddr: 0x175960, symSize: 0x8 }
  - { offset: 0xCFEF18, size: 0x8, addend: 0x0, symName: __ZN4bsslL23ext_sni_add_serverhelloEPNS_13SSL_HANDSHAKEEP6cbb_st, symObjAddr: 0x17E0C4, symBinAddr: 0x175968, symSize: 0x60 }
  - { offset: 0xCFEF76, size: 0x8, addend: 0x0, symName: __ZN4bsslL23ext_ems_add_clienthelloEPNS_13SSL_HANDSHAKEEP6cbb_st, symObjAddr: 0x17E124, symBinAddr: 0x1759C8, symSize: 0x54 }
  - { offset: 0xCFEFD4, size: 0x8, addend: 0x0, symName: __ZN4bsslL25ext_ems_parse_serverhelloEPNS_13SSL_HANDSHAKEEPhP6cbs_st, symObjAddr: 0x17E178, symBinAddr: 0x175A1C, symSize: 0xB0 }
  - { offset: 0xCFF0BE, size: 0x8, addend: 0x0, symName: __ZN4bsslL25ext_ems_parse_clienthelloEPNS_13SSL_HANDSHAKEEPhP6cbs_st, symObjAddr: 0x17E228, symBinAddr: 0x175ACC, symSize: 0x5C }
  - { offset: 0xCFF13A, size: 0x8, addend: 0x0, symName: __ZN4bsslL23ext_ems_add_serverhelloEPNS_13SSL_HANDSHAKEEP6cbb_st, symObjAddr: 0x17E284, symBinAddr: 0x175B28, symSize: 0x50 }
  - { offset: 0xCFF198, size: 0x8, addend: 0x0, symName: __ZN4bsslL22ext_ri_add_clienthelloEPNS_13SSL_HANDSHAKEEP6cbb_st, symObjAddr: 0x17E2D4, symBinAddr: 0x175B78, symSize: 0x9C }
  - { offset: 0xCFF2A3, size: 0x8, addend: 0x0, symName: __ZN4bsslL24ext_ri_parse_serverhelloEPNS_13SSL_HANDSHAKEEPhP6cbs_st, symObjAddr: 0x17E370, symBinAddr: 0x175C14, symSize: 0x1C8 }
  - { offset: 0xCFF53A, size: 0x8, addend: 0x0, symName: __ZN4bsslL24ext_ri_parse_clienthelloEPNS_13SSL_HANDSHAKEEPhP6cbs_st, symObjAddr: 0x17E538, symBinAddr: 0x175DDC, symSize: 0xD4 }
  - { offset: 0xCFF6EA, size: 0x8, addend: 0x0, symName: __ZN4bsslL22ext_ri_add_serverhelloEPNS_13SSL_HANDSHAKEEP6cbb_st, symObjAddr: 0x17E60C, symBinAddr: 0x175EB0, symSize: 0x6C }
  - { offset: 0xCFF775, size: 0x8, addend: 0x0, symName: __ZN4bsslL36ext_supported_groups_add_clienthelloEPNS_13SSL_HANDSHAKEEP6cbb_st, symObjAddr: 0x17E678, symBinAddr: 0x175F1C, symSize: 0x108 }
  - { offset: 0xCFF9B4, size: 0x8, addend: 0x0, symName: __ZN4bsslL38ext_supported_groups_parse_serverhelloEPNS_13SSL_HANDSHAKEEPhP6cbs_st, symObjAddr: 0x17E780, symBinAddr: 0x176024, symSize: 0x8 }
  - { offset: 0xCFF9FB, size: 0x8, addend: 0x0, symName: __ZN4bsslL38ext_supported_groups_parse_clienthelloEPNS_13SSL_HANDSHAKEEPhP6cbs_st, symObjAddr: 0x17E788, symBinAddr: 0x17602C, symSize: 0x78 }
  - { offset: 0xCFFBC9, size: 0x8, addend: 0x0, symName: __ZN4bsslL15parse_u16_arrayEPK6cbs_stPNS_5ArrayItEE, symObjAddr: 0x1810F4, symBinAddr: 0x178998, symSize: 0x130 }
  - { offset: 0xCFFF7B, size: 0x8, addend: 0x0, symName: __ZN4bsslL20dont_add_serverhelloEPNS_13SSL_HANDSHAKEEP6cbb_st, symObjAddr: 0x17E800, symBinAddr: 0x1760A4, symSize: 0x8 }
  - { offset: 0xCFFFB5, size: 0x8, addend: 0x0, symName: __ZN4bsslL28ext_ec_point_add_clienthelloEPNS_13SSL_HANDSHAKEEP6cbb_st, symObjAddr: 0x17E808, symBinAddr: 0x1760AC, symSize: 0x1C }
  - { offset: 0xD00003, size: 0x8, addend: 0x0, symName: __ZN4bsslL26ext_ec_point_add_extensionEPNS_13SSL_HANDSHAKEEP6cbb_st, symObjAddr: 0x18134C, symBinAddr: 0x178BF0, symSize: 0x78 }
  - { offset: 0xD000FA, size: 0x8, addend: 0x0, symName: __ZN4bsslL30ext_ec_point_parse_serverhelloEPNS_13SSL_HANDSHAKEEPhP6cbs_st, symObjAddr: 0x17E824, symBinAddr: 0x1760C8, symSize: 0x9C }
  - { offset: 0xD002E1, size: 0x8, addend: 0x0, symName: __ZN4bsslL30ext_ec_point_parse_clienthelloEPNS_13SSL_HANDSHAKEEPhP6cbs_st, symObjAddr: 0x17E8C0, symBinAddr: 0x176164, symSize: 0x60 }
  - { offset: 0xD00350, size: 0x8, addend: 0x0, symName: __ZN4bsslL28ext_ec_point_add_serverhelloEPNS_13SSL_HANDSHAKEEP6cbb_st, symObjAddr: 0x17E920, symBinAddr: 0x1761C4, symSize: 0x58 }
  - { offset: 0xD003EE, size: 0x8, addend: 0x0, symName: __ZN4bsslL26ext_ticket_add_clienthelloEPNS_13SSL_HANDSHAKEEP6cbb_st, symObjAddr: 0x17E978, symBinAddr: 0x17621C, symSize: 0xD8 }
  - { offset: 0xD0059D, size: 0x8, addend: 0x0, symName: __ZN4bsslL28ext_ticket_parse_serverhelloEPNS_13SSL_HANDSHAKEEPhP6cbs_st, symObjAddr: 0x17EA50, symBinAddr: 0x1762F4, symSize: 0x60 }
  - { offset: 0xD0062A, size: 0x8, addend: 0x0, symName: __ZN4bsslL24ignore_parse_clienthelloEPNS_13SSL_HANDSHAKEEPhP6cbs_st, symObjAddr: 0x17EAB0, symBinAddr: 0x176354, symSize: 0x8 }
  - { offset: 0xD00671, size: 0x8, addend: 0x0, symName: __ZN4bsslL26ext_ticket_add_serverhelloEPNS_13SSL_HANDSHAKEEP6cbb_st, symObjAddr: 0x17EAB8, symBinAddr: 0x17635C, symSize: 0x50 }
  - { offset: 0xD006CF, size: 0x8, addend: 0x0, symName: __ZN4bsslL24ext_alpn_add_clienthelloEPNS_13SSL_HANDSHAKEEP6cbb_st, symObjAddr: 0x17EB08, symBinAddr: 0x1763AC, symSize: 0xCC }
  - { offset: 0xD0082C, size: 0x8, addend: 0x0, symName: __ZN4bsslL26ext_alpn_parse_serverhelloEPNS_13SSL_HANDSHAKEEPhP6cbs_st, symObjAddr: 0x17EBD4, symBinAddr: 0x176478, symSize: 0x148 }
  - { offset: 0xD00B3A, size: 0x8, addend: 0x0, symName: __ZN4bsslL24ext_alpn_add_serverhelloEPNS_13SSL_HANDSHAKEEP6cbb_st, symObjAddr: 0x17ED1C, symBinAddr: 0x1765C0, symSize: 0xAC }
  - { offset: 0xD00CD2, size: 0x8, addend: 0x0, symName: __ZN4bsslL24ext_ocsp_add_clienthelloEPNS_13SSL_HANDSHAKEEP6cbb_st, symObjAddr: 0x17EDC8, symBinAddr: 0x17666C, symSize: 0x9C }
  - { offset: 0xD00D9F, size: 0x8, addend: 0x0, symName: __ZN4bsslL26ext_ocsp_parse_serverhelloEPNS_13SSL_HANDSHAKEEPhP6cbs_st, symObjAddr: 0x17EE64, symBinAddr: 0x176708, symSize: 0x70 }
  - { offset: 0xD00E2C, size: 0x8, addend: 0x0, symName: __ZN4bsslL26ext_ocsp_parse_clienthelloEPNS_13SSL_HANDSHAKEEPhP6cbs_st, symObjAddr: 0x17EED4, symBinAddr: 0x176778, symSize: 0x48 }
  - { offset: 0xD00ED8, size: 0x8, addend: 0x0, symName: __ZN4bsslL24ext_ocsp_add_serverhelloEPNS_13SSL_HANDSHAKEEP6cbb_st, symObjAddr: 0x17EF1C, symBinAddr: 0x1767C0, symSize: 0xA4 }
  - { offset: 0xD0101F, size: 0x8, addend: 0x0, symName: __ZN4bsslL27ext_sigalgs_add_clienthelloEPNS_13SSL_HANDSHAKEEP6cbb_st, symObjAddr: 0x17EFC0, symBinAddr: 0x176864, symSize: 0xD4 }
  - { offset: 0xD0120C, size: 0x8, addend: 0x0, symName: __ZN4bsslL24forbid_parse_serverhelloEPNS_13SSL_HANDSHAKEEPhP6cbs_st, symObjAddr: 0x17F094, symBinAddr: 0x176938, symSize: 0x48 }
  - { offset: 0xD01269, size: 0x8, addend: 0x0, symName: __ZN4bsslL29ext_sigalgs_parse_clienthelloEPNS_13SSL_HANDSHAKEEPhP6cbs_st, symObjAddr: 0x17F0DC, symBinAddr: 0x176980, symSize: 0xB4 }
  - { offset: 0xD01509, size: 0x8, addend: 0x0, symName: __ZN4bssl23tls1_parse_peer_sigalgsEPNS_13SSL_HANDSHAKEEPK6cbs_st, symObjAddr: 0x1812F0, symBinAddr: 0x178B94, symSize: 0x5C }
  - { offset: 0xD01586, size: 0x8, addend: 0x0, symName: __ZN4bsslL23ext_npn_add_clienthelloEPNS_13SSL_HANDSHAKEEP6cbb_st, symObjAddr: 0x17F190, symBinAddr: 0x176A34, symSize: 0x70 }
  - { offset: 0xD01638, size: 0x8, addend: 0x0, symName: __ZN4bsslL25ext_npn_parse_serverhelloEPNS_13SSL_HANDSHAKEEPhP6cbs_st, symObjAddr: 0x17F200, symBinAddr: 0x176AA4, symSize: 0x144 }
  - { offset: 0xD018F6, size: 0x8, addend: 0x0, symName: __ZN4bsslL25ext_npn_parse_clienthelloEPNS_13SSL_HANDSHAKEEPhP6cbs_st, symObjAddr: 0x17F344, symBinAddr: 0x176BE8, symSize: 0x88 }
  - { offset: 0xD019C4, size: 0x8, addend: 0x0, symName: __ZN4bsslL23ext_npn_add_serverhelloEPNS_13SSL_HANDSHAKEEP6cbb_st, symObjAddr: 0x17F3CC, symBinAddr: 0x176C70, symSize: 0xAC }
  - { offset: 0xD01AD6, size: 0x8, addend: 0x0, symName: __ZN4bsslL23ext_sct_add_clienthelloEPNS_13SSL_HANDSHAKEEP6cbb_st, symObjAddr: 0x17F478, symBinAddr: 0x176D1C, symSize: 0x54 }
  - { offset: 0xD01B34, size: 0x8, addend: 0x0, symName: __ZN4bsslL25ext_sct_parse_serverhelloEPNS_13SSL_HANDSHAKEEPhP6cbs_st, symObjAddr: 0x17F4CC, symBinAddr: 0x176D70, symSize: 0xBC }
  - { offset: 0xD01D2E, size: 0x8, addend: 0x0, symName: __ZN4bssl21ssl_is_sct_list_validEPK6cbs_st, symObjAddr: 0x181288, symBinAddr: 0x178B2C, symSize: 0x68 }
  - { offset: 0xD01F1B, size: 0x8, addend: 0x0, symName: __ZN4bsslL25ext_sct_parse_clienthelloEPNS_13SSL_HANDSHAKEEPhP6cbs_st, symObjAddr: 0x17F588, symBinAddr: 0x176E2C, symSize: 0x28 }
  - { offset: 0xD01F87, size: 0x8, addend: 0x0, symName: __ZN4bsslL23ext_sct_add_serverhelloEPNS_13SSL_HANDSHAKEEP6cbb_st, symObjAddr: 0x17F5B0, symBinAddr: 0x176E54, symSize: 0xB8 }
  - { offset: 0xD02125, size: 0x8, addend: 0x0, symName: __ZN4bsslL19ext_channel_id_initEPNS_13SSL_HANDSHAKEE, symObjAddr: 0x17F668, symBinAddr: 0x176F0C, symSize: 0x18 }
  - { offset: 0xD02150, size: 0x8, addend: 0x0, symName: __ZN4bsslL30ext_channel_id_add_clienthelloEPNS_13SSL_HANDSHAKEEP6cbb_st, symObjAddr: 0x17F680, symBinAddr: 0x176F24, symSize: 0x64 }
  - { offset: 0xD021E0, size: 0x8, addend: 0x0, symName: __ZN4bsslL32ext_channel_id_parse_serverhelloEPNS_13SSL_HANDSHAKEEPhP6cbs_st, symObjAddr: 0x17F6E4, symBinAddr: 0x176F88, symSize: 0x30 }
  - { offset: 0xD0225D, size: 0x8, addend: 0x0, symName: __ZN4bsslL32ext_channel_id_parse_clienthelloEPNS_13SSL_HANDSHAKEEPhP6cbs_st, symObjAddr: 0x17F714, symBinAddr: 0x176FB8, symSize: 0x4C }
  - { offset: 0xD022F9, size: 0x8, addend: 0x0, symName: __ZN4bsslL30ext_channel_id_add_serverhelloEPNS_13SSL_HANDSHAKEEP6cbb_st, symObjAddr: 0x17F760, symBinAddr: 0x177004, symSize: 0x58 }
  - { offset: 0xD02368, size: 0x8, addend: 0x0, symName: __ZN4bsslL13ext_srtp_initEPNS_13SSL_HANDSHAKEE, symObjAddr: 0x17F7B8, symBinAddr: 0x17705C, symSize: 0x10 }
  - { offset: 0xD02393, size: 0x8, addend: 0x0, symName: __ZN4bsslL24ext_srtp_add_clienthelloEPNS_13SSL_HANDSHAKEEP6cbb_st, symObjAddr: 0x17F7C8, symBinAddr: 0x17706C, symSize: 0xE8 }
  - { offset: 0xD026D3, size: 0x8, addend: 0x0, symName: __ZN4bsslL26ext_srtp_parse_serverhelloEPNS_13SSL_HANDSHAKEEPhP6cbs_st, symObjAddr: 0x17F8B0, symBinAddr: 0x177154, symSize: 0x154 }
  - { offset: 0xD02BC1, size: 0x8, addend: 0x0, symName: __ZN4bsslL26ext_srtp_parse_clienthelloEPNS_13SSL_HANDSHAKEEPhP6cbs_st, symObjAddr: 0x17FA04, symBinAddr: 0x1772A8, symSize: 0x148 }
  - { offset: 0xD030B7, size: 0x8, addend: 0x0, symName: __ZN4bsslL24ext_srtp_add_serverhelloEPNS_13SSL_HANDSHAKEEP6cbb_st, symObjAddr: 0x17FB4C, symBinAddr: 0x1773F0, symSize: 0xAC }
  - { offset: 0xD031D0, size: 0x8, addend: 0x0, symName: __ZN4bsslL29ext_key_share_add_clienthelloEPNS_13SSL_HANDSHAKEEP6cbb_st, symObjAddr: 0x17FBF8, symBinAddr: 0x17749C, symSize: 0x354 }
  - { offset: 0xD03AAE, size: 0x8, addend: 0x0, symName: __ZN4bsslL42ext_psk_key_exchange_modes_add_clienthelloEPNS_13SSL_HANDSHAKEEP6cbb_st, symObjAddr: 0x17FF4C, symBinAddr: 0x1777F0, symSize: 0x90 }
  - { offset: 0xD03BA8, size: 0x8, addend: 0x0, symName: __ZN4bsslL44ext_psk_key_exchange_modes_parse_clienthelloEPNS_13SSL_HANDSHAKEEPhP6cbs_st, symObjAddr: 0x17FFDC, symBinAddr: 0x177880, symSize: 0x98 }
  - { offset: 0xD03D85, size: 0x8, addend: 0x0, symName: __ZN4bsslL30ext_early_data_add_clienthelloEPNS_13SSL_HANDSHAKEEP6cbb_st, symObjAddr: 0x180074, symBinAddr: 0x177918, symSize: 0x188 }
  - { offset: 0xD0406C, size: 0x8, addend: 0x0, symName: __ZN4bsslL32ext_early_data_parse_serverhelloEPNS_13SSL_HANDSHAKEEPhP6cbs_st, symObjAddr: 0x1801FC, symBinAddr: 0x177AA0, symSize: 0xA4 }
  - { offset: 0xD040FD, size: 0x8, addend: 0x0, symName: __ZN4bsslL32ext_early_data_parse_clienthelloEPNS_13SSL_HANDSHAKEEPhP6cbs_st, symObjAddr: 0x1802A0, symBinAddr: 0x177B44, symSize: 0x74 }
  - { offset: 0xD0418E, size: 0x8, addend: 0x0, symName: __ZN4bsslL30ext_early_data_add_serverhelloEPNS_13SSL_HANDSHAKEEP6cbb_st, symObjAddr: 0x180314, symBinAddr: 0x177BB8, symSize: 0x64 }
  - { offset: 0xD041FA, size: 0x8, addend: 0x0, symName: __ZN4bsslL38ext_supported_versions_add_clienthelloEPNS_13SSL_HANDSHAKEEP6cbb_st, symObjAddr: 0x180378, symBinAddr: 0x177C1C, symSize: 0x120 }
  - { offset: 0xD043B4, size: 0x8, addend: 0x0, symName: __ZN4bsslL26ext_cookie_add_clienthelloEPNS_13SSL_HANDSHAKEEP6cbb_st, symObjAddr: 0x180498, symBinAddr: 0x177D3C, symSize: 0xB4 }
  - { offset: 0xD045AC, size: 0x8, addend: 0x0, symName: __ZN4bsslL41ext_quic_transport_params_add_clienthelloEPNS_13SSL_HANDSHAKEEP6cbb_st, symObjAddr: 0x18054C, symBinAddr: 0x177DF0, symSize: 0xB0 }
  - { offset: 0xD046AF, size: 0x8, addend: 0x0, symName: __ZN4bsslL43ext_quic_transport_params_parse_serverhelloEPNS_13SSL_HANDSHAKEEPhP6cbs_st, symObjAddr: 0x1805FC, symBinAddr: 0x177EA0, symSize: 0x88 }
  - { offset: 0xD04792, size: 0x8, addend: 0x0, symName: __ZN4bsslL43ext_quic_transport_params_parse_clienthelloEPNS_13SSL_HANDSHAKEEPhP6cbs_st, symObjAddr: 0x180684, symBinAddr: 0x177F28, symSize: 0xB0 }
  - { offset: 0xD048A5, size: 0x8, addend: 0x0, symName: __ZN4bsslL41ext_quic_transport_params_add_serverhelloEPNS_13SSL_HANDSHAKEEP6cbb_st, symObjAddr: 0x180734, symBinAddr: 0x177FD8, symSize: 0x9C }
  - { offset: 0xD049A8, size: 0x8, addend: 0x0, symName: __ZN4bsslL33ext_token_binding_add_clienthelloEPNS_13SSL_HANDSHAKEEP6cbb_st, symObjAddr: 0x1807D0, symBinAddr: 0x178074, symSize: 0xB8 }
  - { offset: 0xD04B26, size: 0x8, addend: 0x0, symName: __ZN4bsslL35ext_token_binding_parse_serverhelloEPNS_13SSL_HANDSHAKEEPhP6cbs_st, symObjAddr: 0x180888, symBinAddr: 0x17812C, symSize: 0xD8 }
  - { offset: 0xD04D96, size: 0x8, addend: 0x0, symName: __ZN4bsslL35ext_token_binding_parse_clienthelloEPNS_13SSL_HANDSHAKEEPhP6cbs_st, symObjAddr: 0x180960, symBinAddr: 0x178204, symSize: 0xD8 }
  - { offset: 0xD04F8E, size: 0x8, addend: 0x0, symName: __ZN4bsslL15select_tb_paramEPNS_13SSL_HANDSHAKEENS_4SpanIKhEE, symObjAddr: 0x181224, symBinAddr: 0x178AC8, symSize: 0x64 }
  - { offset: 0xD0507C, size: 0x8, addend: 0x0, symName: __ZN4bsslL33ext_token_binding_add_serverhelloEPNS_13SSL_HANDSHAKEEP6cbb_st, symObjAddr: 0x180A38, symBinAddr: 0x1782DC, symSize: 0xB4 }
  - { offset: 0xD05195, size: 0x8, addend: 0x0, symName: __ZN4bsslL32cert_compression_add_clienthelloEPNS_13SSL_HANDSHAKEEP6cbb_st, symObjAddr: 0x180AEC, symBinAddr: 0x178390, symSize: 0xE0 }
  - { offset: 0xD05335, size: 0x8, addend: 0x0, symName: __ZN4bsslL34cert_compression_parse_serverhelloEPNS_13SSL_HANDSHAKEEPhP6cbs_st, symObjAddr: 0x180BCC, symBinAddr: 0x178470, symSize: 0xC }
  - { offset: 0xD0537E, size: 0x8, addend: 0x0, symName: __ZN4bsslL34cert_compression_parse_clienthelloEPNS_13SSL_HANDSHAKEEPhP6cbs_st, symObjAddr: 0x180BD8, symBinAddr: 0x17847C, symSize: 0x1F4 }
  - { offset: 0xD05795, size: 0x8, addend: 0x0, symName: __ZN4bsslL32cert_compression_add_serverhelloEPNS_13SSL_HANDSHAKEEP6cbb_st, symObjAddr: 0x180DCC, symBinAddr: 0x178670, symSize: 0x8 }
  - { offset: 0xD057CF, size: 0x8, addend: 0x0, symName: __ZN4bsslL40ext_delegated_credential_add_clienthelloEPNS_13SSL_HANDSHAKEEP6cbb_st, symObjAddr: 0x180DD4, symBinAddr: 0x178678, symSize: 0x8 }
  - { offset: 0xD05809, size: 0x8, addend: 0x0, symName: __ZN4bsslL42ext_delegated_credential_parse_clienthelloEPNS_13SSL_HANDSHAKEEPhP6cbs_st, symObjAddr: 0x180DDC, symBinAddr: 0x178680, symSize: 0xB4 }
  - { offset: 0xD059E5, size: 0x8, addend: 0x0, symName: __ZN4bsslL24ext_alps_add_clienthelloEPNS_13SSL_HANDSHAKEEP6cbb_st, symObjAddr: 0x180E90, symBinAddr: 0x178734, symSize: 0xF4 }
  - { offset: 0xD05C18, size: 0x8, addend: 0x0, symName: __ZN4bsslL26ext_alps_parse_serverhelloEPNS_13SSL_HANDSHAKEEPhP6cbs_st, symObjAddr: 0x180F84, symBinAddr: 0x178828, symSize: 0xD8 }
  - { offset: 0xD05D4D, size: 0x8, addend: 0x0, symName: __ZN4bsslL24ext_alps_add_serverhelloEPNS_13SSL_HANDSHAKEEP6cbb_st, symObjAddr: 0x18105C, symBinAddr: 0x178900, symSize: 0x98 }
  - { offset: 0xD06058, size: 0x8, addend: 0x0, symName: __ZN4bssl28ssl_parse_serverhello_tlsextEPNS_13SSL_HANDSHAKEEP6cbs_st, symObjAddr: 0x1813C4, symBinAddr: 0x178C68, symSize: 0x484 }
  - { offset: 0xD06A9E, size: 0x8, addend: 0x0, symName: __ZN4bssl31tls1_choose_signature_algorithmEPNS_13SSL_HANDSHAKEEPt, symObjAddr: 0x181848, symBinAddr: 0x1790EC, symSize: 0x22C }
  - { offset: 0xD06F58, size: 0x8, addend: 0x0, symName: __ZN4bssl21tls1_write_channel_idEPNS_13SSL_HANDSHAKEEP6cbb_st, symObjAddr: 0x181A74, symBinAddr: 0x179318, symSize: 0x328 }
  - { offset: 0xD07689, size: 0x8, addend: 0x0, symName: __ZN4bssl26ssl_do_channel_id_callbackEPNS_13SSL_HANDSHAKEE, symObjAddr: 0x181D9C, symBinAddr: 0x179640, symSize: 0x100 }
  - { offset: 0xA297C2, size: 0x8, addend: 0x0, symName: _X509v3_get_ext_by_NID, symObjAddr: 0x1078B0, symBinAddr: 0x101AF8, symSize: 0x8C }
  - { offset: 0xA29971, size: 0x8, addend: 0x0, symName: _X509v3_get_ext_by_NID, symObjAddr: 0x1078B0, symBinAddr: 0x101AF8, symSize: 0x8C }
  - { offset: 0x70151F, size: 0x8, addend: 0x0, symName: __ZN6twitch15AbrDecisionSinkD1Ev, symObjAddr: 0xA5ED4, symBinAddr: 0xA3390, symSize: 0x68 }
  - { offset: 0x7025A7, size: 0x8, addend: 0x0, symName: __ZN6twitch15AbrDecisionSinkD1Ev, symObjAddr: 0xA5ED4, symBinAddr: 0xA3390, symSize: 0x68 }
  - { offset: 0x702654, size: 0x8, addend: 0x0, symName: __ZN6twitch15AbrDecisionSinkD0Ev, symObjAddr: 0xA5F3C, symBinAddr: 0xA33F8, symSize: 0x6C }
  - { offset: 0x70323C, size: 0x8, addend: 0x0, symName: __ZN6twitch15AbrDecisionSink7receiveERKNS_13ControlSampleE, symObjAddr: 0xA5FA8, symBinAddr: 0xA3464, symSize: 0x14B0 }
  - { offset: 0x70A51F, size: 0x8, addend: 0x0, symName: __ZThn24_N6twitch15AbrDecisionSinkD1Ev, symObjAddr: 0xA7458, symBinAddr: 0xA4914, symSize: 0x68 }
  - { offset: 0x70A5D9, size: 0x8, addend: 0x0, symName: __ZThn24_N6twitch15AbrDecisionSinkD0Ev, symObjAddr: 0xA74C0, symBinAddr: 0xA497C, symSize: 0x6C }
  - { offset: 0x70A697, size: 0x8, addend: 0x0, symName: __ZThn48_N6twitch15AbrDecisionSink7receiveERKNS_13ControlSampleE, symObjAddr: 0xA752C, symBinAddr: 0xA49E8, symSize: 0x8 }
  - { offset: 0x70A6BC, size: 0x8, addend: 0x0, symName: __ZThn48_N6twitch15AbrDecisionSinkD1Ev, symObjAddr: 0xA7534, symBinAddr: 0xA49F0, symSize: 0x64 }
  - { offset: 0x70A75A, size: 0x8, addend: 0x0, symName: __ZThn48_N6twitch15AbrDecisionSinkD0Ev, symObjAddr: 0xA7598, symBinAddr: 0xA4A54, symSize: 0x68 }
  - { offset: 0x405256, size: 0x8, addend: 0x0, symName: __ZN6twitch3ios12GCDEventLoopD1Ev, symObjAddr: 0x5FA2C, symBinAddr: 0x5FBFC, symSize: 0x4 }
  - { offset: 0x40C6BD, size: 0x8, addend: 0x0, symName: __ZNSt3__113__tree_removeB8nn180100IPNS_16__tree_node_baseIPvEEEEvT_S5_, symObjAddr: 0x608D0, symBinAddr: 0x60A3C, symSize: 0x384 }
  - { offset: 0x40F17B, size: 0x8, addend: 0x0, symName: __ZN6twitch3ios12GCDEventLoopD1Ev, symObjAddr: 0x5FA2C, symBinAddr: 0x5FBFC, symSize: 0x4 }
  - { offset: 0x40F19F, size: 0x8, addend: 0x0, symName: __ZN6twitch3ios12GCDEventLoopD1Ev, symObjAddr: 0x5FA2C, symBinAddr: 0x5FBFC, symSize: 0x4 }
  - { offset: 0x40F1AA, size: 0x8, addend: 0x0, symName: __ZN6twitch3ios12GCDEventLoopD2Ev, symObjAddr: 0x613DC, symBinAddr: 0x61548, symSize: 0x170 }
  - { offset: 0x40F87A, size: 0x8, addend: 0x0, symName: __ZN6twitch3ios12GCDEventLoopD0Ev, symObjAddr: 0x5FA30, symBinAddr: 0x5FC00, symSize: 0x14 }
  - { offset: 0x40FCDF, size: 0x8, addend: 0x0, symName: __ZN6twitch3ios12GCDEventLoop5watchEiONSt3__18functionIFbiEEE, symObjAddr: 0x5FA44, symBinAddr: 0x5FC14, symSize: 0x370 }
  - { offset: 0x41041C, size: 0x8, addend: 0x0, symName: __ZNSt3__112__hash_tableINS_17__hash_value_typeIiNS_6vectorIU8__strongPU29objcproto18OS_dispatch_source8NSObjectNS_9allocatorIS6_EEEEEENS_22__unordered_map_hasherIiSA_NS_4hashIiEENS_8equal_toIiEELb1EEENS_21__unordered_map_equalIiSA_SF_SD_Lb1EEENS7_ISA_EEE25__emplace_unique_key_argsIiJRKNS_21piecewise_construct_tENS_5tupleIJRKiEEENSP_IJEEEEEENS_4pairINS_15__hash_iteratorIPNS_11__hash_nodeISA_PvEEEEbEERKT_DpOT0_, symObjAddr: 0x60430, symBinAddr: 0x6059C, symSize: 0x3DC }
  - { offset: 0x410F96, size: 0x8, addend: 0x0, symName: __ZNSt3__16__treeIiNS_4lessIiEENS_9allocatorIiEEE14__erase_uniqueIiEEmRKT_, symObjAddr: 0x6080C, symBinAddr: 0x60978, symSize: 0xC4 }
  - { offset: 0x410FBF, size: 0x8, addend: 0x0, symName: __ZNSt3__16vectorIU8__strongPU29objcproto18OS_dispatch_source8NSObjectNS_9allocatorIS4_EEE18__assign_with_sizeB8nn180100IPU8__strongKS3_SA_EEvT_T0_l, symObjAddr: 0x611A8, symBinAddr: 0x61314, symSize: 0x164 }
  - { offset: 0x4118CF, size: 0x8, addend: 0x0, symName: __ZNKSt3__111__copy_loopINS_17_ClassicAlgPolicyEEclB8nn180100IPU8__strongKPU29objcproto18OS_dispatch_source8NSObjectS8_PU8__strongS6_EENS_4pairIT_T1_EESC_T0_SD_, symObjAddr: 0x6130C, symBinAddr: 0x61478, symSize: 0x50 }
  - { offset: 0x4118EC, size: 0x8, addend: 0x0, symName: __ZNSt3__16__treeIiNS_4lessIiEENS_9allocatorIiEEE25__emplace_unique_key_argsIiJRKiEEENS_4pairINS_15__tree_iteratorIiPNS_11__tree_nodeIiPvEElEEbEERKT_DpOT0_, symObjAddr: 0x60C54, symBinAddr: 0x60DC0, symSize: 0xB4 }
  - { offset: 0x411D0C, size: 0x8, addend: 0x0, symName: __ZN6twitch3ios12GCDEventLoop7unwatchEi, symObjAddr: 0x5FDB4, symBinAddr: 0x5FF84, symSize: 0xEC }
  - { offset: 0x41208C, size: 0x8, addend: 0x0, symName: __ZNSt3__112__hash_tableINS_17__hash_value_typeIiNS_6vectorIU8__strongPU29objcproto18OS_dispatch_source8NSObjectNS_9allocatorIS6_EEEEEENS_22__unordered_map_hasherIiSA_NS_4hashIiEENS_8equal_toIiEELb1EEENS_21__unordered_map_equalIiSA_SF_SD_Lb1EEENS7_ISA_EEE4findIiEENS_15__hash_iteratorIPNS_11__hash_nodeISA_PvEEEERKT_, symObjAddr: 0x6037C, symBinAddr: 0x604E8, symSize: 0xB4 }
  - { offset: 0x4120E7, size: 0x8, addend: 0x0, symName: __ZNSt3__112__hash_tableINS_17__hash_value_typeIiNS_6vectorIU8__strongPU29objcproto18OS_dispatch_source8NSObjectNS_9allocatorIS6_EEEEEENS_22__unordered_map_hasherIiSA_NS_4hashIiEENS_8equal_toIiEELb1EEENS_21__unordered_map_equalIiSA_SF_SD_Lb1EEENS7_ISA_EEE4findIiEENS_15__hash_iteratorIPNS_11__hash_nodeISA_PvEEEERKT_, symObjAddr: 0x6037C, symBinAddr: 0x604E8, symSize: 0xB4 }
  - { offset: 0x412105, size: 0x8, addend: 0x0, symName: __ZNSt3__112__hash_tableINS_17__hash_value_typeIiNS_6vectorIU8__strongPU29objcproto18OS_dispatch_source8NSObjectNS_9allocatorIS6_EEEEEENS_22__unordered_map_hasherIiSA_NS_4hashIiEENS_8equal_toIiEELb1EEENS_21__unordered_map_equalIiSA_SF_SD_Lb1EEENS7_ISA_EEE4findIiEENS_15__hash_iteratorIPNS_11__hash_nodeISA_PvEEEERKT_, symObjAddr: 0x6037C, symBinAddr: 0x604E8, symSize: 0xB4 }
  - { offset: 0x41222E, size: 0x8, addend: 0x0, symName: __ZNSt3__16__treeIiNS_4lessIiEENS_9allocatorIiEEE14__erase_uniqueIiEEmRKT_, symObjAddr: 0x6080C, symBinAddr: 0x60978, symSize: 0xC4 }
  - { offset: 0x412506, size: 0x8, addend: 0x0, symName: __ZN6twitch3ios12GCDEventLoop13cancelSourcesERKNSt3__16vectorIU8__strongPU29objcproto18OS_dispatch_source8NSObjectNS2_9allocatorIS7_EEEE, symObjAddr: 0x60D08, symBinAddr: 0x60E74, symSize: 0xD0 }
  - { offset: 0x4126CB, size: 0x8, addend: 0x0, symName: __ZNSt3__112__hash_tableINS_17__hash_value_typeIiNS_6vectorIU8__strongPU29objcproto18OS_dispatch_source8NSObjectNS_9allocatorIS6_EEEEEENS_22__unordered_map_hasherIiSA_NS_4hashIiEENS_8equal_toIiEELb1EEENS_21__unordered_map_equalIiSA_SF_SD_Lb1EEENS7_ISA_EEE14__erase_uniqueIiEEmRKT_, symObjAddr: 0x60DD8, symBinAddr: 0x60F44, symSize: 0x178 }
  - { offset: 0x412B5A, size: 0x8, addend: 0x0, symName: __ZN6twitch3ios12GCDEventLoop15pauseWriteWatchEi, symObjAddr: 0x5FEA0, symBinAddr: 0x60070, symSize: 0xA4 }
  - { offset: 0x412DF7, size: 0x8, addend: 0x0, symName: __ZN6twitch3ios12GCDEventLoop16resumeWriteWatchEi, symObjAddr: 0x5FF44, symBinAddr: 0x60114, symSize: 0xCC }
  - { offset: 0x41321D, size: 0x8, addend: 0x0, symName: __ZN6twitch3ios12GCDEventLoop11createTimerEyONSt3__18functionIFbiEEE, symObjAddr: 0x60010, symBinAddr: 0x601E0, symSize: 0x238 }
  - { offset: 0x413761, size: 0x8, addend: 0x0, symName: ____ZN6twitch3ios12GCDEventLoop11createTimerEyONSt3__18functionIFbiEEE_block_invoke, symObjAddr: 0x60248, symBinAddr: 0x60418, symSize: 0x50 }
  - { offset: 0x41380E, size: 0x8, addend: 0x0, symName: ___copy_helper_block_a8_32s40c27_ZTSNSt3__18functionIFbiEEE, symObjAddr: 0x60298, symBinAddr: 0x60468, symSize: 0x30 }
  - { offset: 0x413819, size: 0x8, addend: 0x0, symName: ___copy_helper_block_a8_32s40c27_ZTSNSt3__18functionIFbiEEE, symObjAddr: 0x60298, symBinAddr: 0x60468, symSize: 0x30 }
  - { offset: 0x4138F2, size: 0x8, addend: 0x0, symName: ___destroy_helper_block_a8_32s40c27_ZTSNSt3__18functionIFbiEEE, symObjAddr: 0x602C8, symBinAddr: 0x60498, symSize: 0x50 }
  - { offset: 0x41461D, size: 0x8, addend: 0x0, symName: __ZNSt3__16vectorIU8__strongPU29objcproto18OS_dispatch_source8NSObjectNS_9allocatorIS4_EEE16__destroy_vectorclB8nn180100Ev, symObjAddr: 0x60F50, symBinAddr: 0x610BC, symSize: 0x6C }
  - { offset: 0x414849, size: 0x8, addend: 0x0, symName: ____ZN6twitch3ios12GCDEventLoop13cancelSourcesERKNSt3__16vectorIU8__strongPU29objcproto18OS_dispatch_source8NSObjectNS2_9allocatorIS7_EEEE_block_invoke, symObjAddr: 0x60FBC, symBinAddr: 0x61128, symSize: 0x44 }
  - { offset: 0x4148FA, size: 0x8, addend: 0x0, symName: ____ZN6twitch3ios12GCDEventLoop5watchEiONSt3__18functionIFbiEEE_block_invoke, symObjAddr: 0x61000, symBinAddr: 0x6116C, symSize: 0xD4 }
  - { offset: 0x414BA0, size: 0x8, addend: 0x0, symName: ____ZN6twitch3ios12GCDEventLoop5watchEiONSt3__18functionIFbiEEE_block_invoke.2, symObjAddr: 0x610D4, symBinAddr: 0x61240, symSize: 0xD4 }
  - { offset: 0x414BBE, size: 0x8, addend: 0x0, symName: ____ZN6twitch3ios12GCDEventLoop5watchEiONSt3__18functionIFbiEEE_block_invoke.2, symObjAddr: 0x610D4, symBinAddr: 0x61240, symSize: 0xD4 }
  - { offset: 0x414E64, size: 0x8, addend: 0x0, symName: __ZNSt3__16vectorIU8__strongPU29objcproto18OS_dispatch_source8NSObjectNS_9allocatorIS4_EEE18__assign_with_sizeB8nn180100IPU8__strongKS3_SA_EEvT_T0_l, symObjAddr: 0x611A8, symBinAddr: 0x61314, symSize: 0x164 }
  - { offset: 0x4150EC, size: 0x8, addend: 0x0, symName: __ZNKSt3__111__copy_loopINS_17_ClassicAlgPolicyEEclB8nn180100IPU8__strongKPU29objcproto18OS_dispatch_source8NSObjectS8_PU8__strongS6_EENS_4pairIT_T1_EESC_T0_SD_, symObjAddr: 0x6130C, symBinAddr: 0x61478, symSize: 0x50 }
  - { offset: 0x41515A, size: 0x8, addend: 0x0, symName: ___copy_helper_block_a8_32s48c27_ZTSNSt3__18functionIFbiEEE, symObjAddr: 0x6135C, symBinAddr: 0x614C8, symSize: 0x30 }
  - { offset: 0x415204, size: 0x8, addend: 0x0, symName: ___destroy_helper_block_a8_32s48c27_ZTSNSt3__18functionIFbiEEE, symObjAddr: 0x6138C, symBinAddr: 0x614F8, symSize: 0x50 }
  - { offset: 0x41553C, size: 0x8, addend: 0x0, symName: __ZNSt3__112__hash_tableINS_17__hash_value_typeIiNS_6vectorIU8__strongPU29objcproto18OS_dispatch_source8NSObjectNS_9allocatorIS6_EEEEEENS_22__unordered_map_hasherIiSA_NS_4hashIiEENS_8equal_toIiEELb1EEENS_21__unordered_map_equalIiSA_SF_SD_Lb1EEENS7_ISA_EEED2Ev, symObjAddr: 0x61584, symBinAddr: 0x616B8, symSize: 0x6C }
  - { offset: 0x415D14, size: 0x8, addend: 0x0, symName: __ZN6twitch3ios12GCDEventLoopC1Ev, symObjAddr: 0x615F0, symBinAddr: 0x61724, symSize: 0xB0 }
  - { offset: 0xA16C52, size: 0x8, addend: 0x0, symName: _marshal_integer.5397, symObjAddr: 0x103F24, symBinAddr: 0xFE1CC, symSize: 0x34 }
  - { offset: 0xA17294, size: 0x8, addend: 0x0, symName: _marshal_integer.5397, symObjAddr: 0x103F24, symBinAddr: 0xFE1CC, symSize: 0x34 }
  - { offset: 0xA172EF, size: 0x8, addend: 0x0, symName: _parse_integer.5400, symObjAddr: 0x103F58, symBinAddr: 0xFE200, symSize: 0x40 }
  - { offset: 0xC6012D, size: 0x8, addend: 0x0, symName: __ZN6twitch4rtmp18RtmpHandshakeStateD1Ev, symObjAddr: 0x163084, symBinAddr: 0x15AB20, symSize: 0x4 }
  - { offset: 0xC60F75, size: 0x8, addend: 0x0, symName: __ZN6twitch4rtmp18RtmpHandshakeStateD1Ev, symObjAddr: 0x163084, symBinAddr: 0x15AB20, symSize: 0x4 }
  - { offset: 0xC60F9E, size: 0x8, addend: 0x0, symName: __ZN6twitch4rtmp18RtmpHandshakeStateD0Ev, symObjAddr: 0x163088, symBinAddr: 0x15AB24, symSize: 0x4 }
  - { offset: 0xC6138B, size: 0x8, addend: 0x0, symName: __ZN6twitch4rtmp18RtmpHandshakeState15onEnterInternalEv, symObjAddr: 0x16308C, symBinAddr: 0x15AB28, symSize: 0x8B8 }
  - { offset: 0xC643FA, size: 0x8, addend: 0x0, symName: __ZNSt3__16vectorIhNS_9allocatorIhEEE6resizeEm, symObjAddr: 0x163958, symBinAddr: 0x15B3F4, symSize: 0x30 }
  - { offset: 0xC64430, size: 0x8, addend: 0x0, symName: __ZNSt3__16vectorIhNS_9allocatorIhEEE6resizeEm, symObjAddr: 0x163958, symBinAddr: 0x15B3F4, symSize: 0x30 }
  - { offset: 0xC644A8, size: 0x8, addend: 0x0, symName: __ZNK6twitch4rtmp18RtmpHandshakeState18getTimeoutDurationEv, symObjAddr: 0x163944, symBinAddr: 0x15B3E0, symSize: 0x14 }
  - { offset: 0x42231C, size: 0x8, addend: 0x0, symName: __ZN6twitch3ios12GCDSchedulerD1Ev, symObjAddr: 0x62C28, symBinAddr: 0x62D5C, symSize: 0x4 }
  - { offset: 0x423EEA, size: 0x8, addend: 0x0, symName: __ZN6twitch3ios12GCDSchedulerD1Ev, symObjAddr: 0x62C28, symBinAddr: 0x62D5C, symSize: 0x4 }
  - { offset: 0x423F0E, size: 0x8, addend: 0x0, symName: __ZN6twitch3ios12GCDSchedulerD1Ev, symObjAddr: 0x62C28, symBinAddr: 0x62D5C, symSize: 0x4 }
  - { offset: 0x423F19, size: 0x8, addend: 0x0, symName: __ZN6twitch3ios12GCDSchedulerD2Ev, symObjAddr: 0x63870, symBinAddr: 0x638F0, symSize: 0x168 }
  - { offset: 0x4246CE, size: 0x8, addend: 0x0, symName: __ZN6twitch3ios12GCDSchedulerD0Ev, symObjAddr: 0x62C2C, symBinAddr: 0x62D60, symSize: 0x14 }
  - { offset: 0x424725, size: 0x8, addend: 0x0, symName: __ZNK6twitch3ios12GCDScheduler14checkIsCurrentEv, symObjAddr: 0x62C40, symBinAddr: 0x62D74, symSize: 0x4 }
  - { offset: 0x42474A, size: 0x8, addend: 0x0, symName: __ZNK6twitch3ios12GCDScheduler17checkIsNotCurrentEv, symObjAddr: 0x62C44, symBinAddr: 0x62D78, symSize: 0x4 }
  - { offset: 0x42524E, size: 0x8, addend: 0x0, symName: __ZN6twitch3ios12GCDScheduler8scheduleENSt3__18functionIFvvEEENS2_6chrono8durationIxNS2_5ratioILl1ELl1000000EEEEE, symObjAddr: 0x62C48, symBinAddr: 0x62D7C, symSize: 0x2C8 }
  - { offset: 0x425ED2, size: 0x8, addend: 0x0, symName: __ZN6twitch3ios12GCDScheduler4TaskC2ENSt3__18functionIFvvEEEU13block_pointerS5_iNS3_8weak_ptrIS1_EE, symObjAddr: 0x633C8, symBinAddr: 0x63448, symSize: 0xA0 }
  - { offset: 0x4260B5, size: 0x8, addend: 0x0, symName: __ZNSt3__16__treeINS_12__value_typeIiNS_10shared_ptrIN6twitch3ios12GCDScheduler4TaskEEEEENS_19__map_value_compareIiS8_NS_4lessIiEELb1EEENS_9allocatorIS8_EEE25__emplace_unique_key_argsIiJRKNS_21piecewise_construct_tENS_5tupleIJRKiEEENSK_IJEEEEEENS_4pairINS_15__tree_iteratorIS8_PNS_11__tree_nodeIS8_PvEElEEbEERKT_DpOT0_, symObjAddr: 0x632AC, symBinAddr: 0x6337C, symSize: 0xCC }
  - { offset: 0x426420, size: 0x8, addend: 0x0, symName: __ZN6twitch3ios12GCDScheduler12synchronizedENSt3__18functionIFvvEEEb, symObjAddr: 0x62F10, symBinAddr: 0x63044, symSize: 0x1A0 }
  - { offset: 0x42678C, size: 0x8, addend: 0x0, symName: ____ZN6twitch3ios12GCDScheduler12synchronizedENSt3__18functionIFvvEEEb_block_invoke.3, symObjAddr: 0x630B0, symBinAddr: 0x631E4, symSize: 0x24 }
  - { offset: 0x426822, size: 0x8, addend: 0x0, symName: ____ZN6twitch3ios12GCDScheduler12synchronizedENSt3__18functionIFvvEEEb_block_invoke, symObjAddr: 0x63138, symBinAddr: 0x63208, symSize: 0x24 }
  - { offset: 0x4268AD, size: 0x8, addend: 0x0, symName: ___copy_helper_block_a8_32c27_ZTSNSt3__18functionIFvvEEE, symObjAddr: 0x6315C, symBinAddr: 0x6322C, symSize: 0xC }
  - { offset: 0x4268B8, size: 0x8, addend: 0x0, symName: ___copy_helper_block_a8_32c27_ZTSNSt3__18functionIFvvEEE, symObjAddr: 0x6315C, symBinAddr: 0x6322C, symSize: 0xC }
  - { offset: 0x426962, size: 0x8, addend: 0x0, symName: ___destroy_helper_block_a8_32c27_ZTSNSt3__18functionIFvvEEE, symObjAddr: 0x63168, symBinAddr: 0x63238, symSize: 0x34 }
  - { offset: 0x426AF1, size: 0x8, addend: 0x0, symName: ____ZN6twitch3ios12GCDScheduler8scheduleENSt3__18functionIFvvEEENS2_6chrono8durationIxNS2_5ratioILl1ELl1000000EEEEE_block_invoke, symObjAddr: 0x6319C, symBinAddr: 0x6326C, symSize: 0x110 }
  - { offset: 0x426F37, size: 0x8, addend: 0x0, symName: __ZNSt3__16__treeINS_12__value_typeIiNS_10shared_ptrIN6twitch3ios12GCDScheduler4TaskEEEEENS_19__map_value_compareIiS8_NS_4lessIiEELb1EEENS_9allocatorIS8_EEE25__emplace_unique_key_argsIiJRKNS_21piecewise_construct_tENS_5tupleIJRKiEEENSK_IJEEEEEENS_4pairINS_15__tree_iteratorIS8_PNS_11__tree_nodeIS8_PvEElEEbEERKT_DpOT0_, symObjAddr: 0x632AC, symBinAddr: 0x6337C, symSize: 0xCC }
  - { offset: 0x426F42, size: 0x8, addend: 0x0, symName: __ZNSt3__110__function12__value_funcIFvvEEaSB8nn180100EOS3_, symObjAddr: 0x637E0, symBinAddr: 0x63860, symSize: 0x90 }
  - { offset: 0x426FC2, size: 0x8, addend: 0x0, symName: __ZNSt3__16__treeINS_12__value_typeIiNS_10shared_ptrIN6twitch3ios12GCDScheduler4TaskEEEEENS_19__map_value_compareIiS8_NS_4lessIiEELb1EEENS_9allocatorIS8_EEE14__erase_uniqueIiEEmRKT_, symObjAddr: 0x6366C, symBinAddr: 0x636EC, symSize: 0xCC }
  - { offset: 0x427872, size: 0x8, addend: 0x0, symName: __ZN6twitch3ios12GCDScheduler4TaskD1Ev, symObjAddr: 0x63468, symBinAddr: 0x634E8, symSize: 0x70 }
  - { offset: 0x427A03, size: 0x8, addend: 0x0, symName: __ZN6twitch3ios12GCDScheduler4TaskD0Ev, symObjAddr: 0x634D8, symBinAddr: 0x63558, symSize: 0x70 }
  - { offset: 0x427C7F, size: 0x8, addend: 0x0, symName: __ZN6twitch3ios12GCDScheduler4Task6cancelEv, symObjAddr: 0x63548, symBinAddr: 0x635C8, symSize: 0x124 }
  - { offset: 0x428033, size: 0x8, addend: 0x0, symName: __ZNSt3__16__treeINS_12__value_typeIiNS_10shared_ptrIN6twitch3ios12GCDScheduler4TaskEEEEENS_19__map_value_compareIiS8_NS_4lessIiEELb1EEENS_9allocatorIS8_EEE14__erase_uniqueIiEEmRKT_, symObjAddr: 0x6366C, symBinAddr: 0x636EC, symSize: 0xCC }
  - { offset: 0x42828C, size: 0x8, addend: 0x0, symName: __ZNSt3__120__shared_ptr_emplaceIN6twitch3ios12GCDScheduler4TaskENS_9allocatorIS4_EEED1Ev, symObjAddr: 0x63738, symBinAddr: 0x637B8, symSize: 0x10 }
  - { offset: 0x4282B0, size: 0x8, addend: 0x0, symName: __ZNSt3__120__shared_ptr_emplaceIN6twitch3ios12GCDScheduler4TaskENS_9allocatorIS4_EEED1Ev, symObjAddr: 0x63738, symBinAddr: 0x637B8, symSize: 0x10 }
  - { offset: 0x4282E7, size: 0x8, addend: 0x0, symName: __ZNSt3__120__shared_ptr_emplaceIN6twitch3ios12GCDScheduler4TaskENS_9allocatorIS4_EEED0Ev, symObjAddr: 0x63748, symBinAddr: 0x637C8, symSize: 0x20 }
  - { offset: 0x4283B6, size: 0x8, addend: 0x0, symName: __ZNSt3__120__shared_ptr_emplaceIN6twitch3ios12GCDScheduler4TaskENS_9allocatorIS4_EEE16__on_zero_sharedEv, symObjAddr: 0x63768, symBinAddr: 0x637E8, symSize: 0x74 }
  - { offset: 0x428613, size: 0x8, addend: 0x0, symName: __ZNSt3__120__shared_ptr_emplaceIN6twitch3ios12GCDScheduler4TaskENS_9allocatorIS4_EEE21__on_zero_shared_weakEv, symObjAddr: 0x637DC, symBinAddr: 0x6385C, symSize: 0x4 }
  - { offset: 0x428648, size: 0x8, addend: 0x0, symName: __ZNSt3__120__shared_ptr_emplaceIN6twitch3ios12GCDScheduler4TaskENS_9allocatorIS4_EEE21__on_zero_shared_weakEv, symObjAddr: 0x637DC, symBinAddr: 0x6385C, symSize: 0x4 }
  - { offset: 0x42866D, size: 0x8, addend: 0x0, symName: __ZNSt3__120__shared_ptr_emplaceIN6twitch3ios12GCDScheduler4TaskENS_9allocatorIS4_EEE21__on_zero_shared_weakEv, symObjAddr: 0x637DC, symBinAddr: 0x6385C, symSize: 0x4 }
  - { offset: 0x428692, size: 0x8, addend: 0x0, symName: __ZNSt3__120__shared_ptr_emplaceIN6twitch3ios12GCDScheduler4TaskENS_9allocatorIS4_EEE21__on_zero_shared_weakEv, symObjAddr: 0x637DC, symBinAddr: 0x6385C, symSize: 0x4 }
  - { offset: 0x4286C2, size: 0x8, addend: 0x0, symName: __ZNSt3__120__shared_ptr_emplaceIN6twitch3ios12GCDScheduler4TaskENS_9allocatorIS4_EEE21__on_zero_shared_weakEv, symObjAddr: 0x637DC, symBinAddr: 0x6385C, symSize: 0x4 }
  - { offset: 0x4286EC, size: 0x8, addend: 0x0, symName: __ZNSt3__120__shared_ptr_emplaceIN6twitch3ios12GCDScheduler4TaskENS_9allocatorIS4_EEE21__on_zero_shared_weakEv, symObjAddr: 0x637DC, symBinAddr: 0x6385C, symSize: 0x4 }
  - { offset: 0x428B3E, size: 0x8, addend: 0x0, symName: __ZNSt3__16__treeINS_12__value_typeIiNS_10shared_ptrIN6twitch3ios12GCDScheduler4TaskEEEEENS_19__map_value_compareIiS8_NS_4lessIiEELb1EEENS_9allocatorIS8_EEE7destroyEPNS_11__tree_nodeIS8_PvEE, symObjAddr: 0x639D8, symBinAddr: 0x63A58, symSize: 0x40 }
  - { offset: 0x428D52, size: 0x8, addend: 0x0, symName: ____ZN6twitch3ios12GCDSchedulerD2Ev_block_invoke, symObjAddr: 0x63A18, symBinAddr: 0x63A98, symSize: 0x4 }
  - { offset: 0x428F6C, size: 0x8, addend: 0x0, symName: __ZN6twitch3ios12GCDSchedulerC1ERKNSt3__112basic_stringIcNS2_11char_traitsIcEENS2_9allocatorIcEEEEPU33objcproto22OS_dispatch_queue_attr8NSObjectPU28objcproto17OS_dispatch_queueSB_, symObjAddr: 0x63A1C, symBinAddr: 0x63A9C, symSize: 0x138 }
  - { offset: 0x9E3653, size: 0x8, addend: 0x0, symName: _CBB_init, symObjAddr: 0xF25DC, symBinAddr: 0xEC884, symSize: 0xC0 }
  - { offset: 0x9E37F9, size: 0x8, addend: 0x0, symName: _CBB_init, symObjAddr: 0xF25DC, symBinAddr: 0xEC884, symSize: 0xC0 }
  - { offset: 0x9E39CF, size: 0x8, addend: 0x0, symName: _CBB_init_fixed, symObjAddr: 0xF269C, symBinAddr: 0xEC944, symSize: 0x70 }
  - { offset: 0x9E3AA9, size: 0x8, addend: 0x0, symName: _CBB_cleanup, symObjAddr: 0xF270C, symBinAddr: 0xEC9B4, symSize: 0x88 }
  - { offset: 0x9E3BEA, size: 0x8, addend: 0x0, symName: _CBB_finish, symObjAddr: 0xF2794, symBinAddr: 0xECA3C, symSize: 0x8C }
  - { offset: 0x9E3C51, size: 0x8, addend: 0x0, symName: _CBB_flush, symObjAddr: 0xF2820, symBinAddr: 0xECAC8, symSize: 0x1C4 }
  - { offset: 0x9E3DEB, size: 0x8, addend: 0x0, symName: _cbb_buffer_reserve, symObjAddr: 0xF29E4, symBinAddr: 0xECC8C, symSize: 0x98 }
  - { offset: 0x9E3E95, size: 0x8, addend: 0x0, symName: _cbb_add_length_prefixed, symObjAddr: 0xF2A7C, symBinAddr: 0xECD24, symSize: 0xA0 }
  - { offset: 0x9E3FAE, size: 0x8, addend: 0x0, symName: _CBB_add_asn1, symObjAddr: 0xF2B1C, symBinAddr: 0xECDC4, symSize: 0xC0 }
  - { offset: 0x9E40A3, size: 0x8, addend: 0x0, symName: _CBB_add_u8, symObjAddr: 0xF2BDC, symBinAddr: 0xECE84, symSize: 0x40 }
  - { offset: 0x9E40FD, size: 0x8, addend: 0x0, symName: _add_base128_integer, symObjAddr: 0xF2C1C, symBinAddr: 0xECEC4, symSize: 0xA4 }
  - { offset: 0x9E41AB, size: 0x8, addend: 0x0, symName: _cbb_buffer_add_u, symObjAddr: 0xF2CC0, symBinAddr: 0xECF68, symSize: 0x80 }
  - { offset: 0x9E4299, size: 0x8, addend: 0x0, symName: _CBB_add_bytes, symObjAddr: 0xF2D40, symBinAddr: 0xECFE8, symSize: 0x78 }
  - { offset: 0x9E436F, size: 0x8, addend: 0x0, symName: _CBB_add_space, symObjAddr: 0xF2DB8, symBinAddr: 0xED060, symSize: 0x5C }
  - { offset: 0x9E4409, size: 0x8, addend: 0x0, symName: _CBB_reserve, symObjAddr: 0xF2E14, symBinAddr: 0xED0BC, symSize: 0x50 }
  - { offset: 0x9E4474, size: 0x8, addend: 0x0, symName: _CBB_add_u16, symObjAddr: 0xF2E64, symBinAddr: 0xED10C, symSize: 0x40 }
  - { offset: 0x9E44CE, size: 0x8, addend: 0x0, symName: _CBB_add_u24, symObjAddr: 0xF2EA4, symBinAddr: 0xED14C, symSize: 0x40 }
  - { offset: 0x9E4528, size: 0x8, addend: 0x0, symName: _CBB_add_u32, symObjAddr: 0xF2EE4, symBinAddr: 0xED18C, symSize: 0x40 }
  - { offset: 0x9E4582, size: 0x8, addend: 0x0, symName: _CBB_add_asn1_uint64, symObjAddr: 0xF2F24, symBinAddr: 0xED1CC, symSize: 0xC8 }
  - { offset: 0x9E4661, size: 0x8, addend: 0x0, symName: _parse_dotted_decimal, symObjAddr: 0xF2FEC, symBinAddr: 0xED294, symSize: 0xAC }
  - { offset: 0xA38CE6, size: 0x8, addend: 0x0, symName: _X509_EXTENSION_it, symObjAddr: 0x1E25C0, symBinAddr: 0x1E9578, symSize: 0x0 }
  - { offset: 0xA38DF6, size: 0x8, addend: 0x0, symName: _X509_EXTENSION_seq_tt, symObjAddr: 0x1E1F90, symBinAddr: 0x1E8F48, symSize: 0x0 }
  - { offset: 0x52DDD5, size: 0x8, addend: 0x0, symName: __ZN6twitch14CodecDiscoveryD1Ev, symObjAddr: 0x7BA0C, symBinAddr: 0x7A6B4, symSize: 0x4 }
  - { offset: 0x5341AF, size: 0x8, addend: 0x0, symName: __ZNSt3__112__destroy_atB8nn180100INS_4pairIN6twitch10VideoCodecENS2_20BroadcastVideoConfigEEELi0EEEvPT_, symObjAddr: 0x7BE70, symBinAddr: 0x7AB18, symSize: 0x44 }
  - { offset: 0x534831, size: 0x8, addend: 0x0, symName: __ZNSt3__112__destroy_atB8nn180100IN6twitch14CodecDiscovery6ResultELi0EEEvPT_, symObjAddr: 0x7FB58, symBinAddr: 0x7E79C, symSize: 0x94 }
  - { offset: 0x535255, size: 0x8, addend: 0x0, symName: __ZNSt3__112construct_atB8nn180100IN6twitch14CodecDiscovery6ResultEJRKS3_EPS3_EEPT_S8_DpOT0_, symObjAddr: 0x814F8, symBinAddr: 0x7FFF8, symSize: 0x78 }
  - { offset: 0x536AA0, size: 0x8, addend: 0x0, symName: __ZNSt3__119__allocate_at_leastB8nn180100INS_9allocatorINS_4pairINS_13shared_futureIN6twitch5ErrorEEENS_12basic_stringIcNS_11char_traitsIcEENS1_IcEEEEEEEEEENS_19__allocation_resultINS_16allocator_traitsIT_E7pointerEEERSG_m, symObjAddr: 0x7FBEC, symBinAddr: 0x7E830, symSize: 0x34 }
  - { offset: 0x536B3B, size: 0x8, addend: 0x0, symName: __ZNSt3__114__split_bufferINS_4pairINS_13shared_futureIN6twitch5ErrorEEENS_12basic_stringIcNS_11char_traitsIcEENS_9allocatorIcEEEEEERNS9_ISC_EEED2Ev, symObjAddr: 0x7FC20, symBinAddr: 0x7E864, symSize: 0x4C }
  - { offset: 0x536B51, size: 0x8, addend: 0x0, symName: __ZNSt3__112__destroy_atB8nn180100INS_4pairINS_13shared_futureIN6twitch5ErrorEEENS_12basic_stringIcNS_11char_traitsIcEENS_9allocatorIcEEEEEELi0EEEvPT_, symObjAddr: 0x7FC6C, symBinAddr: 0x7E8B0, symSize: 0x58 }
  - { offset: 0x53712F, size: 0x8, addend: 0x0, symName: '__ZNSt3__122__deferred_assoc_stateIN6twitch5ErrorENS_12__async_funcIZNS1_14CodecDiscovery19deviceConfigEnabledERKNS_12basic_stringIcNS_11char_traitsIcEENS_9allocatorIcEEEESC_RKNS_10shared_ptrINS1_26DeviceConfigPropertyHolderEEEE3$_0JEEEED1Ev', symObjAddr: 0x80888, symBinAddr: 0x7F428, symSize: 0x80 }
  - { offset: 0x53743E, size: 0x8, addend: 0x0, symName: __ZNSt3__119__allocate_at_leastB8nn180100INS_9allocatorIiEEEENS_19__allocation_resultINS_16allocator_traitsIT_E7pointerEEERS5_m, symObjAddr: 0x814C4, symBinAddr: 0x7FFC4, symSize: 0x34 }
  - { offset: 0x5374D9, size: 0x8, addend: 0x0, symName: __ZNSt3__112construct_atB8nn180100IN6twitch14CodecDiscovery6ResultEJRKS3_EPS3_EEPT_S8_DpOT0_, symObjAddr: 0x814F8, symBinAddr: 0x7FFF8, symSize: 0x78 }
  - { offset: 0x53A561, size: 0x8, addend: 0x0, symName: __ZN6twitch14CodecDiscoveryD1Ev, symObjAddr: 0x7BA0C, symBinAddr: 0x7A6B4, symSize: 0x4 }
  - { offset: 0x53A585, size: 0x8, addend: 0x0, symName: __ZN6twitch14CodecDiscoveryD1Ev, symObjAddr: 0x7BA0C, symBinAddr: 0x7A6B4, symSize: 0x4 }
  - { offset: 0x53A590, size: 0x8, addend: 0x0, symName: __ZN6twitch14CodecDiscoveryD2Ev, symObjAddr: 0x7BDF8, symBinAddr: 0x7AAA0, symSize: 0x78 }
  - { offset: 0x53A799, size: 0x8, addend: 0x0, symName: __ZN6twitch14CodecDiscoveryD0Ev, symObjAddr: 0x7BA10, symBinAddr: 0x7A6B8, symSize: 0x14 }
  - { offset: 0x53AB7C, size: 0x8, addend: 0x0, symName: __ZN6twitch14CodecDiscovery9validatorERKNSt3__110shared_ptrINS_13RenderContextEEERKNS_20BroadcastVideoConfigE, symObjAddr: 0x7BA24, symBinAddr: 0x7A6CC, symSize: 0x2A0 }
  - { offset: 0x53BC86, size: 0x8, addend: 0x0, symName: __ZN6twitch14CodecDiscovery29getDeviceConfigPropertyHolderEv, symObjAddr: 0x7BCC4, symBinAddr: 0x7A96C, symSize: 0xA8 }
  - { offset: 0x53BF39, size: 0x8, addend: 0x0, symName: __ZN6twitch24SessionlessAnalyticsImplD1Ev, symObjAddr: 0x7BD6C, symBinAddr: 0x7AA14, symSize: 0x4 }
  - { offset: 0x53BF64, size: 0x8, addend: 0x0, symName: __ZN6twitch24SessionlessAnalyticsImplD0Ev, symObjAddr: 0x7BD70, symBinAddr: 0x7AA18, symSize: 0x4 }
  - { offset: 0x53BF8F, size: 0x8, addend: 0x0, symName: __ZN6twitch24SessionlessAnalyticsImpl20sendSessionAnalyticsERKNS_15AnalyticsSampleE, symObjAddr: 0x7BD74, symBinAddr: 0x7AA1C, symSize: 0x8 }
  - { offset: 0x53BFD6, size: 0x8, addend: 0x0, symName: __ZNSt3__120__shared_ptr_emplaceIN6twitch24SessionlessAnalyticsImplENS_9allocatorIS2_EEED1Ev, symObjAddr: 0x7BD7C, symBinAddr: 0x7AA24, symSize: 0x10 }
  - { offset: 0x53BFFA, size: 0x8, addend: 0x0, symName: __ZNSt3__120__shared_ptr_emplaceIN6twitch24SessionlessAnalyticsImplENS_9allocatorIS2_EEED1Ev, symObjAddr: 0x7BD7C, symBinAddr: 0x7AA24, symSize: 0x10 }
  - { offset: 0x53C031, size: 0x8, addend: 0x0, symName: __ZNSt3__120__shared_ptr_emplaceIN6twitch24SessionlessAnalyticsImplENS_9allocatorIS2_EEED0Ev, symObjAddr: 0x7BD8C, symBinAddr: 0x7AA34, symSize: 0x20 }
  - { offset: 0x53C100, size: 0x8, addend: 0x0, symName: __ZNSt3__120__shared_ptr_emplaceIN6twitch24SessionlessAnalyticsImplENS_9allocatorIS2_EEE16__on_zero_sharedEv, symObjAddr: 0x7BDAC, symBinAddr: 0x7AA54, symSize: 0xC }
  - { offset: 0x53C12A, size: 0x8, addend: 0x0, symName: __ZNSt3__120__shared_ptr_emplaceIN6twitch24SessionlessAnalyticsImplENS_9allocatorIS2_EEE16__on_zero_sharedEv, symObjAddr: 0x7BDAC, symBinAddr: 0x7AA54, symSize: 0xC }
  - { offset: 0x53C14A, size: 0x8, addend: 0x0, symName: __ZNSt3__120__shared_ptr_emplaceIN6twitch24SessionlessAnalyticsImplENS_9allocatorIS2_EEE16__on_zero_sharedEv, symObjAddr: 0x7BDAC, symBinAddr: 0x7AA54, symSize: 0xC }
  - { offset: 0x53C16A, size: 0x8, addend: 0x0, symName: __ZNSt3__120__shared_ptr_emplaceIN6twitch24SessionlessAnalyticsImplENS_9allocatorIS2_EEE16__on_zero_sharedEv, symObjAddr: 0x7BDAC, symBinAddr: 0x7AA54, symSize: 0xC }
  - { offset: 0x53C1F3, size: 0x8, addend: 0x0, symName: __ZNSt3__120__shared_ptr_emplaceIN6twitch24SessionlessAnalyticsImplENS_9allocatorIS2_EEE21__on_zero_shared_weakEv, symObjAddr: 0x7BDB8, symBinAddr: 0x7AA60, symSize: 0x4 }
  - { offset: 0x53C228, size: 0x8, addend: 0x0, symName: __ZNSt3__120__shared_ptr_emplaceIN6twitch24SessionlessAnalyticsImplENS_9allocatorIS2_EEE21__on_zero_shared_weakEv, symObjAddr: 0x7BDB8, symBinAddr: 0x7AA60, symSize: 0x4 }
  - { offset: 0x53C24D, size: 0x8, addend: 0x0, symName: __ZNSt3__120__shared_ptr_emplaceIN6twitch24SessionlessAnalyticsImplENS_9allocatorIS2_EEE21__on_zero_shared_weakEv, symObjAddr: 0x7BDB8, symBinAddr: 0x7AA60, symSize: 0x4 }
  - { offset: 0x53C272, size: 0x8, addend: 0x0, symName: __ZNSt3__120__shared_ptr_emplaceIN6twitch24SessionlessAnalyticsImplENS_9allocatorIS2_EEE21__on_zero_shared_weakEv, symObjAddr: 0x7BDB8, symBinAddr: 0x7AA60, symSize: 0x4 }
  - { offset: 0x53C2A1, size: 0x8, addend: 0x0, symName: __ZNSt3__120__shared_ptr_emplaceIN6twitch24SessionlessAnalyticsImplENS_9allocatorIS2_EEE21__on_zero_shared_weakEv, symObjAddr: 0x7BDB8, symBinAddr: 0x7AA60, symSize: 0x4 }
  - { offset: 0x53C2CA, size: 0x8, addend: 0x0, symName: __ZNSt3__120__shared_ptr_emplaceIN6twitch24SessionlessAnalyticsImplENS_9allocatorIS2_EEE21__on_zero_shared_weakEv, symObjAddr: 0x7BDB8, symBinAddr: 0x7AA60, symSize: 0x4 }
  - { offset: 0x53C313, size: 0x8, addend: 0x0, symName: __ZNSt3__120__shared_ptr_emplaceIN6twitch25VideoEncoderValidatorImplENS_9allocatorIS2_EEED1Ev, symObjAddr: 0x7BDBC, symBinAddr: 0x7AA64, symSize: 0x10 }
  - { offset: 0x53C337, size: 0x8, addend: 0x0, symName: __ZNSt3__120__shared_ptr_emplaceIN6twitch25VideoEncoderValidatorImplENS_9allocatorIS2_EEED1Ev, symObjAddr: 0x7BDBC, symBinAddr: 0x7AA64, symSize: 0x10 }
  - { offset: 0x53C36E, size: 0x8, addend: 0x0, symName: __ZNSt3__120__shared_ptr_emplaceIN6twitch25VideoEncoderValidatorImplENS_9allocatorIS2_EEED0Ev, symObjAddr: 0x7BDCC, symBinAddr: 0x7AA74, symSize: 0x20 }
  - { offset: 0x53C453, size: 0x8, addend: 0x0, symName: __ZNSt3__120__shared_ptr_emplaceIN6twitch25VideoEncoderValidatorImplENS_9allocatorIS2_EEE16__on_zero_sharedEv, symObjAddr: 0x7BDEC, symBinAddr: 0x7AA94, symSize: 0x8 }
  - { offset: 0x53C47D, size: 0x8, addend: 0x0, symName: __ZNSt3__120__shared_ptr_emplaceIN6twitch25VideoEncoderValidatorImplENS_9allocatorIS2_EEE16__on_zero_sharedEv, symObjAddr: 0x7BDEC, symBinAddr: 0x7AA94, symSize: 0x8 }
  - { offset: 0x53C49D, size: 0x8, addend: 0x0, symName: __ZNSt3__120__shared_ptr_emplaceIN6twitch25VideoEncoderValidatorImplENS_9allocatorIS2_EEE16__on_zero_sharedEv, symObjAddr: 0x7BDEC, symBinAddr: 0x7AA94, symSize: 0x8 }
  - { offset: 0x53C583, size: 0x8, addend: 0x0, symName: __ZNSt3__120__shared_ptr_emplaceIN6twitch25VideoEncoderValidatorImplENS_9allocatorIS2_EEE21__on_zero_shared_weakEv, symObjAddr: 0x7BDF4, symBinAddr: 0x7AA9C, symSize: 0x4 }
  - { offset: 0x53C5B8, size: 0x8, addend: 0x0, symName: __ZNSt3__120__shared_ptr_emplaceIN6twitch25VideoEncoderValidatorImplENS_9allocatorIS2_EEE21__on_zero_shared_weakEv, symObjAddr: 0x7BDF4, symBinAddr: 0x7AA9C, symSize: 0x4 }
  - { offset: 0x53C5DD, size: 0x8, addend: 0x0, symName: __ZNSt3__120__shared_ptr_emplaceIN6twitch25VideoEncoderValidatorImplENS_9allocatorIS2_EEE21__on_zero_shared_weakEv, symObjAddr: 0x7BDF4, symBinAddr: 0x7AA9C, symSize: 0x4 }
  - { offset: 0x53C602, size: 0x8, addend: 0x0, symName: __ZNSt3__120__shared_ptr_emplaceIN6twitch25VideoEncoderValidatorImplENS_9allocatorIS2_EEE21__on_zero_shared_weakEv, symObjAddr: 0x7BDF4, symBinAddr: 0x7AA9C, symSize: 0x4 }
  - { offset: 0x53C633, size: 0x8, addend: 0x0, symName: __ZNSt3__120__shared_ptr_emplaceIN6twitch25VideoEncoderValidatorImplENS_9allocatorIS2_EEE21__on_zero_shared_weakEv, symObjAddr: 0x7BDF4, symBinAddr: 0x7AA9C, symSize: 0x4 }
  - { offset: 0x53C65E, size: 0x8, addend: 0x0, symName: __ZNSt3__120__shared_ptr_emplaceIN6twitch25VideoEncoderValidatorImplENS_9allocatorIS2_EEE21__on_zero_shared_weakEv, symObjAddr: 0x7BDF4, symBinAddr: 0x7AA9C, symSize: 0x4 }
  - { offset: 0x53C891, size: 0x8, addend: 0x0, symName: '__ZNSt3__110__function6__funcIZN6twitch14CodecDiscoveryC1ERKNS_10shared_ptrINS2_9broadcast23BroadcastNativePlatformEEEE3$_0NS_9allocatorISA_EEFNS4_INS2_27GlobalAnalyticsSinkProviderEEEvEED1Ev', symObjAddr: 0x7BEB4, symBinAddr: 0x7AB5C, symSize: 0x30 }
  - { offset: 0x53C9EC, size: 0x8, addend: 0x0, symName: '__ZNSt3__110__function6__funcIZN6twitch14CodecDiscoveryC1ERKNS_10shared_ptrINS2_9broadcast23BroadcastNativePlatformEEEE3$_0NS_9allocatorISA_EEFNS4_INS2_27GlobalAnalyticsSinkProviderEEEvEED0Ev', symObjAddr: 0x7BEE4, symBinAddr: 0x7AB8C, symSize: 0x30 }
  - { offset: 0x53CD7E, size: 0x8, addend: 0x0, symName: '__ZNKSt3__110__function6__funcIZN6twitch14CodecDiscoveryC1ERKNS_10shared_ptrINS2_9broadcast23BroadcastNativePlatformEEEE3$_0NS_9allocatorISA_EEFNS4_INS2_27GlobalAnalyticsSinkProviderEEEvEE7__cloneEv', symObjAddr: 0x7BF14, symBinAddr: 0x7ABBC, symSize: 0x48 }
  - { offset: 0x53D131, size: 0x8, addend: 0x0, symName: '__ZNKSt3__110__function6__funcIZN6twitch14CodecDiscoveryC1ERKNS_10shared_ptrINS2_9broadcast23BroadcastNativePlatformEEEE3$_0NS_9allocatorISA_EEFNS4_INS2_27GlobalAnalyticsSinkProviderEEEvEE7__cloneEPNS0_6__baseISF_EE', symObjAddr: 0x7BF5C, symBinAddr: 0x7AC04, symSize: 0x28 }
  - { offset: 0x53D16A, size: 0x8, addend: 0x0, symName: '__ZNKSt3__110__function6__funcIZN6twitch14CodecDiscoveryC1ERKNS_10shared_ptrINS2_9broadcast23BroadcastNativePlatformEEEE3$_0NS_9allocatorISA_EEFNS4_INS2_27GlobalAnalyticsSinkProviderEEEvEE7__cloneEPNS0_6__baseISF_EE', symObjAddr: 0x7BF5C, symBinAddr: 0x7AC04, symSize: 0x28 }
  - { offset: 0x53D19C, size: 0x8, addend: 0x0, symName: '__ZNKSt3__110__function6__funcIZN6twitch14CodecDiscoveryC1ERKNS_10shared_ptrINS2_9broadcast23BroadcastNativePlatformEEEE3$_0NS_9allocatorISA_EEFNS4_INS2_27GlobalAnalyticsSinkProviderEEEvEE7__cloneEPNS0_6__baseISF_EE', symObjAddr: 0x7BF5C, symBinAddr: 0x7AC04, symSize: 0x28 }
  - { offset: 0x53D31C, size: 0x8, addend: 0x0, symName: '__ZNSt3__110__function6__funcIZN6twitch14CodecDiscoveryC1ERKNS_10shared_ptrINS2_9broadcast23BroadcastNativePlatformEEEE3$_0NS_9allocatorISA_EEFNS4_INS2_27GlobalAnalyticsSinkProviderEEEvEE7destroyEv', symObjAddr: 0x7BF84, symBinAddr: 0x7AC2C, symSize: 0x8 }
  - { offset: 0x53D454, size: 0x8, addend: 0x0, symName: '__ZNSt3__110__function6__funcIZN6twitch14CodecDiscoveryC1ERKNS_10shared_ptrINS2_9broadcast23BroadcastNativePlatformEEEE3$_0NS_9allocatorISA_EEFNS4_INS2_27GlobalAnalyticsSinkProviderEEEvEE18destroy_deallocateEv', symObjAddr: 0x7BF8C, symBinAddr: 0x7AC34, symSize: 0x28 }
  - { offset: 0x53D67B, size: 0x8, addend: 0x0, symName: '__ZNSt3__110__function6__funcIZN6twitch14CodecDiscoveryC1ERKNS_10shared_ptrINS2_9broadcast23BroadcastNativePlatformEEEE3$_0NS_9allocatorISA_EEFNS4_INS2_27GlobalAnalyticsSinkProviderEEEvEEclEv', symObjAddr: 0x7BFB4, symBinAddr: 0x7AC5C, symSize: 0x1C }
  - { offset: 0x53D6A7, size: 0x8, addend: 0x0, symName: '__ZNSt3__110__function6__funcIZN6twitch14CodecDiscoveryC1ERKNS_10shared_ptrINS2_9broadcast23BroadcastNativePlatformEEEE3$_0NS_9allocatorISA_EEFNS4_INS2_27GlobalAnalyticsSinkProviderEEEvEEclEv', symObjAddr: 0x7BFB4, symBinAddr: 0x7AC5C, symSize: 0x1C }
  - { offset: 0x53D6C7, size: 0x8, addend: 0x0, symName: '__ZNSt3__110__function6__funcIZN6twitch14CodecDiscoveryC1ERKNS_10shared_ptrINS2_9broadcast23BroadcastNativePlatformEEEE3$_0NS_9allocatorISA_EEFNS4_INS2_27GlobalAnalyticsSinkProviderEEEvEEclEv', symObjAddr: 0x7BFB4, symBinAddr: 0x7AC5C, symSize: 0x1C }
  - { offset: 0x53D6E6, size: 0x8, addend: 0x0, symName: '__ZNSt3__110__function6__funcIZN6twitch14CodecDiscoveryC1ERKNS_10shared_ptrINS2_9broadcast23BroadcastNativePlatformEEEE3$_0NS_9allocatorISA_EEFNS4_INS2_27GlobalAnalyticsSinkProviderEEEvEEclEv', symObjAddr: 0x7BFB4, symBinAddr: 0x7AC5C, symSize: 0x1C }
  - { offset: 0x53D706, size: 0x8, addend: 0x0, symName: '__ZNSt3__110__function6__funcIZN6twitch14CodecDiscoveryC1ERKNS_10shared_ptrINS2_9broadcast23BroadcastNativePlatformEEEE3$_0NS_9allocatorISA_EEFNS4_INS2_27GlobalAnalyticsSinkProviderEEEvEEclEv', symObjAddr: 0x7BFB4, symBinAddr: 0x7AC5C, symSize: 0x1C }
  - { offset: 0x53D726, size: 0x8, addend: 0x0, symName: '__ZNSt3__110__function6__funcIZN6twitch14CodecDiscoveryC1ERKNS_10shared_ptrINS2_9broadcast23BroadcastNativePlatformEEEE3$_0NS_9allocatorISA_EEFNS4_INS2_27GlobalAnalyticsSinkProviderEEEvEEclEv', symObjAddr: 0x7BFB4, symBinAddr: 0x7AC5C, symSize: 0x1C }
  - { offset: 0x53D82A, size: 0x8, addend: 0x0, symName: '__ZNSt3__110__function6__funcIZN6twitch14CodecDiscovery8discoverERKNS_12basic_stringIcNS_11char_traitsIcEENS_9allocatorIcEEEERKNS2_20BroadcastVideoConfigESB_RKNS_8functionIFvRKNS_6vectorINS3_6ResultENS7_ISH_EEEEEEEE3$_0NS7_ISQ_EEFvvEED1Ev', symObjAddr: 0x7C034, symBinAddr: 0x7AC78, symSize: 0x8C }
  - { offset: 0x53DE42, size: 0x8, addend: 0x0, symName: '__ZNSt3__110__function6__funcIZN6twitch14CodecDiscovery8discoverERKNS_12basic_stringIcNS_11char_traitsIcEENS_9allocatorIcEEEERKNS2_20BroadcastVideoConfigESB_RKNS_8functionIFvRKNS_6vectorINS3_6ResultENS7_ISH_EEEEEEEE3$_0NS7_ISQ_EEFvvEED0Ev', symObjAddr: 0x7C0C0, symBinAddr: 0x7AD04, symSize: 0x8C }
  - { offset: 0x53E5DA, size: 0x8, addend: 0x0, symName: '__ZNKSt3__110__function6__funcIZN6twitch14CodecDiscovery8discoverERKNS_12basic_stringIcNS_11char_traitsIcEENS_9allocatorIcEEEERKNS2_20BroadcastVideoConfigESB_RKNS_8functionIFvRKNS_6vectorINS3_6ResultENS7_ISH_EEEEEEEE3$_0NS7_ISQ_EEFvvEE7__cloneEv', symObjAddr: 0x7C14C, symBinAddr: 0x7AD90, symSize: 0x40 }
  - { offset: 0x53E785, size: 0x8, addend: 0x0, symName: '__ZNSt3__122__compressed_pair_elemIZN6twitch14CodecDiscovery8discoverERKNS_12basic_stringIcNS_11char_traitsIcEENS_9allocatorIcEEEERKNS1_20BroadcastVideoConfigESA_RKNS_8functionIFvRKNS_6vectorINS2_6ResultENS6_ISG_EEEEEEEE3$_0Li0ELb0EEC2B8nn180100IJRKSP_EJLm0EEEENS_21piecewise_construct_tENS_5tupleIJDpT_EEENS_15__tuple_indicesIJXspT0_EEEE', symObjAddr: 0x815F4, symBinAddr: 0x800F4, symSize: 0xD8 }
  - { offset: 0x53EC2E, size: 0x8, addend: 0x0, symName: '__ZNKSt3__110__function6__funcIZN6twitch14CodecDiscovery8discoverERKNS_12basic_stringIcNS_11char_traitsIcEENS_9allocatorIcEEEERKNS2_20BroadcastVideoConfigESB_RKNS_8functionIFvRKNS_6vectorINS3_6ResultENS7_ISH_EEEEEEEE3$_0NS7_ISQ_EEFvvEE7__cloneEPNS0_6__baseISS_EE', symObjAddr: 0x7C18C, symBinAddr: 0x7ADD0, symSize: 0x1C }
  - { offset: 0x53ED91, size: 0x8, addend: 0x0, symName: '__ZNSt3__110__function6__funcIZN6twitch14CodecDiscovery8discoverERKNS_12basic_stringIcNS_11char_traitsIcEENS_9allocatorIcEEEERKNS2_20BroadcastVideoConfigESB_RKNS_8functionIFvRKNS_6vectorINS3_6ResultENS7_ISH_EEEEEEEE3$_0NS7_ISQ_EEFvvEE7destroyEv', symObjAddr: 0x7C1A8, symBinAddr: 0x7ADEC, symSize: 0x8 }
  - { offset: 0x53EDC8, size: 0x8, addend: 0x0, symName: '__ZNSt3__110__function12__alloc_funcIZN6twitch14CodecDiscovery8discoverERKNS_12basic_stringIcNS_11char_traitsIcEENS_9allocatorIcEEEERKNS2_20BroadcastVideoConfigESB_RKNS_8functionIFvRKNS_6vectorINS3_6ResultENS7_ISH_EEEEEEEE3$_0NS7_ISQ_EEFvvEE7destroyB8nn180100Ev', symObjAddr: 0x81570, symBinAddr: 0x80070, symSize: 0x84 }
  - { offset: 0x53F336, size: 0x8, addend: 0x0, symName: '__ZNSt3__110__function6__funcIZN6twitch14CodecDiscovery8discoverERKNS_12basic_stringIcNS_11char_traitsIcEENS_9allocatorIcEEEERKNS2_20BroadcastVideoConfigESB_RKNS_8functionIFvRKNS_6vectorINS3_6ResultENS7_ISH_EEEEEEEE3$_0NS7_ISQ_EEFvvEE18destroy_deallocateEv', symObjAddr: 0x7C1B0, symBinAddr: 0x7ADF4, symSize: 0x28 }
  - { offset: 0x53FC97, size: 0x8, addend: 0x0, symName: '__ZNSt3__110__function6__funcIZN6twitch14CodecDiscovery8discoverERKNS_12basic_stringIcNS_11char_traitsIcEENS_9allocatorIcEEEERKNS2_20BroadcastVideoConfigESB_RKNS_8functionIFvRKNS_6vectorINS3_6ResultENS7_ISH_EEEEEEEE3$_0NS7_ISQ_EEFvvEEclEv', symObjAddr: 0x7C1D8, symBinAddr: 0x7AE1C, symSize: 0x6B4 }
  - { offset: 0x543039, size: 0x8, addend: 0x0, symName: __ZN6twitch14CodecDiscovery8testHEVCERKNSt3__112basic_stringIcNS1_11char_traitsIcEENS1_9allocatorIcEEEERKNS_20BroadcastVideoConfigES9_RKNS1_10shared_ptrINS_13RenderContextEEERKNSD_INS_26DeviceConfigPropertyHolderEEERNS1_6vectorINS0_6ResultENS5_ISN_EEEE, symObjAddr: 0x7CB08, symBinAddr: 0x7B74C, symSize: 0x3050 }
  - { offset: 0x55DC3B, size: 0x8, addend: 0x0, symName: __ZNSt3__112__destroy_atB8nn180100IN6twitch14CodecDiscovery6ResultELi0EEEvPT_, symObjAddr: 0x7FB58, symBinAddr: 0x7E79C, symSize: 0x94 }
  - { offset: 0x55DC48, size: 0x8, addend: 0x0, symName: __ZNSt3__16vectorIN6twitch14CodecDiscovery6ResultENS_9allocatorIS3_EEE9push_backB8nn180100ERKS3_, symObjAddr: 0x7C88C, symBinAddr: 0x7B4D0, symSize: 0x27C }
  - { offset: 0x55E6A7, size: 0x8, addend: 0x0, symName: __ZN6twitch14CodecDiscovery8testHEVCERKNSt3__112basic_stringIcNS1_11char_traitsIcEENS1_9allocatorIcEEEERKNS_20BroadcastVideoConfigES9_RKNS1_10shared_ptrINS_13RenderContextEEERKNSD_INS_26DeviceConfigPropertyHolderEEERNS1_6vectorINS0_6ResultENS5_ISN_EEEE, symObjAddr: 0x7CB08, symBinAddr: 0x7B74C, symSize: 0x3050 }
  - { offset: 0x562D1E, size: 0x8, addend: 0x0, symName: __ZN6twitch14CodecDiscovery18shouldSkipForTestsEv, symObjAddr: 0x8068C, symBinAddr: 0x7F2D0, symSize: 0xD4 }
  - { offset: 0x562FBD, size: 0x8, addend: 0x0, symName: '__ZZN6twitch14CodecDiscovery12computeRulesERKNSt3__16vectorINS_4JsonENS1_9allocatorIS3_EEEERKNS1_12basic_stringIcNS1_11char_traitsIcEENS4_IcEEEESF_ENK3$_0clESF_', symObjAddr: 0x81000, symBinAddr: 0x7FB00, symSize: 0x39C }
  - { offset: 0x5649E6, size: 0x8, addend: 0x0, symName: __ZNSt3__16vectorIdNS_9allocatorIdEEEC2ERKS3_, symObjAddr: 0x8139C, symBinAddr: 0x7FE9C, symSize: 0x64 }
  - { offset: 0x5649F1, size: 0x8, addend: 0x0, symName: __ZNSt3__14pairIN6twitch5ErrorENS1_14CodecDiscovery5RulesEEC2B8nn180100ILb1ELi0EEERKS2_RKS4_, symObjAddr: 0x80F8C, symBinAddr: 0x7FA8C, symSize: 0x74 }
  - { offset: 0x564ECF, size: 0x8, addend: 0x0, symName: __ZNSt3__123__optional_storage_baseINS_6vectorINS_12basic_stringIcNS_11char_traitsIcEENS_9allocatorIcEEEENS5_IS7_EEEELb0EE16__construct_fromB8nn180100IRKNS_20__optional_copy_baseIS9_Lb0EEEEEvOT_, symObjAddr: 0x81400, symBinAddr: 0x7FF00, symSize: 0xC4 }
  - { offset: 0x56525F, size: 0x8, addend: 0x0, symName: __ZNSt3__119__allocate_at_leastB8nn180100INS_9allocatorIiEEEENS_19__allocation_resultINS_16allocator_traitsIT_E7pointerEEERS5_m, symObjAddr: 0x814C4, symBinAddr: 0x7FFC4, symSize: 0x34 }
  - { offset: 0x565277, size: 0x8, addend: 0x0, symName: __ZNSt3__114__split_bufferINS_4pairINS_13shared_futureIN6twitch5ErrorEEENS_12basic_stringIcNS_11char_traitsIcEENS_9allocatorIcEEEEEERNS9_ISC_EEED2Ev, symObjAddr: 0x7FC20, symBinAddr: 0x7E864, symSize: 0x4C }
  - { offset: 0x5653DD, size: 0x8, addend: 0x0, symName: __ZNSt3__117__assoc_sub_state15__attach_futureB8nn180100Ev, symObjAddr: 0x7FD5C, symBinAddr: 0x7E9A0, symSize: 0x4C }
  - { offset: 0x5654E9, size: 0x8, addend: 0x0, symName: '__ZNSt3__122__deferred_assoc_stateIN6twitch5ErrorENS_12__async_funcIZNS1_14CodecDiscovery28deviceConfigAllowsCustomerIDERKNS_12basic_stringIcNS_11char_traitsIcEENS_9allocatorIcEEEESC_SC_RKNS_10shared_ptrINS1_26DeviceConfigPropertyHolderEEEE3$_0JEEEED1Ev', symObjAddr: 0x7FDA8, symBinAddr: 0x7E9EC, symSize: 0x90 }
  - { offset: 0x5654FA, size: 0x8, addend: 0x0, symName: __ZNSt3__14pairIN6twitch10VideoCodecENS1_20BroadcastVideoConfigEEC2B8nn180100ERKS4_, symObjAddr: 0x7FCC4, symBinAddr: 0x7E908, symSize: 0x98 }
  - { offset: 0x565725, size: 0x8, addend: 0x0, symName: __ZN6twitch5ErrorC1EOS0_, symObjAddr: 0x80ED0, symBinAddr: 0x7F9D0, symSize: 0xBC }
  - { offset: 0x565B8B, size: 0x8, addend: 0x0, symName: '__ZNSt3__122__deferred_assoc_stateIN6twitch5ErrorENS_12__async_funcIZNS1_14CodecDiscovery28deviceConfigAllowsCustomerIDERKNS_12basic_stringIcNS_11char_traitsIcEENS_9allocatorIcEEEESC_SC_RKNS_10shared_ptrINS1_26DeviceConfigPropertyHolderEEEE3$_0JEEEED1Ev', symObjAddr: 0x7FDA8, symBinAddr: 0x7E9EC, symSize: 0x90 }
  - { offset: 0x56615E, size: 0x8, addend: 0x0, symName: '__ZNSt3__122__deferred_assoc_stateIN6twitch5ErrorENS_12__async_funcIZNS1_14CodecDiscovery28deviceConfigAllowsCustomerIDERKNS_12basic_stringIcNS_11char_traitsIcEENS_9allocatorIcEEEESC_SC_RKNS_10shared_ptrINS1_26DeviceConfigPropertyHolderEEEE3$_0JEEEED0Ev', symObjAddr: 0x7FE38, symBinAddr: 0x7EA7C, symSize: 0x94 }
  - { offset: 0x566736, size: 0x8, addend: 0x0, symName: __ZNSt3__113__assoc_stateIN6twitch5ErrorEE16__on_zero_sharedEv, symObjAddr: 0x7FECC, symBinAddr: 0x7EB10, symSize: 0x90 }
  - { offset: 0x566FF9, size: 0x8, addend: 0x0, symName: '__ZNSt3__122__deferred_assoc_stateIN6twitch5ErrorENS_12__async_funcIZNS1_14CodecDiscovery28deviceConfigAllowsCustomerIDERKNS_12basic_stringIcNS_11char_traitsIcEENS_9allocatorIcEEEESC_SC_RKNS_10shared_ptrINS1_26DeviceConfigPropertyHolderEEEE3$_0JEEEE9__executeEv', symObjAddr: 0x7FF5C, symBinAddr: 0x7EBA0, symSize: 0x614 }
  - { offset: 0x5695AA, size: 0x8, addend: 0x0, symName: __ZNSt3__16vectorIN6twitch4JsonENS_9allocatorIS2_EEE16__init_with_sizeB8nn180100IPS2_S7_EEvT_T0_m, symObjAddr: 0x80760, symBinAddr: 0x7F3A4, symSize: 0x84 }
  - { offset: 0x569A12, size: 0x8, addend: 0x0, symName: __ZNSt3__113__assoc_stateIN6twitch5ErrorEE9set_valueIS2_EEvOT_, symObjAddr: 0x80570, symBinAddr: 0x7F1B4, symSize: 0x11C }
  - { offset: 0x569E1A, size: 0x8, addend: 0x0, symName: __ZN6twitch14CodecDiscovery18shouldSkipForTestsEv, symObjAddr: 0x8068C, symBinAddr: 0x7F2D0, symSize: 0xD4 }
  - { offset: 0x56A1AF, size: 0x8, addend: 0x0, symName: '__ZNSt3__122__deferred_assoc_stateIN6twitch5ErrorENS_12__async_funcIZNS1_14CodecDiscovery19deviceConfigEnabledERKNS_12basic_stringIcNS_11char_traitsIcEENS_9allocatorIcEEEESC_RKNS_10shared_ptrINS1_26DeviceConfigPropertyHolderEEEE3$_0JEEEED1Ev', symObjAddr: 0x80888, symBinAddr: 0x7F428, symSize: 0x80 }
  - { offset: 0x56A63B, size: 0x8, addend: 0x0, symName: '__ZNSt3__122__deferred_assoc_stateIN6twitch5ErrorENS_12__async_funcIZNS1_14CodecDiscovery19deviceConfigEnabledERKNS_12basic_stringIcNS_11char_traitsIcEENS_9allocatorIcEEEESC_RKNS_10shared_ptrINS1_26DeviceConfigPropertyHolderEEEE3$_0JEEEED0Ev', symObjAddr: 0x80908, symBinAddr: 0x7F4A8, symSize: 0x84 }
  - { offset: 0x56AB52, size: 0x8, addend: 0x0, symName: '__ZNSt3__122__deferred_assoc_stateIN6twitch5ErrorENS_12__async_funcIZNS1_14CodecDiscovery19deviceConfigEnabledERKNS_12basic_stringIcNS_11char_traitsIcEENS_9allocatorIcEEEESC_RKNS_10shared_ptrINS1_26DeviceConfigPropertyHolderEEEE3$_0JEEEE9__executeEv', symObjAddr: 0x8098C, symBinAddr: 0x7F52C, symSize: 0x468 }
  - { offset: 0x56C380, size: 0x8, addend: 0x0, symName: __ZNSt3__16vectorIdNS_9allocatorIdEEE11__vallocateB8nn180100Em, symObjAddr: 0x80E94, symBinAddr: 0x7F994, symSize: 0x3C }
  - { offset: 0x56C3F5, size: 0x8, addend: 0x0, symName: __ZN6twitch5ErrorC1EOS0_, symObjAddr: 0x80ED0, symBinAddr: 0x7F9D0, symSize: 0xBC }
  - { offset: 0x56C400, size: 0x8, addend: 0x0, symName: __ZNSt3__16vectorIdNS_9allocatorIdEEEC2ERKS3_, symObjAddr: 0x8139C, symBinAddr: 0x7FE9C, symSize: 0x64 }
  - { offset: 0x9DD0F5, size: 0x8, addend: 0x0, symName: _asn1_item_combine_free, symObjAddr: 0xF0DFC, symBinAddr: 0xEB0A4, symSize: 0x2DC }
  - { offset: 0x9DDB97, size: 0x8, addend: 0x0, symName: _asn1_item_combine_free, symObjAddr: 0xF0DFC, symBinAddr: 0xEB0A4, symSize: 0x2DC }
  - { offset: 0x9DDF29, size: 0x8, addend: 0x0, symName: _ASN1_template_free, symObjAddr: 0xF10D8, symBinAddr: 0xEB380, symSize: 0xA4 }
  - { offset: 0x9DE070, size: 0x8, addend: 0x0, symName: _ASN1_primitive_free, symObjAddr: 0xF117C, symBinAddr: 0xEB424, symSize: 0x108 }
  - { offset: 0xA49A88, size: 0x8, addend: 0x0, symName: _AUTHORITY_KEYID_it, symObjAddr: 0x1E27E0, symBinAddr: 0x1E9798, symSize: 0x0 }
  - { offset: 0xA49B98, size: 0x8, addend: 0x0, symName: _AUTHORITY_KEYID_seq_tt, symObjAddr: 0x1E2768, symBinAddr: 0x1E9720, symSize: 0x0 }
  - { offset: 0xCCDF86, size: 0x8, addend: 0x0, symName: __ZN4bssl14SSLAEADContext16CreateNullCipherEb, symObjAddr: 0x173254, symBinAddr: 0x16AC18, symSize: 0x88 }
  - { offset: 0xCCEFCB, size: 0x8, addend: 0x0, symName: __ZN4bssl14SSLAEADContext16CreateNullCipherEb, symObjAddr: 0x173254, symBinAddr: 0x16AC18, symSize: 0x88 }
  - { offset: 0xCCF522, size: 0x8, addend: 0x0, symName: __ZN4bssl14SSLAEADContext6CreateE20evp_aead_direction_ttbPK13ssl_cipher_stNS_4SpanIKhEES7_S7_, symObjAddr: 0x1732DC, symBinAddr: 0x16ACA0, symSize: 0x348 }
  - { offset: 0xCCFB19, size: 0x8, addend: 0x0, symName: __ZNK4bssl14SSLAEADContext15ProtocolVersionEv, symObjAddr: 0x173624, symBinAddr: 0x16AFE8, symSize: 0x44 }
  - { offset: 0xCCFB4D, size: 0x8, addend: 0x0, symName: __ZNK4bssl14SSLAEADContext15ProtocolVersionEv, symObjAddr: 0x173624, symBinAddr: 0x16AFE8, symSize: 0x44 }
  - { offset: 0xCCFB68, size: 0x8, addend: 0x0, symName: __ZNK4bssl14SSLAEADContext13RecordVersionEv, symObjAddr: 0x173668, symBinAddr: 0x16B02C, symSize: 0x40 }
  - { offset: 0xCCFC43, size: 0x8, addend: 0x0, symName: __ZN4bssl14SSLAEADContext4OpenEPNS_4SpanIhEEhtPKhNS1_IS4_EES2_, symObjAddr: 0x1736A8, symBinAddr: 0x16B06C, symSize: 0x2DC }
  - { offset: 0xA1BE54, size: 0x8, addend: 0x0, symName: _generate_v3, symObjAddr: 0x105864, symBinAddr: 0xFFAAC, symSize: 0x8DC }
  - { offset: 0xA1D51F, size: 0x8, addend: 0x0, symName: _generate_v3, symObjAddr: 0x105864, symBinAddr: 0xFFAAC, symSize: 0x8DC }
  - { offset: 0xA1E173, size: 0x8, addend: 0x0, symName: _asn1_cb, symObjAddr: 0x106140, symBinAddr: 0x100388, symSize: 0x31C }
  - { offset: 0xA1E337, size: 0x8, addend: 0x0, symName: _parse_tagging, symObjAddr: 0x10650C, symBinAddr: 0x100754, symSize: 0x130 }
  - { offset: 0xA1E401, size: 0x8, addend: 0x0, symName: _append_exp, symObjAddr: 0x10663C, symBinAddr: 0x100884, symSize: 0xA8 }
  - { offset: 0xA1E4A2, size: 0x8, addend: 0x0, symName: _bitstr_cb, symObjAddr: 0x10645C, symBinAddr: 0x1006A4, symSize: 0xB0 }
  - { offset: 0x3E0B65, size: 0x8, addend: 0x0, symName: '-[IVSTransmissionStatistics initWithMeasuredBitrate:recommendedBitrate:rtt:broadcastQuality:networkHealth:]', symObjAddr: 0x5B334, symBinAddr: 0x5B680, symSize: 0x114 }
  - { offset: 0x3E0CAA, size: 0x8, addend: 0x0, symName: '-[IVSTransmissionStatistics initWithMeasuredBitrate:recommendedBitrate:rtt:broadcastQuality:networkHealth:]', symObjAddr: 0x5B334, symBinAddr: 0x5B680, symSize: 0x114 }
  - { offset: 0x3E0D31, size: 0x8, addend: 0x0, symName: '-[IVSTransmissionStatistics description]', symObjAddr: 0x5B448, symBinAddr: 0x5B794, symSize: 0xCC }
  - { offset: 0x3E0D68, size: 0x8, addend: 0x0, symName: '-[IVSTransmissionStatistics broadcastQualityName]', symObjAddr: 0x5B514, symBinAddr: 0x5B860, symSize: 0x2C }
  - { offset: 0x3E0D9F, size: 0x8, addend: 0x0, symName: '-[IVSTransmissionStatistics networkHealthName]', symObjAddr: 0x5B540, symBinAddr: 0x5B88C, symSize: 0x2C }
  - { offset: 0x3E0DD6, size: 0x8, addend: 0x0, symName: '-[IVSTransmissionStatistics measuredBitrate]', symObjAddr: 0x5B56C, symBinAddr: 0x5B8B8, symSize: 0x8 }
  - { offset: 0x3E0E0B, size: 0x8, addend: 0x0, symName: '-[IVSTransmissionStatistics recommendedBitrate]', symObjAddr: 0x5B574, symBinAddr: 0x5B8C0, symSize: 0x8 }
  - { offset: 0x3E0E40, size: 0x8, addend: 0x0, symName: '-[IVSTransmissionStatistics rtt]', symObjAddr: 0x5B57C, symBinAddr: 0x5B8C8, symSize: 0x8 }
  - { offset: 0x3E0E75, size: 0x8, addend: 0x0, symName: '-[IVSTransmissionStatistics broadcastQuality]', symObjAddr: 0x5B584, symBinAddr: 0x5B8D0, symSize: 0x8 }
  - { offset: 0x3E0EAC, size: 0x8, addend: 0x0, symName: '-[IVSTransmissionStatistics networkHealth]', symObjAddr: 0x5B58C, symBinAddr: 0x5B8D8, symSize: 0x8 }
  - { offset: 0x2DAB32, size: 0x8, addend: 0x0, symName: '-[IVSCameraFormat initWithCamera:frameRateRanges:resolution:]', symObjAddr: 0x38434, symBinAddr: 0x39610, symSize: 0xB8 }
  - { offset: 0x2DB449, size: 0x8, addend: 0x0, symName: '-[IVSCameraFormat initWithCamera:frameRateRanges:resolution:]', symObjAddr: 0x38434, symBinAddr: 0x39610, symSize: 0xB8 }
  - { offset: 0x2DB4B0, size: 0x8, addend: 0x0, symName: '-[IVSCameraFormat isEqual:]', symObjAddr: 0x384EC, symBinAddr: 0x396C8, symSize: 0x14C }
  - { offset: 0x2DB503, size: 0x8, addend: 0x0, symName: '-[IVSCameraFormat frameRateRangesAreEqual:otherRanges:]', symObjAddr: 0x38638, symBinAddr: 0x39814, symSize: 0x7C }
  - { offset: 0x2DB556, size: 0x8, addend: 0x0, symName: '-[IVSCameraFormat maxAvailableVideoZoomFactor]', symObjAddr: 0x386B4, symBinAddr: 0x39890, symSize: 0x8 }
  - { offset: 0x2DB58B, size: 0x8, addend: 0x0, symName: '-[IVSCameraFormat minAvailableVideoZoomFactor]', symObjAddr: 0x386BC, symBinAddr: 0x39898, symSize: 0x8 }
  - { offset: 0x2DB5C0, size: 0x8, addend: 0x0, symName: '-[IVSCameraFormat frameRateRanges]', symObjAddr: 0x386C4, symBinAddr: 0x398A0, symSize: 0x8 }
  - { offset: 0x2DB5F7, size: 0x8, addend: 0x0, symName: '-[IVSCameraFormat resolution]', symObjAddr: 0x386CC, symBinAddr: 0x398A8, symSize: 0x8 }
  - { offset: 0x2DB62C, size: 0x8, addend: 0x0, symName: '-[IVSCameraFormat .cxx_destruct]', symObjAddr: 0x386D4, symBinAddr: 0x398B0, symSize: 0xC }
  - { offset: 0xA18732, size: 0x8, addend: 0x0, symName: _ASN1_item_digest, symObjAddr: 0x10472C, symBinAddr: 0xFE974, symSize: 0x94 }
  - { offset: 0xA18740, size: 0x8, addend: 0x0, symName: _ASN1_item_digest, symObjAddr: 0x10472C, symBinAddr: 0xFE974, symSize: 0x94 }
  - { offset: 0xA12237, size: 0x8, addend: 0x0, symName: _get_next_ptr_and_hash, symObjAddr: 0x102934, symBinAddr: 0xFCBDC, symSize: 0xA4 }
  - { offset: 0xA1231F, size: 0x8, addend: 0x0, symName: _get_next_ptr_and_hash, symObjAddr: 0x102934, symBinAddr: 0xFCBDC, symSize: 0xA4 }
  - { offset: 0xA123B7, size: 0x8, addend: 0x0, symName: _lh_insert, symObjAddr: 0x1029D8, symBinAddr: 0xFCC80, symSize: 0xA4 }
  - { offset: 0xA124A9, size: 0x8, addend: 0x0, symName: _lh_maybe_resize, symObjAddr: 0x102A7C, symBinAddr: 0xFCD24, symSize: 0x118 }
  - { offset: 0xA1270D, size: 0x8, addend: 0x0, symName: _lh_delete, symObjAddr: 0x102B94, symBinAddr: 0xFCE3C, symSize: 0x88 }
  - { offset: 0xBE78ED, size: 0x8, addend: 0x0, symName: __ZN6twitch4rtmp17AMF0StringDecoderD1Ev, symObjAddr: 0x155A78, symBinAddr: 0x14E378, symSize: 0x3C }
  - { offset: 0xBE8A51, size: 0x8, addend: 0x0, symName: __ZN6twitch4rtmp17AMF0StringDecoderD1Ev, symObjAddr: 0x155A78, symBinAddr: 0x14E378, symSize: 0x3C }
  - { offset: 0xBE8BE6, size: 0x8, addend: 0x0, symName: __ZN6twitch4rtmp17AMF0StringDecoderD0Ev, symObjAddr: 0x155AB4, symBinAddr: 0x14E3B4, symSize: 0x3C }
  - { offset: 0xBE8D87, size: 0x8, addend: 0x0, symName: __ZN6twitch4rtmp7AMF0Nop6NumberEd, symObjAddr: 0x155AF0, symBinAddr: 0x14E3F0, symSize: 0x4 }
  - { offset: 0xBE8DB4, size: 0x8, addend: 0x0, symName: __ZN6twitch4rtmp7AMF0Nop7BooleanEb, symObjAddr: 0x155AF4, symBinAddr: 0x14E3F4, symSize: 0x4 }
  - { offset: 0xBE8E39, size: 0x8, addend: 0x0, symName: __ZN6twitch4rtmp17AMF0StringDecoder6StringENSt3__112basic_stringIcNS2_11char_traitsIcEENS2_9allocatorIcEEEE, symObjAddr: 0x155AF8, symBinAddr: 0x14E3F8, symSize: 0x24 }
  - { offset: 0xBE8E8F, size: 0x8, addend: 0x0, symName: __ZN6twitch4rtmp17AMF0StringDecoder6StringENSt3__112basic_stringIcNS2_11char_traitsIcEENS2_9allocatorIcEEEE, symObjAddr: 0x155AF8, symBinAddr: 0x14E3F8, symSize: 0x24 }
  - { offset: 0xBE8ED0, size: 0x8, addend: 0x0, symName: __ZN6twitch4rtmp7AMF0Nop6ObjectEv, symObjAddr: 0x155B1C, symBinAddr: 0x14E41C, symSize: 0x4 }
  - { offset: 0xBE8EF5, size: 0x8, addend: 0x0, symName: __ZN6twitch4rtmp7AMF0Nop14ObjectPropertyENSt3__112basic_stringIcNS2_11char_traitsIcEENS2_9allocatorIcEEEE, symObjAddr: 0x155B20, symBinAddr: 0x14E420, symSize: 0x4 }
  - { offset: 0xBE8F22, size: 0x8, addend: 0x0, symName: __ZN6twitch4rtmp7AMF0Nop9MovieclipEv, symObjAddr: 0x155B24, symBinAddr: 0x14E424, symSize: 0x4 }
  - { offset: 0xBE8F47, size: 0x8, addend: 0x0, symName: __ZN6twitch4rtmp7AMF0Nop4NullEv, symObjAddr: 0x155B28, symBinAddr: 0x14E428, symSize: 0x4 }
  - { offset: 0xBE8F6C, size: 0x8, addend: 0x0, symName: __ZN6twitch4rtmp7AMF0Nop9UndefinedEv, symObjAddr: 0x155B2C, symBinAddr: 0x14E42C, symSize: 0x4 }
  - { offset: 0xBE8F91, size: 0x8, addend: 0x0, symName: __ZN6twitch4rtmp7AMF0Nop9ReferenceEv, symObjAddr: 0x155B30, symBinAddr: 0x14E430, symSize: 0x4 }
  - { offset: 0xBE8FB6, size: 0x8, addend: 0x0, symName: __ZN6twitch4rtmp7AMF0Nop9EcmaArrayEj, symObjAddr: 0x155B34, symBinAddr: 0x14E434, symSize: 0x4 }
  - { offset: 0xBE8FE3, size: 0x8, addend: 0x0, symName: __ZN6twitch4rtmp7AMF0Nop12EcmaArrayKeyENSt3__112basic_stringIcNS2_11char_traitsIcEENS2_9allocatorIcEEEE, symObjAddr: 0x155B38, symBinAddr: 0x14E438, symSize: 0x4 }
  - { offset: 0xBE9010, size: 0x8, addend: 0x0, symName: __ZN6twitch4rtmp7AMF0Nop9ObjectEndEv, symObjAddr: 0x155B3C, symBinAddr: 0x14E43C, symSize: 0x4 }
  - { offset: 0xBE9035, size: 0x8, addend: 0x0, symName: __ZN6twitch4rtmp7AMF0Nop11StrictArrayEj, symObjAddr: 0x155B40, symBinAddr: 0x14E440, symSize: 0x4 }
  - { offset: 0xBE9062, size: 0x8, addend: 0x0, symName: __ZN6twitch4rtmp7AMF0Nop4DateEd, symObjAddr: 0x155B44, symBinAddr: 0x14E444, symSize: 0x4 }
  - { offset: 0xBE908F, size: 0x8, addend: 0x0, symName: __ZN6twitch4rtmp7AMF0Nop10LongStringEv, symObjAddr: 0x155B48, symBinAddr: 0x14E448, symSize: 0x4 }
  - { offset: 0xBE90B4, size: 0x8, addend: 0x0, symName: __ZN6twitch4rtmp7AMF0Nop11UnsupportedEv, symObjAddr: 0x155B4C, symBinAddr: 0x14E44C, symSize: 0x4 }
  - { offset: 0xBE90D9, size: 0x8, addend: 0x0, symName: __ZN6twitch4rtmp7AMF0Nop9RecordsetEv, symObjAddr: 0x155B50, symBinAddr: 0x14E450, symSize: 0x4 }
  - { offset: 0xBE90FE, size: 0x8, addend: 0x0, symName: __ZN6twitch4rtmp7AMF0Nop11XmlDocumentEv, symObjAddr: 0x155B54, symBinAddr: 0x14E454, symSize: 0x4 }
  - { offset: 0xBE9123, size: 0x8, addend: 0x0, symName: __ZN6twitch4rtmp7AMF0Nop11TypedObjectEv, symObjAddr: 0x155B58, symBinAddr: 0x14E458, symSize: 0x4 }
  - { offset: 0xBE9164, size: 0x8, addend: 0x0, symName: __ZN6twitch4rtmp19AMF0PropertyDecoderD1Ev, symObjAddr: 0x155B5C, symBinAddr: 0x14E45C, symSize: 0x4C }
  - { offset: 0xBE9431, size: 0x8, addend: 0x0, symName: __ZN6twitch4rtmp19AMF0PropertyDecoderD0Ev, symObjAddr: 0x155BA8, symBinAddr: 0x14E4A8, symSize: 0x4C }
  - { offset: 0xBE970A, size: 0x8, addend: 0x0, symName: __ZN6twitch4rtmp19AMF0PropertyDecoder6StringENSt3__112basic_stringIcNS2_11char_traitsIcEENS2_9allocatorIcEEEE, symObjAddr: 0x155BF4, symBinAddr: 0x14E4F4, symSize: 0x30 }
  - { offset: 0xBE979B, size: 0x8, addend: 0x0, symName: __ZN6twitch4rtmp19AMF0PropertyDecoder14ObjectPropertyENSt3__112basic_stringIcNS2_11char_traitsIcEENS2_9allocatorIcEEEE, symObjAddr: 0x155C24, symBinAddr: 0x14E524, symSize: 0x58 }
  - { offset: 0xBE991B, size: 0x8, addend: 0x0, symName: __ZN6twitch4rtmp17AMF0NumberDecoderD1Ev, symObjAddr: 0x155C7C, symBinAddr: 0x14E57C, symSize: 0x4 }
  - { offset: 0xBE9946, size: 0x8, addend: 0x0, symName: __ZN6twitch4rtmp17AMF0NumberDecoderD0Ev, symObjAddr: 0x155C80, symBinAddr: 0x14E580, symSize: 0x4 }
  - { offset: 0xBE9971, size: 0x8, addend: 0x0, symName: __ZN6twitch4rtmp17AMF0NumberDecoder6NumberEd, symObjAddr: 0x155C84, symBinAddr: 0x14E584, symSize: 0x8 }
  - { offset: 0xBE99A9, size: 0x8, addend: 0x0, symName: __ZN6twitch4rtmp7AMF0Nop6StringENSt3__112basic_stringIcNS2_11char_traitsIcEENS2_9allocatorIcEEEE, symObjAddr: 0x155C8C, symBinAddr: 0x14E58C, symSize: 0x4 }
  - { offset: 0xBE99D6, size: 0x8, addend: 0x0, symName: __ZN6twitch4rtmp7AMF0NopD1Ev, symObjAddr: 0x155C90, symBinAddr: 0x14E590, symSize: 0x4 }
  - { offset: 0xBE9A01, size: 0x8, addend: 0x0, symName: __ZN6twitch4rtmp7AMF0NopD0Ev, symObjAddr: 0x155C94, symBinAddr: 0x14E594, symSize: 0x4 }
  - { offset: 0xBE9C7A, size: 0x8, addend: 0x0, symName: __ZN12_GLOBAL__N_113DecodeElementEPKhRKNSt3__110shared_ptrIN6twitch4rtmp5IAMF0EEE, symObjAddr: 0x155C98, symBinAddr: 0x14E598, symSize: 0x21C }
  - { offset: 0xBEA129, size: 0x8, addend: 0x0, symName: __ZN12_GLOBAL__N_112DecodeStringEPKhRKNSt3__110shared_ptrIN6twitch4rtmp5IAMF0EEENS6_7AMFTypeE, symObjAddr: 0x155EB4, symBinAddr: 0x14E7B4, symSize: 0x1E0 }
  - { offset: 0xA5AA88, size: 0x8, addend: 0x0, symName: _i2s_ASN1_ENUMERATED_TABLE, symObjAddr: 0x1122A0, symBinAddr: 0x10C4E8, symSize: 0x128 }
  - { offset: 0xA5AAA1, size: 0x8, addend: 0x0, symName: _v3_crl_reason, symObjAddr: 0x1E41F0, symBinAddr: 0x1EB1A8, symSize: 0x0 }
  - { offset: 0xA5C0A5, size: 0x8, addend: 0x0, symName: _crl_reasons, symObjAddr: 0x1E3290, symBinAddr: 0x1EA248, symSize: 0x0 }
  - { offset: 0xA5C11B, size: 0x8, addend: 0x0, symName: _i2s_ASN1_ENUMERATED_TABLE, symObjAddr: 0x1122A0, symBinAddr: 0x10C4E8, symSize: 0x128 }
  - { offset: 0xA04773, size: 0x8, addend: 0x0, symName: _ed25519_pub_decode, symObjAddr: 0xFD888, symBinAddr: 0xF7B30, symSize: 0x40 }
  - { offset: 0xA0478C, size: 0x8, addend: 0x0, symName: _ed25519_asn1_meth, symObjAddr: 0x1D7D88, symBinAddr: 0x1DED40, symSize: 0x0 }
  - { offset: 0xA04F02, size: 0x8, addend: 0x0, symName: _ed25519_pub_decode, symObjAddr: 0xFD888, symBinAddr: 0xF7B30, symSize: 0x40 }
  - { offset: 0xA04FA7, size: 0x8, addend: 0x0, symName: _ed25519_set_pub_raw, symObjAddr: 0xFDC70, symBinAddr: 0xF7F18, symSize: 0xBC }
  - { offset: 0xA05117, size: 0x8, addend: 0x0, symName: _ed25519_pub_encode, symObjAddr: 0xFD8C8, symBinAddr: 0xF7B70, symSize: 0xE8 }
  - { offset: 0xA0525B, size: 0x8, addend: 0x0, symName: _ed25519_pub_cmp, symObjAddr: 0xFD9B0, symBinAddr: 0xF7C58, symSize: 0x30 }
  - { offset: 0xA052E5, size: 0x8, addend: 0x0, symName: _ed25519_priv_decode, symObjAddr: 0xFD9E0, symBinAddr: 0xF7C88, symSize: 0x78 }
  - { offset: 0xA053F2, size: 0x8, addend: 0x0, symName: _ed25519_set_priv_raw, symObjAddr: 0xFDB74, symBinAddr: 0xF7E1C, symSize: 0xFC }
  - { offset: 0xA05550, size: 0x8, addend: 0x0, symName: _ed25519_priv_encode, symObjAddr: 0xFDA58, symBinAddr: 0xF7D00, symSize: 0x11C }
  - { offset: 0xA056C4, size: 0x8, addend: 0x0, symName: _ed25519_get_priv_raw, symObjAddr: 0xFDD2C, symBinAddr: 0xF7FD4, symSize: 0x78 }
  - { offset: 0xA0575A, size: 0x8, addend: 0x0, symName: _ed25519_get_pub_raw, symObjAddr: 0xFDDA4, symBinAddr: 0xF804C, symSize: 0x58 }
  - { offset: 0xA057F2, size: 0x8, addend: 0x0, symName: _ed25519_size, symObjAddr: 0xFDDFC, symBinAddr: 0xF80A4, symSize: 0x8 }
  - { offset: 0xA05819, size: 0x8, addend: 0x0, symName: _ed25519_bits, symObjAddr: 0xFDE04, symBinAddr: 0xF80AC, symSize: 0x8 }
  - { offset: 0xA05840, size: 0x8, addend: 0x0, symName: _ed25519_free, symObjAddr: 0xFDE0C, symBinAddr: 0xF80B4, symSize: 0x44 }
  - { offset: 0x4E09EB, size: 0x8, addend: 0x0, symName: __ZN6twitch25BroadcastRetryCoordinator7receiveERKNS_20BroadcastStateSampleE, symObjAddr: 0x768B0, symBinAddr: 0x75BC8, symSize: 0x288 }
  - { offset: 0x4E2F8B, size: 0x8, addend: 0x0, symName: __ZN6twitch25BroadcastRetryCoordinator13scheduleRetryERKNSt3__112basic_stringIcNS1_11char_traitsIcEENS1_9allocatorIcEEEE, symObjAddr: 0x76D78, symBinAddr: 0x76090, symSize: 0x1B0 }
  - { offset: 0x4E4210, size: 0x8, addend: 0x0, symName: __ZN6twitch25BroadcastRetryCoordinator7receiveERKNS_20BroadcastStateSampleE, symObjAddr: 0x768B0, symBinAddr: 0x75BC8, symSize: 0x288 }
  - { offset: 0x4E4955, size: 0x8, addend: 0x0, symName: __ZNSt3__13anyaSB8nn180100ERKS0_, symObjAddr: 0x76C1C, symBinAddr: 0x75F34, symSize: 0x15C }
  - { offset: 0x4E4DEB, size: 0x8, addend: 0x0, symName: __ZN6twitch25BroadcastRetryCoordinatorD1Ev, symObjAddr: 0x76B38, symBinAddr: 0x75E50, symSize: 0x4 }
  - { offset: 0x4E4E0F, size: 0x8, addend: 0x0, symName: __ZN6twitch25BroadcastRetryCoordinatorD1Ev, symObjAddr: 0x76B38, symBinAddr: 0x75E50, symSize: 0x4 }
  - { offset: 0x4E4E1A, size: 0x8, addend: 0x0, symName: __ZN6twitch25BroadcastRetryCoordinatorD2Ev, symObjAddr: 0x76B50, symBinAddr: 0x75E68, symSize: 0xCC }
  - { offset: 0x4E555A, size: 0x8, addend: 0x0, symName: __ZN6twitch25BroadcastRetryCoordinatorD0Ev, symObjAddr: 0x76B3C, symBinAddr: 0x75E54, symSize: 0x14 }
  - { offset: 0x4E5EB2, size: 0x8, addend: 0x0, symName: '__ZNSt3__110__function6__funcIZN6twitch25BroadcastRetryCoordinator13scheduleRetryERKNS_12basic_stringIcNS_11char_traitsIcEENS_9allocatorIcEEEEE3$_0NS7_ISC_EEFvvEED1Ev', symObjAddr: 0x76F28, symBinAddr: 0x76240, symSize: 0x3C }
  - { offset: 0x4E612F, size: 0x8, addend: 0x0, symName: '__ZNSt3__110__function6__funcIZN6twitch25BroadcastRetryCoordinator13scheduleRetryERKNS_12basic_stringIcNS_11char_traitsIcEENS_9allocatorIcEEEEE3$_0NS7_ISC_EEFvvEED0Ev', symObjAddr: 0x76F64, symBinAddr: 0x7627C, symSize: 0x3C }
  - { offset: 0x4E65BB, size: 0x8, addend: 0x0, symName: '__ZNKSt3__110__function6__funcIZN6twitch25BroadcastRetryCoordinator13scheduleRetryERKNS_12basic_stringIcNS_11char_traitsIcEENS_9allocatorIcEEEEE3$_0NS7_ISC_EEFvvEE7__cloneEv', symObjAddr: 0x76FA0, symBinAddr: 0x762B8, symSize: 0x64 }
  - { offset: 0x4E699F, size: 0x8, addend: 0x0, symName: '__ZNKSt3__110__function6__funcIZN6twitch25BroadcastRetryCoordinator13scheduleRetryERKNS_12basic_stringIcNS_11char_traitsIcEENS_9allocatorIcEEEEE3$_0NS7_ISC_EEFvvEE7__cloneEPNS0_6__baseISE_EE', symObjAddr: 0x77004, symBinAddr: 0x7631C, symSize: 0x40 }
  - { offset: 0x4E6BDB, size: 0x8, addend: 0x0, symName: '__ZNSt3__110__function6__funcIZN6twitch25BroadcastRetryCoordinator13scheduleRetryERKNS_12basic_stringIcNS_11char_traitsIcEENS_9allocatorIcEEEEE3$_0NS7_ISC_EEFvvEE7destroyEv', symObjAddr: 0x77044, symBinAddr: 0x7635C, symSize: 0x14 }
  - { offset: 0x4E6CC1, size: 0x8, addend: 0x0, symName: '__ZNSt3__110__function6__funcIZN6twitch25BroadcastRetryCoordinator13scheduleRetryERKNS_12basic_stringIcNS_11char_traitsIcEENS_9allocatorIcEEEEE3$_0NS7_ISC_EEFvvEE7destroyEv', symObjAddr: 0x77044, symBinAddr: 0x7635C, symSize: 0x14 }
  - { offset: 0x4E6DDB, size: 0x8, addend: 0x0, symName: '__ZNSt3__110__function6__funcIZN6twitch25BroadcastRetryCoordinator13scheduleRetryERKNS_12basic_stringIcNS_11char_traitsIcEENS_9allocatorIcEEEEE3$_0NS7_ISC_EEFvvEE18destroy_deallocateEv', symObjAddr: 0x77058, symBinAddr: 0x76370, symSize: 0x30 }
  - { offset: 0x4E7130, size: 0x8, addend: 0x0, symName: '__ZNSt3__110__function6__funcIZN6twitch25BroadcastRetryCoordinator13scheduleRetryERKNS_12basic_stringIcNS_11char_traitsIcEENS_9allocatorIcEEEEE3$_0NS7_ISC_EEFvvEEclEv', symObjAddr: 0x77088, symBinAddr: 0x763A0, symSize: 0x74 }
  - { offset: 0x4E7483, size: 0x8, addend: 0x0, symName: __ZN6twitch25BroadcastRetryCoordinator15setRetryHandlerERKNSt3__18functionIFvNS0_5StateERKNS1_12basic_stringIcNS1_11char_traitsIcEENS1_9allocatorIcEEEEEEE, symObjAddr: 0x770FC, symBinAddr: 0x76414, symSize: 0x254 }
  - { offset: 0x9D4820, size: 0x8, addend: 0x0, symName: _ASN1_item_dup, symObjAddr: 0xEC990, symBinAddr: 0xE6C38, symSize: 0xAC }
  - { offset: 0x9D4835, size: 0x8, addend: 0x0, symName: _ASN1_item_dup, symObjAddr: 0xEC990, symBinAddr: 0xE6C38, symSize: 0xAC }
  - { offset: 0xA17FA2, size: 0x8, addend: 0x0, symName: _CRYPTO_get_thread_local, symObjAddr: 0x1044DC, symBinAddr: 0xFE724, symSize: 0x60 }
  - { offset: 0xA17FBC, size: 0x8, addend: 0x0, symName: _g_destructors, symObjAddr: 0x34F2270, symBinAddr: 0x200FD0, symSize: 0x0 }
  - { offset: 0xA17FE6, size: 0x8, addend: 0x0, symName: _g_thread_local_key, symObjAddr: 0x34F2268, symBinAddr: 0x200FC8, symSize: 0x0 }
  - { offset: 0xA17FFC, size: 0x8, addend: 0x0, symName: _g_thread_local_init_once, symObjAddr: 0x202248, symBinAddr: 0x1FFBD8, symSize: 0x0 }
  - { offset: 0xA1804E, size: 0x8, addend: 0x0, symName: _g_thread_local_key_created, symObjAddr: 0x34F2260, symBinAddr: 0x200FC0, symSize: 0x0 }
  - { offset: 0xA18064, size: 0x8, addend: 0x0, symName: _g_destructors_lock, symObjAddr: 0x202258, symBinAddr: 0x1FFBE8, symSize: 0x0 }
  - { offset: 0xA1822E, size: 0x8, addend: 0x0, symName: _CRYPTO_get_thread_local, symObjAddr: 0x1044DC, symBinAddr: 0xFE724, symSize: 0x60 }
  - { offset: 0xA182AA, size: 0x8, addend: 0x0, symName: _thread_local_init, symObjAddr: 0x10453C, symBinAddr: 0xFE784, symSize: 0x34 }
  - { offset: 0xA182C8, size: 0x8, addend: 0x0, symName: _thread_local_init, symObjAddr: 0x10453C, symBinAddr: 0xFE784, symSize: 0x34 }
  - { offset: 0xA18342, size: 0x8, addend: 0x0, symName: _thread_local_destructor, symObjAddr: 0x104570, symBinAddr: 0xFE7B8, symSize: 0xD0 }
  - { offset: 0xA184D8, size: 0x8, addend: 0x0, symName: _CRYPTO_set_thread_local, symObjAddr: 0x104640, symBinAddr: 0xFE888, symSize: 0xEC }
  - { offset: 0xA18639, size: 0x8, addend: 0x0, symName: _ASN1_item_digest, symObjAddr: 0x10472C, symBinAddr: 0xFE974, symSize: 0x94 }
  - { offset: 0x59D388, size: 0x8, addend: 0x0, symName: __ZN6twitch19GlobalAnalyticsSink16DefaultIngestUrlE, symObjAddr: 0x34F21C8, symBinAddr: 0x200F28, symSize: 0x0 }
  - { offset: 0x59D39C, size: 0x8, addend: 0x0, symName: __ZN6twitch19GlobalAnalyticsSink8instanceE, symObjAddr: 0x34F21E0, symBinAddr: 0x200F40, symSize: 0x0 }
  - { offset: 0x59D3B0, size: 0x8, addend: 0x0, symName: __ZN6twitch19GlobalAnalyticsSink16initInstanceFlagE, symObjAddr: 0x34F21E8, symBinAddr: 0x200F48, symSize: 0x0 }
  - { offset: 0x5A477F, size: 0x8, addend: 0x0, symName: __ZNSt3__112construct_atB8nn180100IN6twitch13AnalyticsSinkEJRNS1_5ClockEKNS_10shared_ptrINS1_3LogEEENS5_INS1_9SchedulerEEERNS5_INS1_9analytics11SpadeClientEEEKNS5_INS1_16HostInfoProviderEEERNS2_8SendModeEEPS2_EEPT_SM_DpOT0_, symObjAddr: 0x85DE4, symBinAddr: 0x847AC, symSize: 0x26C }
  - { offset: 0x5A625D, size: 0x8, addend: 0x0, symName: __ZNSt3__117__call_once_proxyB8nn180100INS_5tupleIJOPFvvEEEEEEvPv, symObjAddr: 0x883D4, symBinAddr: 0x86630, symSize: 0x10 }
  - { offset: 0x5A629B, size: 0x8, addend: 0x0, symName: __ZNSt3__117__call_once_proxyB8nn180100INS_5tupleIJOPFvvEEEEEEvPv, symObjAddr: 0x883D4, symBinAddr: 0x86630, symSize: 0x10 }
  - { offset: 0x5A62BA, size: 0x8, addend: 0x0, symName: __ZNSt3__117__call_once_proxyB8nn180100INS_5tupleIJOPFvvEEEEEEvPv, symObjAddr: 0x883D4, symBinAddr: 0x86630, symSize: 0x10 }
  - { offset: 0x5A7ECD, size: 0x8, addend: 0x0, symName: __ZN6twitch19GlobalAnalyticsSink5setupENSt3__18functionIFNS1_10shared_ptrINS_27GlobalAnalyticsSinkProviderEEEvEEE, symObjAddr: 0x8676C, symBinAddr: 0x850D8, symSize: 0x7E0 }
  - { offset: 0x5AA6F3, size: 0x8, addend: 0x0, symName: '__ZNSt3__110__function6__funcIZN6twitch19GlobalAnalyticsSink5setupENS_8functionIFNS_10shared_ptrINS2_27GlobalAnalyticsSinkProviderEEEvEEEE3$_0NS_9allocatorISA_EEFvvEED1Ev', symObjAddr: 0x86F4C, symBinAddr: 0x858B8, symSize: 0x4 }
  - { offset: 0x5AA9CB, size: 0x8, addend: 0x0, symName: __ZN6twitch19GlobalAnalyticsSink26setupSessionlessSinkLockedEv, symObjAddr: 0x85A7C, symBinAddr: 0x84444, symSize: 0x368 }
  - { offset: 0x5AC4C8, size: 0x8, addend: 0x0, symName: __ZN6twitch19GlobalAnalyticsSink21onNetworkStateChangedENS_12NetworkStateE, symObjAddr: 0x848AC, symBinAddr: 0x83300, symSize: 0x6BC }
  - { offset: 0x5AFD62, size: 0x8, addend: 0x0, symName: __ZN6twitch19GlobalAnalyticsSink17onAppBackgroundedEb, symObjAddr: 0x84F68, symBinAddr: 0x839BC, symSize: 0x98 }
  - { offset: 0x5B0237, size: 0x8, addend: 0x0, symName: __ZN6twitch19GlobalAnalyticsSinkD1Ev, symObjAddr: 0x84894, symBinAddr: 0x832E8, symSize: 0x4 }
  - { offset: 0x5B025B, size: 0x8, addend: 0x0, symName: __ZN6twitch19GlobalAnalyticsSinkD1Ev, symObjAddr: 0x84894, symBinAddr: 0x832E8, symSize: 0x4 }
  - { offset: 0x5B0266, size: 0x8, addend: 0x0, symName: __ZN6twitch19GlobalAnalyticsSinkD2Ev, symObjAddr: 0x85028, symBinAddr: 0x83A7C, symSize: 0x1F8 }
  - { offset: 0x5B1430, size: 0x8, addend: 0x0, symName: __ZN6twitch19GlobalAnalyticsSinkD0Ev, symObjAddr: 0x84898, symBinAddr: 0x832EC, symSize: 0x14 }
  - { offset: 0x5B253B, size: 0x8, addend: 0x0, symName: __ZN6twitch19GlobalAnalyticsSink15applyToAllSinksERKNSt3__18functionIFvRKNS1_10shared_ptrINS_13AnalyticsSinkEEEEEE, symObjAddr: 0x852F4, symBinAddr: 0x83CBC, symSize: 0x84 }
  - { offset: 0x5B27F3, size: 0x8, addend: 0x0, symName: '__ZNSt3__110__function6__funcIZN6twitch19GlobalAnalyticsSink17onAppBackgroundedEbE3$_0NS_9allocatorIS4_EEFvRKNS_10shared_ptrINS2_13AnalyticsSinkEEEEED1Ev', symObjAddr: 0x85378, symBinAddr: 0x83D40, symSize: 0x4 }
  - { offset: 0x5B2B04, size: 0x8, addend: 0x0, symName: __ZThn8_N6twitch19GlobalAnalyticsSinkD1Ev, symObjAddr: 0x85000, symBinAddr: 0x83A54, symSize: 0x8 }
  - { offset: 0x5B2B62, size: 0x8, addend: 0x0, symName: __ZThn8_N6twitch19GlobalAnalyticsSinkD0Ev, symObjAddr: 0x85008, symBinAddr: 0x83A5C, symSize: 0x18 }
  - { offset: 0x5B2BC2, size: 0x8, addend: 0x0, symName: __ZThn8_N6twitch19GlobalAnalyticsSink17onAppBackgroundedEb, symObjAddr: 0x85020, symBinAddr: 0x83A74, symSize: 0x8 }
  - { offset: 0x5B32E2, size: 0x8, addend: 0x0, symName: __ZNSt3__112__hash_tableIN6twitch6detail12AnalyticsKeyENS_4hashIS3_EENS_8equal_toIS3_EENS_9allocatorIS3_EEED2Ev, symObjAddr: 0x85270, symBinAddr: 0x83C74, symSize: 0x48 }
  - { offset: 0x5B381F, size: 0x8, addend: 0x0, symName: '__ZNSt3__110__function6__funcIZN6twitch19GlobalAnalyticsSink17onAppBackgroundedEbE3$_0NS_9allocatorIS4_EEFvRKNS_10shared_ptrINS2_13AnalyticsSinkEEEEED1Ev', symObjAddr: 0x85378, symBinAddr: 0x83D40, symSize: 0x4 }
  - { offset: 0x5B384A, size: 0x8, addend: 0x0, symName: '__ZNSt3__110__function6__funcIZN6twitch19GlobalAnalyticsSink17onAppBackgroundedEbE3$_0NS_9allocatorIS4_EEFvRKNS_10shared_ptrINS2_13AnalyticsSinkEEEEED0Ev', symObjAddr: 0x8537C, symBinAddr: 0x83D44, symSize: 0x4 }
  - { offset: 0x5B3A5E, size: 0x8, addend: 0x0, symName: '__ZNKSt3__110__function6__funcIZN6twitch19GlobalAnalyticsSink17onAppBackgroundedEbE3$_0NS_9allocatorIS4_EEFvRKNS_10shared_ptrINS2_13AnalyticsSinkEEEEE7__cloneEv', symObjAddr: 0x85380, symBinAddr: 0x83D48, symSize: 0x38 }
  - { offset: 0x5B3DAB, size: 0x8, addend: 0x0, symName: '__ZNKSt3__110__function6__funcIZN6twitch19GlobalAnalyticsSink17onAppBackgroundedEbE3$_0NS_9allocatorIS4_EEFvRKNS_10shared_ptrINS2_13AnalyticsSinkEEEEE7__cloneEPNS0_6__baseISC_EE', symObjAddr: 0x853B8, symBinAddr: 0x83D80, symSize: 0x18 }
  - { offset: 0x5B3DE4, size: 0x8, addend: 0x0, symName: '__ZNKSt3__110__function6__funcIZN6twitch19GlobalAnalyticsSink17onAppBackgroundedEbE3$_0NS_9allocatorIS4_EEFvRKNS_10shared_ptrINS2_13AnalyticsSinkEEEEE7__cloneEPNS0_6__baseISC_EE', symObjAddr: 0x853B8, symBinAddr: 0x83D80, symSize: 0x18 }
  - { offset: 0x5B3E16, size: 0x8, addend: 0x0, symName: '__ZNKSt3__110__function6__funcIZN6twitch19GlobalAnalyticsSink17onAppBackgroundedEbE3$_0NS_9allocatorIS4_EEFvRKNS_10shared_ptrINS2_13AnalyticsSinkEEEEE7__cloneEPNS0_6__baseISC_EE', symObjAddr: 0x853B8, symBinAddr: 0x83D80, symSize: 0x18 }
