---
triple:          'arm64-apple-darwin'
binary-path:     '/Users/ec2-user/Library/Developer/Xcode/DerivedData/player-core-dbtyjuvtcxzqcwbusdiasztwmtte/ArchiveIntermediates/AmazonIVSBroadcastFramework/InstallationBuildProductsLocation/Library/Frameworks/AmazonIVSBroadcast.framework/AmazonIVSBroadcast'
relocations:
  - { offset: 0x33, size: 0x8, addend: 0x0, symName: _IVSAmazonIVSBroadcastVersionString, symObjAddr: 0x197D40, symBinAddr: 0x1AD0C0, symSize: 0x0 }
  - { offset: 0x67, size: 0x8, addend: 0x0, symName: _IVSAmazonIVSBroadcastVersionNumber, symObjAddr: 0x197D78, symBinAddr: 0x1AD0F8, symSize: 0x0 }
  - { offset: 0xCD83C3, size: 0x8, addend: 0x0, symName: __ZN4bssl23ssl_cipher_get_evp_aeadEPPK11evp_aead_stPmS4_PK13ssl_cipher_sttb, symObjAddr: 0x17A034, symBinAddr: 0x1729F8, symSize: 0x268 }
  - { offset: 0xCD83E2, size: 0x8, addend: 0x0, symName: __ZN4bsslL8kCiphersE, symObjAddr: 0x1ECB28, symBinAddr: 0x1FA2D0, symSize: 0x0 }
  - { offset: 0xCD840B, size: 0x8, addend: 0x0, symName: __ZN4bsslL14kCipherAliasesE, symObjAddr: 0x1ECEE8, symBinAddr: 0x1FA690, symSize: 0x0 }
  - { offset: 0xCD85D1, size: 0x8, addend: 0x0, symName: __ZN4bssl23ssl_cipher_get_evp_aeadEPPK11evp_aead_stPmS4_PK13ssl_cipher_sttb, symObjAddr: 0x17A034, symBinAddr: 0x1729F8, symSize: 0x268 }
  - { offset: 0xCD887B, size: 0x8, addend: 0x0, symName: __ZN4bssl24ssl_get_handshake_digestEtPK13ssl_cipher_st, symObjAddr: 0x17A29C, symBinAddr: 0x172C60, symSize: 0x64 }
  - { offset: 0xCD8886, size: 0x8, addend: 0x0, symName: __ZN4bssl24ssl_get_handshake_digestEtPK13ssl_cipher_st, symObjAddr: 0x17A29C, symBinAddr: 0x172C60, symSize: 0x64 }
  - { offset: 0xCD8BAB, size: 0x8, addend: 0x0, symName: __ZN4bsslL21ssl_cipher_apply_ruleEjjjjjtiibPPNS_15cipher_order_stES2_, symObjAddr: 0x17A3EC, symBinAddr: 0x172D18, symSize: 0x324 }
  - { offset: 0xCDA3C7, size: 0x8, addend: 0x0, symName: __ZN4bssl23SSLCipherPreferenceListD2Ev, symObjAddr: 0x17A300, symBinAddr: 0x172CC4, symSize: 0x54 }
  - { offset: 0xCDA5CF, size: 0x8, addend: 0x0, symName: _SSL_CIPHER_get_bits, symObjAddr: 0x17A760, symBinAddr: 0x17308C, symSize: 0x6C }
  - { offset: 0xCDA687, size: 0x8, addend: 0x0, symName: __ZNSt3__110unique_ptrIN4bssl23SSLCipherPreferenceListENS1_8internal7DeleterIS2_EEE5resetB8nn180100EPS2_, symObjAddr: 0x17A710, symBinAddr: 0x17303C, symSize: 0x50 }
  - { offset: 0xCDA7F4, size: 0x8, addend: 0x0, symName: __ZL17ssl_cipher_id_cmpPKvS0_, symObjAddr: 0x17A7CC, symBinAddr: 0x1730F8, symSize: 0x18 }
  - { offset: 0xCDA837, size: 0x8, addend: 0x0, symName: __ZL17ssl_cipher_id_cmpPKvS0_, symObjAddr: 0x17A7CC, symBinAddr: 0x1730F8, symSize: 0x18 }
  - { offset: 0xC43887, size: 0x8, addend: 0x0, symName: __ZN6twitch4rtmp9NetStream19writeVideoExtradataERKNSt3__16vectorIhNS2_9allocatorIhEEEERKNS_9MediaTimeERKNS_9MediaTypeE, symObjAddr: 0x1645DC, symBinAddr: 0x15D424, symSize: 0x91C }
  - { offset: 0x9E341F, size: 0x8, addend: 0x0, symName: _sock_write, symObjAddr: 0xF6D2C, symBinAddr: 0xF207C, symSize: 0x60 }
  - { offset: 0x9E3439, size: 0x8, addend: 0x0, symName: _methods_sockp, symObjAddr: 0x1DCD18, symBinAddr: 0x1EA4C0, symSize: 0x0 }
  - { offset: 0x9E3687, size: 0x8, addend: 0x0, symName: _sock_write, symObjAddr: 0xF6D2C, symBinAddr: 0xF207C, symSize: 0x60 }
  - { offset: 0x9E375D, size: 0x8, addend: 0x0, symName: _sock_read, symObjAddr: 0xF6D8C, symBinAddr: 0xF20DC, symSize: 0x6C }
  - { offset: 0x9E3831, size: 0x8, addend: 0x0, symName: _sock_ctrl, symObjAddr: 0xF6DF8, symBinAddr: 0xF2148, symSize: 0xB4 }
  - { offset: 0x9E38BA, size: 0x8, addend: 0x0, symName: _sock_free, symObjAddr: 0xF6EC4, symBinAddr: 0xF2214, symSize: 0x44 }
  - { offset: 0x9E3911, size: 0x8, addend: 0x0, symName: _sock_new, symObjAddr: 0xF6EAC, symBinAddr: 0xF21FC, symSize: 0x18 }
  - { offset: 0x346871, size: 0x8, addend: 0x0, symName: '-[IVSMixedImageDeviceSource initWithConfiguration:device:]', symObjAddr: 0x49E04, symBinAddr: 0x4C19C, symSize: 0x104 }
  - { offset: 0x347286, size: 0x8, addend: 0x0, symName: '-[IVSMixedImageDeviceSource initWithConfiguration:device:]', symObjAddr: 0x49E04, symBinAddr: 0x4C19C, symSize: 0x104 }
  - { offset: 0x3472DD, size: 0x8, addend: 0x0, symName: '-[IVSMixedImageDeviceSource setDevice:]', symObjAddr: 0x49F08, symBinAddr: 0x4C2A0, symSize: 0x1E8 }
  - { offset: 0x34734E, size: 0x8, addend: 0x0, symName: '-[IVSMixedImageDeviceSource transitionToConfiguration:duration:onComplete:]', symObjAddr: 0x4A0F0, symBinAddr: 0x4C488, symSize: 0x158 }
  - { offset: 0x3473C8, size: 0x8, addend: 0x0, symName: '-[IVSMixedImageDeviceSource mixerBound:]', symObjAddr: 0x4A248, symBinAddr: 0x4C5E0, symSize: 0x50 }
  - { offset: 0x34740B, size: 0x8, addend: 0x0, symName: '-[IVSMixedImageDeviceSource mixerUnbound:]', symObjAddr: 0x4A298, symBinAddr: 0x4C630, symSize: 0x50 }
  - { offset: 0x34744E, size: 0x8, addend: 0x0, symName: '-[IVSMixedImageDeviceSource device]', symObjAddr: 0x4A2E8, symBinAddr: 0x4C680, symSize: 0x8 }
  - { offset: 0x347485, size: 0x8, addend: 0x0, symName: '-[IVSMixedImageDeviceSource configuration]', symObjAddr: 0x4A2F0, symBinAddr: 0x4C688, symSize: 0x8 }
  - { offset: 0x3474BC, size: 0x8, addend: 0x0, symName: '-[IVSMixedImageDeviceSource boundMixers]', symObjAddr: 0x4A2F8, symBinAddr: 0x4C690, symSize: 0x8 }
  - { offset: 0x3474F3, size: 0x8, addend: 0x0, symName: '-[IVSMixedImageDeviceSource setBoundMixers:]', symObjAddr: 0x4A300, symBinAddr: 0x4C698, symSize: 0xC }
  - { offset: 0x347534, size: 0x8, addend: 0x0, symName: '-[IVSMixedImageDeviceSource uuid]', symObjAddr: 0x4A30C, symBinAddr: 0x4C6A4, symSize: 0x8 }
  - { offset: 0x34756B, size: 0x8, addend: 0x0, symName: '-[IVSMixedImageDeviceSource setUuid:]', symObjAddr: 0x4A314, symBinAddr: 0x4C6AC, symSize: 0xC }
  - { offset: 0x3475AC, size: 0x8, addend: 0x0, symName: '-[IVSMixedImageDeviceSource .cxx_destruct]', symObjAddr: 0x4A320, symBinAddr: 0x4C6B8, symSize: 0x48 }
  - { offset: 0x9FB449, size: 0x8, addend: 0x0, symName: _EVP_parse_public_key, symObjAddr: 0xFE844, symBinAddr: 0xF9B94, symSize: 0x200 }
  - { offset: 0x9FB463, size: 0x8, addend: 0x0, symName: _kASN1Methods, symObjAddr: 0x1DD350, symBinAddr: 0x1EAAF8, symSize: 0x0 }
  - { offset: 0x9FBCD6, size: 0x8, addend: 0x0, symName: _EVP_parse_public_key, symObjAddr: 0xFE844, symBinAddr: 0xF9B94, symSize: 0x200 }
  - { offset: 0xCCA949, size: 0x8, addend: 0x0, symName: __ZN4bssl10SSL3_STATED2Ev, symObjAddr: 0x177BBC, symBinAddr: 0x170580, symSize: 0x188 }
  - { offset: 0xCCB8ED, size: 0x8, addend: 0x0, symName: __ZN4bssl7tls_newEP6ssl_st, symObjAddr: 0x177D94, symBinAddr: 0x170758, symSize: 0x184 }
  - { offset: 0xCCBF7B, size: 0x8, addend: 0x0, symName: __ZN4bssl8tls_freeEP6ssl_st, symObjAddr: 0x177F18, symBinAddr: 0x1708DC, symSize: 0x50 }
  - { offset: 0xCCC4C2, size: 0x8, addend: 0x0, symName: __ZN4bssl10SSL3_STATED2Ev, symObjAddr: 0x177BBC, symBinAddr: 0x170580, symSize: 0x188 }
  - { offset: 0xCCCEF3, size: 0x8, addend: 0x0, symName: __ZNSt3__110unique_ptrIN4bssl13SSL_HANDSHAKEENS1_8internal7DeleterIS2_EEE5resetB8nn180100EPS2_, symObjAddr: 0x177D44, symBinAddr: 0x170708, symSize: 0x50 }
  - { offset: 0xCE2893, size: 0x8, addend: 0x0, symName: __ZN4bssl14CBBFinishArrayEP6cbb_stPNS_5ArrayIhEE, symObjAddr: 0x17C9FC, symBinAddr: 0x175328, symSize: 0x98 }
  - { offset: 0xCE28B6, size: 0x8, addend: 0x0, symName: __ZN4bsslL11cbb_add_hexEP6cbb_stNS_4SpanIKhEE, symObjAddr: 0x17CC88, symBinAddr: 0x1755B4, symSize: 0x88 }
  - { offset: 0xCE2981, size: 0x8, addend: 0x0, symName: __ZN4bsslL23g_ex_data_class_ssl_ctxE, symObjAddr: 0x208540, symBinAddr: 0x210910, symSize: 0x0 }
  - { offset: 0xCE299B, size: 0x8, addend: 0x0, symName: __ZN4bsslL19g_ex_data_class_sslE, symObjAddr: 0x208618, symBinAddr: 0x2109E8, symSize: 0x0 }
  - { offset: 0xCE2C21, size: 0x8, addend: 0x0, symName: __ZN4bssl14CBBFinishArrayEP6cbb_stPNS_5ArrayIhEE, symObjAddr: 0x17C9FC, symBinAddr: 0x175328, symSize: 0x98 }
  - { offset: 0xCE2D50, size: 0x8, addend: 0x0, symName: __ZN4bssl18ssl_set_read_errorEP6ssl_st, symObjAddr: 0x17CA94, symBinAddr: 0x1753C0, symSize: 0x44 }
  - { offset: 0xCE2E03, size: 0x8, addend: 0x0, symName: __ZN4bssl24ssl_ctx_get_current_timeEPK10ssl_ctx_stPNS_15OPENSSL_timevalE, symObjAddr: 0x17CAD8, symBinAddr: 0x175404, symSize: 0x64 }
  - { offset: 0xCE2E86, size: 0x8, addend: 0x0, symName: __ZN4bssl14ssl_log_secretEPK6ssl_stPKcNS_4SpanIKhEE, symObjAddr: 0x17CB3C, symBinAddr: 0x175468, symSize: 0x14C }
  - { offset: 0xCE31E6, size: 0x8, addend: 0x0, symName: __ZN4bssl19ssl_do_msg_callbackEPK6ssl_stiiNS_4SpanIKhEE, symObjAddr: 0x17CD10, symBinAddr: 0x17563C, symSize: 0xAC }
  - { offset: 0xCE35E7, size: 0x8, addend: 0x0, symName: __ZN4bsslL19ssl_can_renegotiateEPK6ssl_st, symObjAddr: 0x17EF6C, symBinAddr: 0x177898, symSize: 0x84 }
  - { offset: 0xCE4C7A, size: 0x8, addend: 0x0, symName: __ZNSt3__110unique_ptrIN4bssl4CERTENS1_8internal7DeleterIS2_EEE5resetB8nn180100EPS2_, symObjAddr: 0x17CDBC, symBinAddr: 0x1756E8, symSize: 0x50 }
  - { offset: 0xCE500D, size: 0x8, addend: 0x0, symName: _SSL_CTX_new, symObjAddr: 0x17CE0C, symBinAddr: 0x175738, symSize: 0xDC0 }
  - { offset: 0xCE682B, size: 0x8, addend: 0x0, symName: __ZL16ssl_session_hashPK14ssl_session_st, symObjAddr: 0x17DBCC, symBinAddr: 0x1764F8, symSize: 0x40 }
  - { offset: 0xCE683C, size: 0x8, addend: 0x0, symName: _SSL_CTX_free, symObjAddr: 0x17DC3C, symBinAddr: 0x176568, symSize: 0x31C }
  - { offset: 0xCE78FE, size: 0x8, addend: 0x0, symName: __ZL16ssl_session_hashPK14ssl_session_st, symObjAddr: 0x17DBCC, symBinAddr: 0x1764F8, symSize: 0x40 }
  - { offset: 0xCE79DE, size: 0x8, addend: 0x0, symName: __ZL15ssl_session_cmpPK14ssl_session_stS1_, symObjAddr: 0x17DC0C, symBinAddr: 0x176538, symSize: 0x30 }
  - { offset: 0xCE8011, size: 0x8, addend: 0x0, symName: __ZN6ssl_stD2Ev, symObjAddr: 0x17DF58, symBinAddr: 0x176884, symSize: 0xE4 }
  - { offset: 0xCE85D5, size: 0x8, addend: 0x0, symName: __ZNSt3__110unique_ptrIN4bssl10SSL_CONFIGENS1_8internal7DeleterIS2_EEE5resetB8nn180100EPS2_, symObjAddr: 0x17E03C, symBinAddr: 0x176968, symSize: 0x314 }
  - { offset: 0xCEA003, size: 0x8, addend: 0x0, symName: _SSL_new, symObjAddr: 0x17E350, symBinAddr: 0x176C7C, symSize: 0x7D8 }
  - { offset: 0xCEC0A4, size: 0x8, addend: 0x0, symName: _SSL_free, symObjAddr: 0x17EB28, symBinAddr: 0x177454, symSize: 0x40 }
  - { offset: 0xCEC0C6, size: 0x8, addend: 0x0, symName: _SSL_free, symObjAddr: 0x17EB28, symBinAddr: 0x177454, symSize: 0x40 }
  - { offset: 0xCEC18B, size: 0x8, addend: 0x0, symName: _SSL_do_handshake, symObjAddr: 0x17EB68, symBinAddr: 0x177494, symSize: 0x404 }
  - { offset: 0xCEC745, size: 0x8, addend: 0x0, symName: _SSL_renegotiate, symObjAddr: 0x17EFF0, symBinAddr: 0x17791C, symSize: 0x100 }
  - { offset: 0xCEC96B, size: 0x8, addend: 0x0, symName: _SSL_read, symObjAddr: 0x17F0F0, symBinAddr: 0x177A1C, symSize: 0xF8 }
  - { offset: 0xCECB22, size: 0x8, addend: 0x0, symName: __ZL13ssl_read_implP6ssl_st, symObjAddr: 0x17F1E8, symBinAddr: 0x177B14, symSize: 0x714 }
  - { offset: 0xCECB2D, size: 0x8, addend: 0x0, symName: __ZL13ssl_read_implP6ssl_st, symObjAddr: 0x17F1E8, symBinAddr: 0x177B14, symSize: 0x714 }
  - { offset: 0xCED897, size: 0x8, addend: 0x0, symName: _SSL_write, symObjAddr: 0x17F8FC, symBinAddr: 0x178228, symSize: 0x128 }
  - { offset: 0xCED9F7, size: 0x8, addend: 0x0, symName: _SSL_shutdown, symObjAddr: 0x17FA24, symBinAddr: 0x178350, symSize: 0x124 }
  - { offset: 0xCEDBB3, size: 0x8, addend: 0x0, symName: _SSL_get_error, symObjAddr: 0x17FB48, symBinAddr: 0x178474, symSize: 0x104 }
  - { offset: 0xCEDDFC, size: 0x8, addend: 0x0, symName: _SSL_set_fd, symObjAddr: 0x17FC4C, symBinAddr: 0x178578, symSize: 0x14C }
  - { offset: 0xD365A9, size: 0x8, addend: 0x0, symName: __ZN6twitch14CircularBufferIhE7advanceEl, symObjAddr: 0x18EDF4, symBinAddr: 0x187200, symSize: 0x8C }
  - { offset: 0xD37AA1, size: 0x8, addend: 0x0, symName: __ZN6twitch14CircularBufferIhE7advanceEl, symObjAddr: 0x18EDF4, symBinAddr: 0x187200, symSize: 0x8C }
  - { offset: 0xD37B3A, size: 0x8, addend: 0x0, symName: __ZNK6twitch14CircularBufferIhE14shouldContractEv, symObjAddr: 0x18EE80, symBinAddr: 0x18728C, symSize: 0x7C }
  - { offset: 0xD37B63, size: 0x8, addend: 0x0, symName: __ZN6twitch14CircularBufferIhE8contractEv, symObjAddr: 0x18EEFC, symBinAddr: 0x187308, symSize: 0x8C }
  - { offset: 0xD37D29, size: 0x8, addend: 0x0, symName: __ZNK6twitch14CircularBufferIhE16pointerAndLengthEm, symObjAddr: 0x18EF88, symBinAddr: 0x187394, symSize: 0x6C }
  - { offset: 0xD58446, size: 0x8, addend: 0x0, symName: __ZN6twitch13JsonBufWriter10writeInt32EiRNSt3__112basic_stringIcNS1_11char_traitsIcEENS1_9allocatorIcEEEE, symObjAddr: 0x192D44, symBinAddr: 0x18B088, symSize: 0x40 }
  - { offset: 0xD5943D, size: 0x8, addend: 0x0, symName: __ZN6twitch13JsonBufWriter10writeInt32EiRNSt3__112basic_stringIcNS1_11char_traitsIcEENS1_9allocatorIcEEEE, symObjAddr: 0x192D44, symBinAddr: 0x18B088, symSize: 0x40 }
  - { offset: 0xD594C2, size: 0x8, addend: 0x0, symName: __ZN6twitch13JsonBufWriter10ensureSizeEmRNSt3__112basic_stringIcNS1_11char_traitsIcEENS1_9allocatorIcEEEE, symObjAddr: 0x192E74, symBinAddr: 0x18B1B8, symSize: 0xCC }
  - { offset: 0xD596FA, size: 0x8, addend: 0x0, symName: __ZN6twitch13JsonBufWriter10writeInt64ExRNSt3__112basic_stringIcNS1_11char_traitsIcEENS1_9allocatorIcEEEE, symObjAddr: 0x192D84, symBinAddr: 0x18B0C8, symSize: 0x40 }
  - { offset: 0xD5976E, size: 0x8, addend: 0x0, symName: __ZN6twitch13JsonBufWriter11writeDoubleEdRNSt3__112basic_stringIcNS1_11char_traitsIcEENS1_9allocatorIcEEEE, symObjAddr: 0x192DC4, symBinAddr: 0x18B108, symSize: 0x4C }
  - { offset: 0xD597F4, size: 0x8, addend: 0x0, symName: __ZN6twitch13JsonBufWriter9writeDataEPKvmRNSt3__112basic_stringIcNS3_11char_traitsIcEENS3_9allocatorIcEEEE, symObjAddr: 0x192E10, symBinAddr: 0x18B154, symSize: 0x64 }
  - { offset: 0xD598CC, size: 0x8, addend: 0x0, symName: __ZN6twitch13JsonBufReader9readInt32ERiRNSt3__112basic_stringIcNS2_11char_traitsIcEENS2_9allocatorIcEEEE, symObjAddr: 0x192F40, symBinAddr: 0x18B284, symSize: 0x64 }
  - { offset: 0xD59916, size: 0x8, addend: 0x0, symName: __ZN6twitch13JsonBufReader9readInt32ERiRNSt3__112basic_stringIcNS2_11char_traitsIcEENS2_9allocatorIcEEEE, symObjAddr: 0x192F40, symBinAddr: 0x18B284, symSize: 0x64 }
  - { offset: 0xD59AC2, size: 0x8, addend: 0x0, symName: __ZN6twitch13JsonBufReader9readInt64ERxRNSt3__112basic_stringIcNS2_11char_traitsIcEENS2_9allocatorIcEEEE, symObjAddr: 0x192FA4, symBinAddr: 0x18B2E8, symSize: 0x64 }
  - { offset: 0xD59AFA, size: 0x8, addend: 0x0, symName: __ZN6twitch13JsonBufReader9readInt64ERxRNSt3__112basic_stringIcNS2_11char_traitsIcEENS2_9allocatorIcEEEE, symObjAddr: 0x192FA4, symBinAddr: 0x18B2E8, symSize: 0x64 }
  - { offset: 0xD59CA6, size: 0x8, addend: 0x0, symName: __ZN6twitch13JsonBufReader10readDoubleERdRNSt3__112basic_stringIcNS2_11char_traitsIcEENS2_9allocatorIcEEEE, symObjAddr: 0x193008, symBinAddr: 0x18B34C, symSize: 0x64 }
  - { offset: 0xD59CF0, size: 0x8, addend: 0x0, symName: __ZN6twitch13JsonBufReader10readDoubleERdRNSt3__112basic_stringIcNS2_11char_traitsIcEENS2_9allocatorIcEEEE, symObjAddr: 0x193008, symBinAddr: 0x18B34C, symSize: 0x64 }
  - { offset: 0xD59E9C, size: 0x8, addend: 0x0, symName: __ZN6twitch13JsonBufReader8readDataEPvmRNSt3__112basic_stringIcNS2_11char_traitsIcEENS2_9allocatorIcEEEE, symObjAddr: 0x19306C, symBinAddr: 0x18B3B0, symSize: 0x94 }
  - { offset: 0xD1C29D, size: 0x8, addend: 0x0, symName: __ZN6twitch9analytics11SpadeClientD1Ev, symObjAddr: 0x18C3CC, symBinAddr: 0x184C70, symSize: 0x4 }
  - { offset: 0xD2064A, size: 0x8, addend: 0x0, symName: __ZN6twitch9analytics11SpadeClient11sendRequestERKNS_4JsonE, symObjAddr: 0x18CCD4, symBinAddr: 0x185534, symSize: 0x8F8 }
  - { offset: 0xD22E7A, size: 0x8, addend: 0x0, symName: '__ZNSt3__110__function6__funcIZN6twitch9analytics11SpadeClient11sendRequestERKNS2_4JsonEE3$_1NS_9allocatorIS8_EEFviRKNS_12basic_stringIcNS_11char_traitsIcEENS9_IcEEEEEED1Ev', symObjAddr: 0x18D5CC, symBinAddr: 0x185E2C, symSize: 0x4 }
  - { offset: 0xD2400C, size: 0x8, addend: 0x0, symName: __ZN6twitch9analytics11SpadeClientD1Ev, symObjAddr: 0x18C3CC, symBinAddr: 0x184C70, symSize: 0x4 }
  - { offset: 0xD24030, size: 0x8, addend: 0x0, symName: __ZN6twitch9analytics11SpadeClientD1Ev, symObjAddr: 0x18C3CC, symBinAddr: 0x184C70, symSize: 0x4 }
  - { offset: 0xD2403B, size: 0x8, addend: 0x0, symName: __ZN6twitch9analytics11SpadeClientD2Ev, symObjAddr: 0x18C3E4, symBinAddr: 0x184C88, symSize: 0x298 }
  - { offset: 0xD250B0, size: 0x8, addend: 0x0, symName: __ZN6twitch9analytics11SpadeClientD0Ev, symObjAddr: 0x18C3D0, symBinAddr: 0x184C74, symSize: 0x14 }
  - { offset: 0xD25B2C, size: 0x8, addend: 0x0, symName: __ZNSt3__112__hash_tableINS_17__hash_value_typeIiNS_10shared_ptrIN6twitch11HttpRequestEEEEENS_22__unordered_map_hasherIiS6_NS_4hashIiEENS_8equal_toIiEELb1EEENS_21__unordered_map_equalIiS6_SB_S9_Lb1EEENS_9allocatorIS6_EEE27__node_insert_multi_prepareEmRS6_, symObjAddr: 0x18C6B8, symBinAddr: 0x184F5C, symSize: 0x34C }
  - { offset: 0xD262F7, size: 0x8, addend: 0x0, symName: __ZNSt3__112__hash_tableINS_17__hash_value_typeIiNS_10shared_ptrIN6twitch11HttpRequestEEEEENS_22__unordered_map_hasherIiS6_NS_4hashIiEENS_8equal_toIiEELb1EEENS_21__unordered_map_equalIiS6_SB_S9_Lb1EEENS_9allocatorIS6_EEE27__node_insert_multi_performEPNS_11__hash_nodeIS6_PvEEPNS_16__hash_node_baseISL_EE, symObjAddr: 0x18CA04, symBinAddr: 0x1852A8, symSize: 0xE8 }
  - { offset: 0xD26302, size: 0x8, addend: 0x0, symName: __ZNSt3__112__hash_tableINS_17__hash_value_typeIiNS_10shared_ptrIN6twitch11HttpRequestEEEEENS_22__unordered_map_hasherIiS6_NS_4hashIiEENS_8equal_toIiEELb1EEENS_21__unordered_map_equalIiS6_SB_S9_Lb1EEENS_9allocatorIS6_EEE27__node_insert_multi_performEPNS_11__hash_nodeIS6_PvEEPNS_16__hash_node_baseISL_EE, symObjAddr: 0x18CA04, symBinAddr: 0x1852A8, symSize: 0xE8 }
  - { offset: 0xD2636E, size: 0x8, addend: 0x0, symName: __ZNSt3__112__hash_tableINS_17__hash_value_typeIiNS_10shared_ptrIN6twitch11HttpRequestEEEEENS_22__unordered_map_hasherIiS6_NS_4hashIiEENS_8equal_toIiEELb1EEENS_21__unordered_map_equalIiS6_SB_S9_Lb1EEENS_9allocatorIS6_EEE27__node_insert_multi_performEPNS_11__hash_nodeIS6_PvEEPNS_16__hash_node_baseISL_EE, symObjAddr: 0x18CA04, symBinAddr: 0x1852A8, symSize: 0xE8 }
  - { offset: 0xD2638C, size: 0x8, addend: 0x0, symName: __ZNSt3__112__hash_tableINS_17__hash_value_typeIiNS_10shared_ptrIN6twitch11HttpRequestEEEEENS_22__unordered_map_hasherIiS6_NS_4hashIiEENS_8equal_toIiEELb1EEENS_21__unordered_map_equalIiS6_SB_S9_Lb1EEENS_9allocatorIS6_EEE27__node_insert_multi_performEPNS_11__hash_nodeIS6_PvEEPNS_16__hash_node_baseISL_EE, symObjAddr: 0x18CA04, symBinAddr: 0x1852A8, symSize: 0xE8 }
  - { offset: 0xD265C7, size: 0x8, addend: 0x0, symName: __ZNSt3__112__hash_tableINS_17__hash_value_typeIiNS_10shared_ptrIN6twitch11HttpRequestEEEEENS_22__unordered_map_hasherIiS6_NS_4hashIiEENS_8equal_toIiEELb1EEENS_21__unordered_map_equalIiS6_SB_S9_Lb1EEENS_9allocatorIS6_EEE17__deallocate_nodeEPNS_16__hash_node_baseIPNS_11__hash_nodeIS6_PvEEEE, symObjAddr: 0x18C67C, symBinAddr: 0x184F20, symSize: 0x3C }
  - { offset: 0xD26B1C, size: 0x8, addend: 0x0, symName: __ZN6twitch9analytics11SpadeClient4sendERKNSt3__112basic_stringIcNS2_11char_traitsIcEENS2_9allocatorIcEEEERKNS2_3mapIS8_NS_4JsonENS2_4lessIS8_EENS6_INS2_4pairIS9_SC_EEEEEE, symObjAddr: 0x18CB30, symBinAddr: 0x185390, symSize: 0x1A4 }
  - { offset: 0xD2843A, size: 0x8, addend: 0x0, symName: '__ZNSt3__110__function6__funcIZN6twitch9analytics11SpadeClient11sendRequestERKNS2_4JsonEE3$_1NS_9allocatorIS8_EEFviRKNS_12basic_stringIcNS_11char_traitsIcEENS9_IcEEEEEED1Ev', symObjAddr: 0x18D5CC, symBinAddr: 0x185E2C, symSize: 0x4 }
  - { offset: 0xD28465, size: 0x8, addend: 0x0, symName: '__ZNSt3__110__function6__funcIZN6twitch9analytics11SpadeClient11sendRequestERKNS2_4JsonEE3$_1NS_9allocatorIS8_EEFviRKNS_12basic_stringIcNS_11char_traitsIcEENS9_IcEEEEEED0Ev', symObjAddr: 0x18D5D0, symBinAddr: 0x185E30, symSize: 0x4 }
  - { offset: 0xD28679, size: 0x8, addend: 0x0, symName: '__ZNKSt3__110__function6__funcIZN6twitch9analytics11SpadeClient11sendRequestERKNS2_4JsonEE3$_1NS_9allocatorIS8_EEFviRKNS_12basic_stringIcNS_11char_traitsIcEENS9_IcEEEEEE7__cloneEv', symObjAddr: 0x18D5D4, symBinAddr: 0x185E34, symSize: 0x38 }
  - { offset: 0xD289C6, size: 0x8, addend: 0x0, symName: '__ZNKSt3__110__function6__funcIZN6twitch9analytics11SpadeClient11sendRequestERKNS2_4JsonEE3$_1NS_9allocatorIS8_EEFviRKNS_12basic_stringIcNS_11char_traitsIcEENS9_IcEEEEEE7__cloneEPNS0_6__baseISI_EE', symObjAddr: 0x18D60C, symBinAddr: 0x185E6C, symSize: 0x18 }
  - { offset: 0xD289FF, size: 0x8, addend: 0x0, symName: '__ZNKSt3__110__function6__funcIZN6twitch9analytics11SpadeClient11sendRequestERKNS2_4JsonEE3$_1NS_9allocatorIS8_EEFviRKNS_12basic_stringIcNS_11char_traitsIcEENS9_IcEEEEEE7__cloneEPNS0_6__baseISI_EE', symObjAddr: 0x18D60C, symBinAddr: 0x185E6C, symSize: 0x18 }
  - { offset: 0xD28A31, size: 0x8, addend: 0x0, symName: '__ZNKSt3__110__function6__funcIZN6twitch9analytics11SpadeClient11sendRequestERKNS2_4JsonEE3$_1NS_9allocatorIS8_EEFviRKNS_12basic_stringIcNS_11char_traitsIcEENS9_IcEEEEEE7__cloneEPNS0_6__baseISI_EE', symObjAddr: 0x18D60C, symBinAddr: 0x185E6C, symSize: 0x18 }
  - { offset: 0xD28B5D, size: 0x8, addend: 0x0, symName: '__ZNSt3__110__function6__funcIZN6twitch9analytics11SpadeClient11sendRequestERKNS2_4JsonEE3$_1NS_9allocatorIS8_EEFviRKNS_12basic_stringIcNS_11char_traitsIcEENS9_IcEEEEEE7destroyEv', symObjAddr: 0x18D624, symBinAddr: 0x185E84, symSize: 0x4 }
  - { offset: 0xD28BB0, size: 0x8, addend: 0x0, symName: '__ZNSt3__110__function6__funcIZN6twitch9analytics11SpadeClient11sendRequestERKNS2_4JsonEE3$_1NS_9allocatorIS8_EEFviRKNS_12basic_stringIcNS_11char_traitsIcEENS9_IcEEEEEE18destroy_deallocateEv', symObjAddr: 0x18D628, symBinAddr: 0x185E88, symSize: 0x4 }
  - { offset: 0xD28BE7, size: 0x8, addend: 0x0, symName: '__ZNSt3__110__function6__funcIZN6twitch9analytics11SpadeClient11sendRequestERKNS2_4JsonEE3$_1NS_9allocatorIS8_EEFviRKNS_12basic_stringIcNS_11char_traitsIcEENS9_IcEEEEEE18destroy_deallocateEv', symObjAddr: 0x18D628, symBinAddr: 0x185E88, symSize: 0x4 }
  - { offset: 0xD28C0C, size: 0x8, addend: 0x0, symName: '__ZNSt3__110__function6__funcIZN6twitch9analytics11SpadeClient11sendRequestERKNS2_4JsonEE3$_1NS_9allocatorIS8_EEFviRKNS_12basic_stringIcNS_11char_traitsIcEENS9_IcEEEEEE18destroy_deallocateEv', symObjAddr: 0x18D628, symBinAddr: 0x185E88, symSize: 0x4 }
  - { offset: 0xD28C3B, size: 0x8, addend: 0x0, symName: '__ZNSt3__110__function6__funcIZN6twitch9analytics11SpadeClient11sendRequestERKNS2_4JsonEE3$_1NS_9allocatorIS8_EEFviRKNS_12basic_stringIcNS_11char_traitsIcEENS9_IcEEEEEE18destroy_deallocateEv', symObjAddr: 0x18D628, symBinAddr: 0x185E88, symSize: 0x4 }
  - { offset: 0xD28C64, size: 0x8, addend: 0x0, symName: '__ZNSt3__110__function6__funcIZN6twitch9analytics11SpadeClient11sendRequestERKNS2_4JsonEE3$_1NS_9allocatorIS8_EEFviRKNS_12basic_stringIcNS_11char_traitsIcEENS9_IcEEEEEE18destroy_deallocateEv', symObjAddr: 0x18D628, symBinAddr: 0x185E88, symSize: 0x4 }
  - { offset: 0xD28DC4, size: 0x8, addend: 0x0, symName: '__ZNSt3__110__function6__funcIZN6twitch9analytics11SpadeClient11sendRequestERKNS2_4JsonEE3$_1NS_9allocatorIS8_EEFviRKNS_12basic_stringIcNS_11char_traitsIcEENS9_IcEEEEEEclEOiSH_', symObjAddr: 0x18D62C, symBinAddr: 0x185E8C, symSize: 0xC8 }
  - { offset: 0xD29040, size: 0x8, addend: 0x0, symName: __ZN6twitch9analytics11SpadeClient6removeEi, symObjAddr: 0x18D6F4, symBinAddr: 0x185F54, symSize: 0x200 }
  - { offset: 0xD2970C, size: 0x8, addend: 0x0, symName: '__ZNSt3__110__function6__funcIZN6twitch9analytics11SpadeClient11sendRequestERKNS2_4JsonEE3$_0NS_9allocatorIS8_EEFvNS_10shared_ptrINS2_12HttpResponseEEEEED1Ev', symObjAddr: 0x18D8F4, symBinAddr: 0x186154, symSize: 0x4 }
  - { offset: 0xD29737, size: 0x8, addend: 0x0, symName: '__ZNSt3__110__function6__funcIZN6twitch9analytics11SpadeClient11sendRequestERKNS2_4JsonEE3$_0NS_9allocatorIS8_EEFvNS_10shared_ptrINS2_12HttpResponseEEEEED0Ev', symObjAddr: 0x18D8F8, symBinAddr: 0x186158, symSize: 0x4 }
  - { offset: 0xD2994B, size: 0x8, addend: 0x0, symName: '__ZNKSt3__110__function6__funcIZN6twitch9analytics11SpadeClient11sendRequestERKNS2_4JsonEE3$_0NS_9allocatorIS8_EEFvNS_10shared_ptrINS2_12HttpResponseEEEEE7__cloneEv', symObjAddr: 0x18D8FC, symBinAddr: 0x18615C, symSize: 0x38 }
  - { offset: 0xD29C98, size: 0x8, addend: 0x0, symName: '__ZNKSt3__110__function6__funcIZN6twitch9analytics11SpadeClient11sendRequestERKNS2_4JsonEE3$_0NS_9allocatorIS8_EEFvNS_10shared_ptrINS2_12HttpResponseEEEEE7__cloneEPNS0_6__baseISE_EE', symObjAddr: 0x18D934, symBinAddr: 0x186194, symSize: 0x18 }
  - { offset: 0xD29CD1, size: 0x8, addend: 0x0, symName: '__ZNKSt3__110__function6__funcIZN6twitch9analytics11SpadeClient11sendRequestERKNS2_4JsonEE3$_0NS_9allocatorIS8_EEFvNS_10shared_ptrINS2_12HttpResponseEEEEE7__cloneEPNS0_6__baseISE_EE', symObjAddr: 0x18D934, symBinAddr: 0x186194, symSize: 0x18 }
  - { offset: 0xD29D03, size: 0x8, addend: 0x0, symName: '__ZNKSt3__110__function6__funcIZN6twitch9analytics11SpadeClient11sendRequestERKNS2_4JsonEE3$_0NS_9allocatorIS8_EEFvNS_10shared_ptrINS2_12HttpResponseEEEEE7__cloneEPNS0_6__baseISE_EE', symObjAddr: 0x18D934, symBinAddr: 0x186194, symSize: 0x18 }
  - { offset: 0xD29E2F, size: 0x8, addend: 0x0, symName: '__ZNSt3__110__function6__funcIZN6twitch9analytics11SpadeClient11sendRequestERKNS2_4JsonEE3$_0NS_9allocatorIS8_EEFvNS_10shared_ptrINS2_12HttpResponseEEEEE7destroyEv', symObjAddr: 0x18D94C, symBinAddr: 0x1861AC, symSize: 0x4 }
  - { offset: 0xD29E82, size: 0x8, addend: 0x0, symName: '__ZNSt3__110__function6__funcIZN6twitch9analytics11SpadeClient11sendRequestERKNS2_4JsonEE3$_0NS_9allocatorIS8_EEFvNS_10shared_ptrINS2_12HttpResponseEEEEE18destroy_deallocateEv', symObjAddr: 0x18D950, symBinAddr: 0x1861B0, symSize: 0x4 }
  - { offset: 0xD29EB9, size: 0x8, addend: 0x0, symName: '__ZNSt3__110__function6__funcIZN6twitch9analytics11SpadeClient11sendRequestERKNS2_4JsonEE3$_0NS_9allocatorIS8_EEFvNS_10shared_ptrINS2_12HttpResponseEEEEE18destroy_deallocateEv', symObjAddr: 0x18D950, symBinAddr: 0x1861B0, symSize: 0x4 }
  - { offset: 0xD29EDE, size: 0x8, addend: 0x0, symName: '__ZNSt3__110__function6__funcIZN6twitch9analytics11SpadeClient11sendRequestERKNS2_4JsonEE3$_0NS_9allocatorIS8_EEFvNS_10shared_ptrINS2_12HttpResponseEEEEE18destroy_deallocateEv', symObjAddr: 0x18D950, symBinAddr: 0x1861B0, symSize: 0x4 }
  - { offset: 0xD29F0D, size: 0x8, addend: 0x0, symName: '__ZNSt3__110__function6__funcIZN6twitch9analytics11SpadeClient11sendRequestERKNS2_4JsonEE3$_0NS_9allocatorIS8_EEFvNS_10shared_ptrINS2_12HttpResponseEEEEE18destroy_deallocateEv', symObjAddr: 0x18D950, symBinAddr: 0x1861B0, symSize: 0x4 }
  - { offset: 0xD29F36, size: 0x8, addend: 0x0, symName: '__ZNSt3__110__function6__funcIZN6twitch9analytics11SpadeClient11sendRequestERKNS2_4JsonEE3$_0NS_9allocatorIS8_EEFvNS_10shared_ptrINS2_12HttpResponseEEEEE18destroy_deallocateEv', symObjAddr: 0x18D950, symBinAddr: 0x1861B0, symSize: 0x4 }
  - { offset: 0xD29FF3, size: 0x8, addend: 0x0, symName: '__ZNSt3__110__function6__funcIZN6twitch9analytics11SpadeClient11sendRequestERKNS2_4JsonEE3$_0NS_9allocatorIS8_EEFvNS_10shared_ptrINS2_12HttpResponseEEEEEclEOSD_', symObjAddr: 0x18D954, symBinAddr: 0x1861B4, symSize: 0x88 }
  - { offset: 0x9234FB, size: 0x8, addend: 0x0, symName: __ZNK6twitch3ios13ApplePlatform12getUserAgentEv, symObjAddr: 0xDB838, symBinAddr: 0xD75C8, symSize: 0x6C }
  - { offset: 0x92901A, size: 0x8, addend: 0x0, symName: __ZNSt3__115allocate_sharedB8nn180100IN6twitch3ios12GCDSchedulerENS_9allocatorIS3_EEJNS_12basic_stringIcNS_11char_traitsIcEENS4_IcEEEEU8__strongPU33objcproto22OS_dispatch_queue_attr8NSObjectRU8__strongPU28objcproto17OS_dispatch_queueSB_EvEENS_10shared_ptrIT_EERKT0_DpOT1_, symObjAddr: 0xDE030, symBinAddr: 0xD9DC0, symSize: 0x7C }
  - { offset: 0x92B30B, size: 0x8, addend: 0x0, symName: __ZN6twitch3ios13ApplePlatform22getDeviceConfigManagerEv, symObjAddr: 0xDBAE4, symBinAddr: 0xD7874, symSize: 0x5E8 }
  - { offset: 0x92CEB4, size: 0x8, addend: 0x0, symName: __ZN6twitch3ios13ApplePlatform29getDeviceConfigPropertyHolderERKNSt3__110shared_ptrINS_16SessionAnalyticsEEE, symObjAddr: 0xDC0CC, symBinAddr: 0xD7E5C, symSize: 0x86C }
  - { offset: 0x92E211, size: 0x8, addend: 0x0, symName: __ZNK6twitch3ios13ApplePlatform12getUserAgentEv, symObjAddr: 0xDB838, symBinAddr: 0xD75C8, symSize: 0x6C }
  - { offset: 0x92E426, size: 0x8, addend: 0x0, symName: __ZN6twitch3ios13ApplePlatform12getOsVersionEv, symObjAddr: 0xDDD84, symBinAddr: 0xD9B14, symSize: 0x1BC }
  - { offset: 0x92EF3E, size: 0x8, addend: 0x0, symName: __ZN6twitch3ios13ApplePlatform17getSchedulerModelEv, symObjAddr: 0xDB8A4, symBinAddr: 0xD7634, symSize: 0x24 }
  - { offset: 0x92EF62, size: 0x8, addend: 0x0, symName: __ZN6twitch3ios13ApplePlatform17getSchedulerModelEv, symObjAddr: 0xDB8A4, symBinAddr: 0xD7634, symSize: 0x24 }
  - { offset: 0x92EF8C, size: 0x8, addend: 0x0, symName: __ZN6twitch3ios13ApplePlatform17getSchedulerModelEv, symObjAddr: 0xDB8A4, symBinAddr: 0xD7634, symSize: 0x24 }
  - { offset: 0x92F037, size: 0x8, addend: 0x0, symName: __ZNK6twitch3ios13ApplePlatform21getPlatformPropertiesEv, symObjAddr: 0xDB8C8, symBinAddr: 0xD7658, symSize: 0xC }
  - { offset: 0x92F277, size: 0x8, addend: 0x0, symName: __ZNK6twitch3ios13ApplePlatform33createGlobalAnalyticsSinkProviderEv, symObjAddr: 0xDB8D4, symBinAddr: 0xD7664, symSize: 0x40 }
  - { offset: 0x92F96B, size: 0x8, addend: 0x0, symName: __ZN6twitch3ios13ApplePlatform19createRenderContextERKNSt3__110shared_ptrINS_9SchedulerEEEb, symObjAddr: 0xDB914, symBinAddr: 0xD76A4, symSize: 0x134 }
  - { offset: 0x93010C, size: 0x8, addend: 0x0, symName: __ZNK6twitch3ios13ApplePlatform7getNameEv, symObjAddr: 0xDBA48, symBinAddr: 0xD77D8, symSize: 0x10 }
  - { offset: 0x93042D, size: 0x8, addend: 0x0, symName: __ZNK6twitch3ios13ApplePlatform13createEncryptEv, symObjAddr: 0xDBA58, symBinAddr: 0xD77E8, symSize: 0x8C }
  - { offset: 0x931547, size: 0x8, addend: 0x0, symName: '__ZNKSt3__110__function6__funcIZN6twitch3ios13ApplePlatform22getDeviceConfigManagerEvE3$_1NS_9allocatorIS5_EEFvRKNS2_19DeviceConfigMetricsEEE7__cloneEPNS0_6__baseISB_EE', symObjAddr: 0xDD404, symBinAddr: 0xD9194, symSize: 0x10 }
  - { offset: 0x93157E, size: 0x8, addend: 0x0, symName: '__ZNKSt3__110__function6__funcIZN6twitch3ios13ApplePlatform22getDeviceConfigManagerEvE3$_1NS_9allocatorIS5_EEFvRKNS2_19DeviceConfigMetricsEEE7__cloneEPNS0_6__baseISB_EE', symObjAddr: 0xDD404, symBinAddr: 0xD9194, symSize: 0x10 }
  - { offset: 0x93159C, size: 0x8, addend: 0x0, symName: '__ZNKSt3__110__function6__funcIZN6twitch3ios13ApplePlatform22getDeviceConfigManagerEvE3$_1NS_9allocatorIS5_EEFvRKNS2_19DeviceConfigMetricsEEE7__cloneEPNS0_6__baseISB_EE', symObjAddr: 0xDD404, symBinAddr: 0xD9194, symSize: 0x10 }
  - { offset: 0x9315BD, size: 0x8, addend: 0x0, symName: __ZN6twitch3ios13ApplePlatform29getDeviceConfigPropertyHolderERKNSt3__110shared_ptrINS_16SessionAnalyticsEEE, symObjAddr: 0xDC0CC, symBinAddr: 0xD7E5C, symSize: 0x86C }
  - { offset: 0x933EA4, size: 0x8, addend: 0x0, symName: __ZN6twitch3ios13ApplePlatform29createDeviceConfigPersistenceEv, symObjAddr: 0xDC938, symBinAddr: 0xD86C8, symSize: 0xFC }
  - { offset: 0x93459E, size: 0x8, addend: 0x0, symName: __ZNK6twitch3ios13ApplePlatform18createAudioSessionEb, symObjAddr: 0xDCA34, symBinAddr: 0xD87C4, symSize: 0x54 }
  - { offset: 0x934AFB, size: 0x8, addend: 0x0, symName: __ZNK6twitch3ios13ApplePlatform12readResourceERKNSt3__112basic_stringIcNS2_11char_traitsIcEENS2_9allocatorIcEEEE, symObjAddr: 0xDCA88, symBinAddr: 0xD8818, symSize: 0x16C }
  - { offset: 0x9355C5, size: 0x8, addend: 0x0, symName: __ZNK6twitch3ios13ApplePlatform10getWakeupsEv, symObjAddr: 0xDCBF4, symBinAddr: 0xD8984, symSize: 0x78 }
  - { offset: 0x9358F6, size: 0x8, addend: 0x0, symName: __ZNK6twitch3ios13ApplePlatform17createPerfMonitorEv, symObjAddr: 0xDCC6C, symBinAddr: 0xD89FC, symSize: 0x60 }
  - { offset: 0x935B5F, size: 0x8, addend: 0x0, symName: __ZTv0_n32_NK6twitch3ios13ApplePlatform10getWakeupsEv, symObjAddr: 0xDCCCC, symBinAddr: 0xD8A5C, symSize: 0x4 }
  - { offset: 0x935B79, size: 0x8, addend: 0x0, symName: __ZTv0_n32_NK6twitch3ios13ApplePlatform10getWakeupsEv, symObjAddr: 0xDCCCC, symBinAddr: 0xD8A5C, symSize: 0x4 }
  - { offset: 0x935B84, size: 0x8, addend: 0x0, symName: __ZTv0_n40_NK6twitch3ios13ApplePlatform17createPerfMonitorEv, symObjAddr: 0xDCCD0, symBinAddr: 0xD8A60, symSize: 0x4 }
  - { offset: 0x935B9E, size: 0x8, addend: 0x0, symName: __ZTv0_n40_NK6twitch3ios13ApplePlatform17createPerfMonitorEv, symObjAddr: 0xDCCD0, symBinAddr: 0xD8A60, symSize: 0x4 }
  - { offset: 0x935BA9, size: 0x8, addend: 0x0, symName: __ZTv0_n48_NK6twitch3ios13ApplePlatform12readResourceERKNSt3__112basic_stringIcNS2_11char_traitsIcEENS2_9allocatorIcEEEE, symObjAddr: 0xDCCD4, symBinAddr: 0xD8A64, symSize: 0x4 }
  - { offset: 0x935BC3, size: 0x8, addend: 0x0, symName: __ZTv0_n48_NK6twitch3ios13ApplePlatform12readResourceERKNSt3__112basic_stringIcNS2_11char_traitsIcEENS2_9allocatorIcEEEE, symObjAddr: 0xDCCD4, symBinAddr: 0xD8A64, symSize: 0x4 }
  - { offset: 0x935BEE, size: 0x8, addend: 0x0, symName: __ZTv0_n48_NK6twitch3ios13ApplePlatform18createAudioSessionEb, symObjAddr: 0xDCCD8, symBinAddr: 0xD8A68, symSize: 0x5C }
  - { offset: 0x935E48, size: 0x8, addend: 0x0, symName: __ZNSt3__120__shared_ptr_emplaceIN6twitch3ios28AppleDeviceConfigPersistenceENS_9allocatorIS3_EEED1Ev, symObjAddr: 0xDCD34, symBinAddr: 0xD8AC4, symSize: 0x10 }
  - { offset: 0x935E6C, size: 0x8, addend: 0x0, symName: __ZNSt3__120__shared_ptr_emplaceIN6twitch3ios28AppleDeviceConfigPersistenceENS_9allocatorIS3_EEED1Ev, symObjAddr: 0xDCD34, symBinAddr: 0xD8AC4, symSize: 0x10 }
  - { offset: 0x935EA3, size: 0x8, addend: 0x0, symName: __ZNSt3__120__shared_ptr_emplaceIN6twitch3ios28AppleDeviceConfigPersistenceENS_9allocatorIS3_EEED0Ev, symObjAddr: 0xDCD44, symBinAddr: 0xD8AD4, symSize: 0x20 }
  - { offset: 0x935FA6, size: 0x8, addend: 0x0, symName: __ZNSt3__120__shared_ptr_emplaceIN6twitch3ios28AppleDeviceConfigPersistenceENS_9allocatorIS3_EEE16__on_zero_sharedEv, symObjAddr: 0xDCD64, symBinAddr: 0xD8AF4, symSize: 0x28 }
  - { offset: 0x9360FE, size: 0x8, addend: 0x0, symName: __ZNSt3__120__shared_ptr_emplaceIN6twitch3ios28AppleDeviceConfigPersistenceENS_9allocatorIS3_EEE21__on_zero_shared_weakEv, symObjAddr: 0xDCD8C, symBinAddr: 0xD8B1C, symSize: 0x4 }
  - { offset: 0x936133, size: 0x8, addend: 0x0, symName: __ZNSt3__120__shared_ptr_emplaceIN6twitch3ios28AppleDeviceConfigPersistenceENS_9allocatorIS3_EEE21__on_zero_shared_weakEv, symObjAddr: 0xDCD8C, symBinAddr: 0xD8B1C, symSize: 0x4 }
  - { offset: 0x936158, size: 0x8, addend: 0x0, symName: __ZNSt3__120__shared_ptr_emplaceIN6twitch3ios28AppleDeviceConfigPersistenceENS_9allocatorIS3_EEE21__on_zero_shared_weakEv, symObjAddr: 0xDCD8C, symBinAddr: 0xD8B1C, symSize: 0x4 }
  - { offset: 0x93617D, size: 0x8, addend: 0x0, symName: __ZNSt3__120__shared_ptr_emplaceIN6twitch3ios28AppleDeviceConfigPersistenceENS_9allocatorIS3_EEE21__on_zero_shared_weakEv, symObjAddr: 0xDCD8C, symBinAddr: 0xD8B1C, symSize: 0x4 }
  - { offset: 0x9361AD, size: 0x8, addend: 0x0, symName: __ZNSt3__120__shared_ptr_emplaceIN6twitch3ios28AppleDeviceConfigPersistenceENS_9allocatorIS3_EEE21__on_zero_shared_weakEv, symObjAddr: 0xDCD8C, symBinAddr: 0xD8B1C, symSize: 0x4 }
  - { offset: 0x9361D7, size: 0x8, addend: 0x0, symName: __ZNSt3__120__shared_ptr_emplaceIN6twitch3ios28AppleDeviceConfigPersistenceENS_9allocatorIS3_EEE21__on_zero_shared_weakEv, symObjAddr: 0xDCD8C, symBinAddr: 0xD8B1C, symSize: 0x4 }
  - { offset: 0x936204, size: 0x8, addend: 0x0, symName: '__ZNSt3__110__function6__funcIZN6twitch3ios13ApplePlatform22getDeviceConfigManagerEvE3$_2NS_9allocatorIS5_EEFPNS2_19DeviceConfigManagerERKNS2_19DeviceConfigOptionsEEED1Ev', symObjAddr: 0xDCD90, symBinAddr: 0xD8B20, symSize: 0x4 }
  - { offset: 0x93622F, size: 0x8, addend: 0x0, symName: '__ZNSt3__110__function6__funcIZN6twitch3ios13ApplePlatform22getDeviceConfigManagerEvE3$_2NS_9allocatorIS5_EEFPNS2_19DeviceConfigManagerERKNS2_19DeviceConfigOptionsEEED0Ev', symObjAddr: 0xDCD94, symBinAddr: 0xD8B24, symSize: 0x4 }
  - { offset: 0x936443, size: 0x8, addend: 0x0, symName: '__ZNKSt3__110__function6__funcIZN6twitch3ios13ApplePlatform22getDeviceConfigManagerEvE3$_2NS_9allocatorIS5_EEFPNS2_19DeviceConfigManagerERKNS2_19DeviceConfigOptionsEEE7__cloneEv', symObjAddr: 0xDCD98, symBinAddr: 0xD8B28, symSize: 0x34 }
  - { offset: 0x93675E, size: 0x8, addend: 0x0, symName: '__ZNKSt3__110__function6__funcIZN6twitch3ios13ApplePlatform22getDeviceConfigManagerEvE3$_2NS_9allocatorIS5_EEFPNS2_19DeviceConfigManagerERKNS2_19DeviceConfigOptionsEEE7__cloneEPNS0_6__baseISD_EE', symObjAddr: 0xDCDCC, symBinAddr: 0xD8B5C, symSize: 0x14 }
  - { offset: 0x936797, size: 0x8, addend: 0x0, symName: '__ZNKSt3__110__function6__funcIZN6twitch3ios13ApplePlatform22getDeviceConfigManagerEvE3$_2NS_9allocatorIS5_EEFPNS2_19DeviceConfigManagerERKNS2_19DeviceConfigOptionsEEE7__cloneEPNS0_6__baseISD_EE', symObjAddr: 0xDCDCC, symBinAddr: 0xD8B5C, symSize: 0x14 }
  - { offset: 0x9367C9, size: 0x8, addend: 0x0, symName: '__ZNKSt3__110__function6__funcIZN6twitch3ios13ApplePlatform22getDeviceConfigManagerEvE3$_2NS_9allocatorIS5_EEFPNS2_19DeviceConfigManagerERKNS2_19DeviceConfigOptionsEEE7__cloneEPNS0_6__baseISD_EE', symObjAddr: 0xDCDCC, symBinAddr: 0xD8B5C, symSize: 0x14 }
  - { offset: 0x9367FB, size: 0x8, addend: 0x0, symName: '__ZNKSt3__110__function6__funcIZN6twitch3ios13ApplePlatform22getDeviceConfigManagerEvE3$_2NS_9allocatorIS5_EEFPNS2_19DeviceConfigManagerERKNS2_19DeviceConfigOptionsEEE7__cloneEPNS0_6__baseISD_EE', symObjAddr: 0xDCDCC, symBinAddr: 0xD8B5C, symSize: 0x14 }
  - { offset: 0x936811, size: 0x8, addend: 0x0, symName: '__ZNKSt3__110__function6__funcIZN6twitch3ios13ApplePlatform22getDeviceConfigManagerEvE3$_2NS_9allocatorIS5_EEFPNS2_19DeviceConfigManagerERKNS2_19DeviceConfigOptionsEEE7__cloneEPNS0_6__baseISD_EE', symObjAddr: 0xDCDCC, symBinAddr: 0xD8B5C, symSize: 0x14 }
  - { offset: 0x936826, size: 0x8, addend: 0x0, symName: '__ZNKSt3__110__function6__funcIZN6twitch3ios13ApplePlatform22getDeviceConfigManagerEvE3$_2NS_9allocatorIS5_EEFPNS2_19DeviceConfigManagerERKNS2_19DeviceConfigOptionsEEE7__cloneEPNS0_6__baseISD_EE', symObjAddr: 0xDCDCC, symBinAddr: 0xD8B5C, symSize: 0x14 }
  - { offset: 0x93683B, size: 0x8, addend: 0x0, symName: '__ZNKSt3__110__function6__funcIZN6twitch3ios13ApplePlatform22getDeviceConfigManagerEvE3$_2NS_9allocatorIS5_EEFPNS2_19DeviceConfigManagerERKNS2_19DeviceConfigOptionsEEE7__cloneEPNS0_6__baseISD_EE', symObjAddr: 0xDCDCC, symBinAddr: 0xD8B5C, symSize: 0x14 }
  - { offset: 0x936850, size: 0x8, addend: 0x0, symName: '__ZNKSt3__110__function6__funcIZN6twitch3ios13ApplePlatform22getDeviceConfigManagerEvE3$_2NS_9allocatorIS5_EEFPNS2_19DeviceConfigManagerERKNS2_19DeviceConfigOptionsEEE7__cloneEPNS0_6__baseISD_EE', symObjAddr: 0xDCDCC, symBinAddr: 0xD8B5C, symSize: 0x14 }
  - { offset: 0x936868, size: 0x8, addend: 0x0, symName: '__ZNSt3__110__function6__funcIZN6twitch3ios13ApplePlatform22getDeviceConfigManagerEvE3$_2NS_9allocatorIS5_EEFPNS2_19DeviceConfigManagerERKNS2_19DeviceConfigOptionsEEE7destroyEv', symObjAddr: 0xDCDE0, symBinAddr: 0xD8B70, symSize: 0x4 }
  - { offset: 0x9368BB, size: 0x8, addend: 0x0, symName: '__ZNSt3__110__function6__funcIZN6twitch3ios13ApplePlatform22getDeviceConfigManagerEvE3$_2NS_9allocatorIS5_EEFPNS2_19DeviceConfigManagerERKNS2_19DeviceConfigOptionsEEE18destroy_deallocateEv', symObjAddr: 0xDCDE4, symBinAddr: 0xD8B74, symSize: 0x4 }
  - { offset: 0x9368F2, size: 0x8, addend: 0x0, symName: '__ZNSt3__110__function6__funcIZN6twitch3ios13ApplePlatform22getDeviceConfigManagerEvE3$_2NS_9allocatorIS5_EEFPNS2_19DeviceConfigManagerERKNS2_19DeviceConfigOptionsEEE18destroy_deallocateEv', symObjAddr: 0xDCDE4, symBinAddr: 0xD8B74, symSize: 0x4 }
  - { offset: 0x936917, size: 0x8, addend: 0x0, symName: '__ZNSt3__110__function6__funcIZN6twitch3ios13ApplePlatform22getDeviceConfigManagerEvE3$_2NS_9allocatorIS5_EEFPNS2_19DeviceConfigManagerERKNS2_19DeviceConfigOptionsEEE18destroy_deallocateEv', symObjAddr: 0xDCDE4, symBinAddr: 0xD8B74, symSize: 0x4 }
  - { offset: 0x936946, size: 0x8, addend: 0x0, symName: '__ZNSt3__110__function6__funcIZN6twitch3ios13ApplePlatform22getDeviceConfigManagerEvE3$_2NS_9allocatorIS5_EEFPNS2_19DeviceConfigManagerERKNS2_19DeviceConfigOptionsEEE18destroy_deallocateEv', symObjAddr: 0xDCDE4, symBinAddr: 0xD8B74, symSize: 0x4 }
  - { offset: 0x93696F, size: 0x8, addend: 0x0, symName: '__ZNSt3__110__function6__funcIZN6twitch3ios13ApplePlatform22getDeviceConfigManagerEvE3$_2NS_9allocatorIS5_EEFPNS2_19DeviceConfigManagerERKNS2_19DeviceConfigOptionsEEE18destroy_deallocateEv', symObjAddr: 0xDCDE4, symBinAddr: 0xD8B74, symSize: 0x4 }
  - { offset: 0x936E72, size: 0x8, addend: 0x0, symName: '__ZNSt3__110__function6__funcIZN6twitch3ios13ApplePlatform22getDeviceConfigManagerEvE3$_2NS_9allocatorIS5_EEFPNS2_19DeviceConfigManagerERKNS2_19DeviceConfigOptionsEEEclESC_', symObjAddr: 0xDCDE8, symBinAddr: 0xD8B78, symSize: 0x5F0 }
  - { offset: 0x9385B3, size: 0x8, addend: 0x0, symName: '__ZNSt3__110__function6__funcIZN6twitch3ios13ApplePlatform22getDeviceConfigManagerEvE3$_1NS_9allocatorIS5_EEFvRKNS2_19DeviceConfigMetricsEEED1Ev', symObjAddr: 0xDD3D8, symBinAddr: 0xD9168, symSize: 0x4 }
  - { offset: 0x9385DE, size: 0x8, addend: 0x0, symName: '__ZNSt3__110__function6__funcIZN6twitch3ios13ApplePlatform22getDeviceConfigManagerEvE3$_1NS_9allocatorIS5_EEFvRKNS2_19DeviceConfigMetricsEEED0Ev', symObjAddr: 0xDD3DC, symBinAddr: 0xD916C, symSize: 0x4 }
  - { offset: 0x938699, size: 0x8, addend: 0x0, symName: '__ZNKSt3__110__function6__funcIZN6twitch3ios13ApplePlatform22getDeviceConfigManagerEvE3$_1NS_9allocatorIS5_EEFvRKNS2_19DeviceConfigMetricsEEE7__cloneEv', symObjAddr: 0xDD3E0, symBinAddr: 0xD9170, symSize: 0x24 }
  - { offset: 0x9387EF, size: 0x8, addend: 0x0, symName: '__ZNSt3__110__function6__funcIZN6twitch3ios13ApplePlatform22getDeviceConfigManagerEvE3$_1NS_9allocatorIS5_EEFvRKNS2_19DeviceConfigMetricsEEE7destroyEv', symObjAddr: 0xDD414, symBinAddr: 0xD91A4, symSize: 0x4 }
  - { offset: 0x938842, size: 0x8, addend: 0x0, symName: '__ZNSt3__110__function6__funcIZN6twitch3ios13ApplePlatform22getDeviceConfigManagerEvE3$_1NS_9allocatorIS5_EEFvRKNS2_19DeviceConfigMetricsEEE18destroy_deallocateEv', symObjAddr: 0xDD418, symBinAddr: 0xD91A8, symSize: 0x4 }
  - { offset: 0x938879, size: 0x8, addend: 0x0, symName: '__ZNSt3__110__function6__funcIZN6twitch3ios13ApplePlatform22getDeviceConfigManagerEvE3$_1NS_9allocatorIS5_EEFvRKNS2_19DeviceConfigMetricsEEE18destroy_deallocateEv', symObjAddr: 0xDD418, symBinAddr: 0xD91A8, symSize: 0x4 }
  - { offset: 0x93889E, size: 0x8, addend: 0x0, symName: '__ZNSt3__110__function6__funcIZN6twitch3ios13ApplePlatform22getDeviceConfigManagerEvE3$_1NS_9allocatorIS5_EEFvRKNS2_19DeviceConfigMetricsEEE18destroy_deallocateEv', symObjAddr: 0xDD418, symBinAddr: 0xD91A8, symSize: 0x4 }
  - { offset: 0x9388CD, size: 0x8, addend: 0x0, symName: '__ZNSt3__110__function6__funcIZN6twitch3ios13ApplePlatform22getDeviceConfigManagerEvE3$_1NS_9allocatorIS5_EEFvRKNS2_19DeviceConfigMetricsEEE18destroy_deallocateEv', symObjAddr: 0xDD418, symBinAddr: 0xD91A8, symSize: 0x4 }
  - { offset: 0x9388F6, size: 0x8, addend: 0x0, symName: '__ZNSt3__110__function6__funcIZN6twitch3ios13ApplePlatform22getDeviceConfigManagerEvE3$_1NS_9allocatorIS5_EEFvRKNS2_19DeviceConfigMetricsEEE18destroy_deallocateEv', symObjAddr: 0xDD418, symBinAddr: 0xD91A8, symSize: 0x4 }
  - { offset: 0x9389A8, size: 0x8, addend: 0x0, symName: '__ZNSt3__110__function6__funcIZN6twitch3ios13ApplePlatform22getDeviceConfigManagerEvE3$_1NS_9allocatorIS5_EEFvRKNS2_19DeviceConfigMetricsEEEclESA_', symObjAddr: 0xDD41C, symBinAddr: 0xD91AC, symSize: 0x7AC }
  - { offset: 0x93CF30, size: 0x8, addend: 0x0, symName: '__ZNSt3__110__function6__funcIZN6twitch3ios13ApplePlatform22getDeviceConfigManagerEvE3$_0NS_9allocatorIS5_EEFbvEED1Ev', symObjAddr: 0xDDBC8, symBinAddr: 0xD9958, symSize: 0x4 }
  - { offset: 0x93CF5B, size: 0x8, addend: 0x0, symName: '__ZNSt3__110__function6__funcIZN6twitch3ios13ApplePlatform22getDeviceConfigManagerEvE3$_0NS_9allocatorIS5_EEFbvEED0Ev', symObjAddr: 0xDDBCC, symBinAddr: 0xD995C, symSize: 0x4 }
  - { offset: 0x93D016, size: 0x8, addend: 0x0, symName: '__ZNKSt3__110__function6__funcIZN6twitch3ios13ApplePlatform22getDeviceConfigManagerEvE3$_0NS_9allocatorIS5_EEFbvEE7__cloneEv', symObjAddr: 0xDDBD0, symBinAddr: 0xD9960, symSize: 0x24 }
  - { offset: 0x93D16C, size: 0x8, addend: 0x0, symName: '__ZNKSt3__110__function6__funcIZN6twitch3ios13ApplePlatform22getDeviceConfigManagerEvE3$_0NS_9allocatorIS5_EEFbvEE7__cloneEPNS0_6__baseIS8_EE', symObjAddr: 0xDDBF4, symBinAddr: 0xD9984, symSize: 0x10 }
  - { offset: 0x93D1A3, size: 0x8, addend: 0x0, symName: '__ZNKSt3__110__function6__funcIZN6twitch3ios13ApplePlatform22getDeviceConfigManagerEvE3$_0NS_9allocatorIS5_EEFbvEE7__cloneEPNS0_6__baseIS8_EE', symObjAddr: 0xDDBF4, symBinAddr: 0xD9984, symSize: 0x10 }
  - { offset: 0x93D1C1, size: 0x8, addend: 0x0, symName: '__ZNKSt3__110__function6__funcIZN6twitch3ios13ApplePlatform22getDeviceConfigManagerEvE3$_0NS_9allocatorIS5_EEFbvEE7__cloneEPNS0_6__baseIS8_EE', symObjAddr: 0xDDBF4, symBinAddr: 0xD9984, symSize: 0x10 }
  - { offset: 0x93D1DE, size: 0x8, addend: 0x0, symName: '__ZNSt3__110__function6__funcIZN6twitch3ios13ApplePlatform22getDeviceConfigManagerEvE3$_0NS_9allocatorIS5_EEFbvEE7destroyEv', symObjAddr: 0xDDC04, symBinAddr: 0xD9994, symSize: 0x4 }
  - { offset: 0x93D231, size: 0x8, addend: 0x0, symName: '__ZNSt3__110__function6__funcIZN6twitch3ios13ApplePlatform22getDeviceConfigManagerEvE3$_0NS_9allocatorIS5_EEFbvEE18destroy_deallocateEv', symObjAddr: 0xDDC08, symBinAddr: 0xD9998, symSize: 0x4 }
  - { offset: 0x93D268, size: 0x8, addend: 0x0, symName: '__ZNSt3__110__function6__funcIZN6twitch3ios13ApplePlatform22getDeviceConfigManagerEvE3$_0NS_9allocatorIS5_EEFbvEE18destroy_deallocateEv', symObjAddr: 0xDDC08, symBinAddr: 0xD9998, symSize: 0x4 }
  - { offset: 0x93D28D, size: 0x8, addend: 0x0, symName: '__ZNSt3__110__function6__funcIZN6twitch3ios13ApplePlatform22getDeviceConfigManagerEvE3$_0NS_9allocatorIS5_EEFbvEE18destroy_deallocateEv', symObjAddr: 0xDDC08, symBinAddr: 0xD9998, symSize: 0x4 }
  - { offset: 0x93D2BC, size: 0x8, addend: 0x0, symName: '__ZNSt3__110__function6__funcIZN6twitch3ios13ApplePlatform22getDeviceConfigManagerEvE3$_0NS_9allocatorIS5_EEFbvEE18destroy_deallocateEv', symObjAddr: 0xDDC08, symBinAddr: 0xD9998, symSize: 0x4 }
  - { offset: 0x93D2E5, size: 0x8, addend: 0x0, symName: '__ZNSt3__110__function6__funcIZN6twitch3ios13ApplePlatform22getDeviceConfigManagerEvE3$_0NS_9allocatorIS5_EEFbvEE18destroy_deallocateEv', symObjAddr: 0xDDC08, symBinAddr: 0xD9998, symSize: 0x4 }
  - { offset: 0x93D36D, size: 0x8, addend: 0x0, symName: '__ZNSt3__110__function6__funcIZN6twitch3ios13ApplePlatform22getDeviceConfigManagerEvE3$_0NS_9allocatorIS5_EEFbvEEclEv', symObjAddr: 0xDDC0C, symBinAddr: 0xD999C, symSize: 0x3C }
  - { offset: 0x93D505, size: 0x8, addend: 0x0, symName: __ZNSt3__120__shared_ptr_emplaceIN6twitch19CommonCryptoEncryptENS_9allocatorIS2_EEED1Ev, symObjAddr: 0xDDC48, symBinAddr: 0xD99D8, symSize: 0x10 }
  - { offset: 0x93D529, size: 0x8, addend: 0x0, symName: __ZNSt3__120__shared_ptr_emplaceIN6twitch19CommonCryptoEncryptENS_9allocatorIS2_EEED1Ev, symObjAddr: 0xDDC48, symBinAddr: 0xD99D8, symSize: 0x10 }
  - { offset: 0x93D560, size: 0x8, addend: 0x0, symName: __ZNSt3__120__shared_ptr_emplaceIN6twitch19CommonCryptoEncryptENS_9allocatorIS2_EEED0Ev, symObjAddr: 0xDDC58, symBinAddr: 0xD99E8, symSize: 0x20 }
  - { offset: 0x93D686, size: 0x8, addend: 0x0, symName: __ZNSt3__120__shared_ptr_emplaceIN6twitch19CommonCryptoEncryptENS_9allocatorIS2_EEE16__on_zero_sharedEv, symObjAddr: 0xDDC78, symBinAddr: 0xD9A08, symSize: 0x20 }
  - { offset: 0x93D8AC, size: 0x8, addend: 0x0, symName: __ZNSt3__120__shared_ptr_emplaceIN6twitch19CommonCryptoEncryptENS_9allocatorIS2_EEE21__on_zero_shared_weakEv, symObjAddr: 0xDDC98, symBinAddr: 0xD9A28, symSize: 0x4 }
  - { offset: 0x93D8E1, size: 0x8, addend: 0x0, symName: __ZNSt3__120__shared_ptr_emplaceIN6twitch19CommonCryptoEncryptENS_9allocatorIS2_EEE21__on_zero_shared_weakEv, symObjAddr: 0xDDC98, symBinAddr: 0xD9A28, symSize: 0x4 }
  - { offset: 0x93D906, size: 0x8, addend: 0x0, symName: __ZNSt3__120__shared_ptr_emplaceIN6twitch19CommonCryptoEncryptENS_9allocatorIS2_EEE21__on_zero_shared_weakEv, symObjAddr: 0xDDC98, symBinAddr: 0xD9A28, symSize: 0x4 }
  - { offset: 0x93D92B, size: 0x8, addend: 0x0, symName: __ZNSt3__120__shared_ptr_emplaceIN6twitch19CommonCryptoEncryptENS_9allocatorIS2_EEE21__on_zero_shared_weakEv, symObjAddr: 0xDDC98, symBinAddr: 0xD9A28, symSize: 0x4 }
  - { offset: 0x93D95B, size: 0x8, addend: 0x0, symName: __ZNSt3__120__shared_ptr_emplaceIN6twitch19CommonCryptoEncryptENS_9allocatorIS2_EEE21__on_zero_shared_weakEv, symObjAddr: 0xDDC98, symBinAddr: 0xD9A28, symSize: 0x4 }
  - { offset: 0x93D985, size: 0x8, addend: 0x0, symName: __ZNSt3__120__shared_ptr_emplaceIN6twitch19CommonCryptoEncryptENS_9allocatorIS2_EEE21__on_zero_shared_weakEv, symObjAddr: 0xDDC98, symBinAddr: 0xD9A28, symSize: 0x4 }
  - { offset: 0x93D9CE, size: 0x8, addend: 0x0, symName: __ZNSt3__120__shared_ptr_emplaceIN6twitch3ios22CoreImageRenderContextENS_9allocatorIS3_EEED1Ev, symObjAddr: 0xDDC9C, symBinAddr: 0xD9A2C, symSize: 0x10 }
  - { offset: 0x93D9F2, size: 0x8, addend: 0x0, symName: __ZNSt3__120__shared_ptr_emplaceIN6twitch3ios22CoreImageRenderContextENS_9allocatorIS3_EEED1Ev, symObjAddr: 0xDDC9C, symBinAddr: 0xD9A2C, symSize: 0x10 }
  - { offset: 0x93DA29, size: 0x8, addend: 0x0, symName: __ZNSt3__120__shared_ptr_emplaceIN6twitch3ios22CoreImageRenderContextENS_9allocatorIS3_EEED0Ev, symObjAddr: 0xDDCAC, symBinAddr: 0xD9A3C, symSize: 0x20 }
  - { offset: 0x93DB2A, size: 0x8, addend: 0x0, symName: __ZNSt3__120__shared_ptr_emplaceIN6twitch3ios22CoreImageRenderContextENS_9allocatorIS3_EEE16__on_zero_sharedEv, symObjAddr: 0xDDCCC, symBinAddr: 0xD9A5C, symSize: 0x8 }
  - { offset: 0x93DB54, size: 0x8, addend: 0x0, symName: __ZNSt3__120__shared_ptr_emplaceIN6twitch3ios22CoreImageRenderContextENS_9allocatorIS3_EEE16__on_zero_sharedEv, symObjAddr: 0xDDCCC, symBinAddr: 0xD9A5C, symSize: 0x8 }
  - { offset: 0x93DB74, size: 0x8, addend: 0x0, symName: __ZNSt3__120__shared_ptr_emplaceIN6twitch3ios22CoreImageRenderContextENS_9allocatorIS3_EEE16__on_zero_sharedEv, symObjAddr: 0xDDCCC, symBinAddr: 0xD9A5C, symSize: 0x8 }
  - { offset: 0x93DBFC, size: 0x8, addend: 0x0, symName: __ZN6twitch3ios22CoreImageRenderContextD2Ev, symObjAddr: 0xDDCD8, symBinAddr: 0xD9A68, symSize: 0xAC }
  - { offset: 0x93E1FD, size: 0x8, addend: 0x0, symName: __ZNSt3__120__shared_ptr_emplaceIN6twitch3ios22CoreImageRenderContextENS_9allocatorIS3_EEE21__on_zero_shared_weakEv, symObjAddr: 0xDDCD4, symBinAddr: 0xD9A64, symSize: 0x4 }
  - { offset: 0x93E232, size: 0x8, addend: 0x0, symName: __ZNSt3__120__shared_ptr_emplaceIN6twitch3ios22CoreImageRenderContextENS_9allocatorIS3_EEE21__on_zero_shared_weakEv, symObjAddr: 0xDDCD4, symBinAddr: 0xD9A64, symSize: 0x4 }
  - { offset: 0x93E257, size: 0x8, addend: 0x0, symName: __ZNSt3__120__shared_ptr_emplaceIN6twitch3ios22CoreImageRenderContextENS_9allocatorIS3_EEE21__on_zero_shared_weakEv, symObjAddr: 0xDDCD4, symBinAddr: 0xD9A64, symSize: 0x4 }
  - { offset: 0x93E27C, size: 0x8, addend: 0x0, symName: __ZNSt3__120__shared_ptr_emplaceIN6twitch3ios22CoreImageRenderContextENS_9allocatorIS3_EEE21__on_zero_shared_weakEv, symObjAddr: 0xDDCD4, symBinAddr: 0xD9A64, symSize: 0x4 }
  - { offset: 0x93E2AD, size: 0x8, addend: 0x0, symName: __ZNSt3__120__shared_ptr_emplaceIN6twitch3ios22CoreImageRenderContextENS_9allocatorIS3_EEE21__on_zero_shared_weakEv, symObjAddr: 0xDDCD4, symBinAddr: 0xD9A64, symSize: 0x4 }
  - { offset: 0x93E2D8, size: 0x8, addend: 0x0, symName: __ZNSt3__120__shared_ptr_emplaceIN6twitch3ios22CoreImageRenderContextENS_9allocatorIS3_EEE21__on_zero_shared_weakEv, symObjAddr: 0xDDCD4, symBinAddr: 0xD9A64, symSize: 0x4 }
  - { offset: 0x93E57A, size: 0x8, addend: 0x0, symName: __ZN6twitch3ios13ApplePlatform24createPlatformPropertiesEv, symObjAddr: 0xDDF40, symBinAddr: 0xD9CD0, symSize: 0xF0 }
  - { offset: 0x93EA02, size: 0x8, addend: 0x0, symName: __ZN6twitch23BroadcastSchedulerModelD2Ev, symObjAddr: 0xDE0AC, symBinAddr: 0xD9E3C, symSize: 0xCC }
  - { offset: 0x93ED1C, size: 0x8, addend: 0x0, symName: __ZNSt3__120__shared_ptr_emplaceIN6twitch23BroadcastSchedulerModelENS_9allocatorIS2_EEED1Ev, symObjAddr: 0xDE1D4, symBinAddr: 0xD9F08, symSize: 0x10 }
  - { offset: 0x93ED40, size: 0x8, addend: 0x0, symName: __ZNSt3__120__shared_ptr_emplaceIN6twitch23BroadcastSchedulerModelENS_9allocatorIS2_EEED1Ev, symObjAddr: 0xDE1D4, symBinAddr: 0xD9F08, symSize: 0x10 }
  - { offset: 0x93ED77, size: 0x8, addend: 0x0, symName: __ZNSt3__120__shared_ptr_emplaceIN6twitch23BroadcastSchedulerModelENS_9allocatorIS2_EEED0Ev, symObjAddr: 0xDE1E4, symBinAddr: 0xD9F18, symSize: 0x20 }
  - { offset: 0x93EE5C, size: 0x8, addend: 0x0, symName: __ZNSt3__120__shared_ptr_emplaceIN6twitch23BroadcastSchedulerModelENS_9allocatorIS2_EEE16__on_zero_sharedEv, symObjAddr: 0xDE204, symBinAddr: 0xD9F38, symSize: 0x8 }
  - { offset: 0x93EE86, size: 0x8, addend: 0x0, symName: __ZNSt3__120__shared_ptr_emplaceIN6twitch23BroadcastSchedulerModelENS_9allocatorIS2_EEE16__on_zero_sharedEv, symObjAddr: 0xDE204, symBinAddr: 0xD9F38, symSize: 0x8 }
  - { offset: 0x93EEA6, size: 0x8, addend: 0x0, symName: __ZNSt3__120__shared_ptr_emplaceIN6twitch23BroadcastSchedulerModelENS_9allocatorIS2_EEE16__on_zero_sharedEv, symObjAddr: 0xDE204, symBinAddr: 0xD9F38, symSize: 0x8 }
  - { offset: 0x93EF8B, size: 0x8, addend: 0x0, symName: __ZNSt3__120__shared_ptr_emplaceIN6twitch23BroadcastSchedulerModelENS_9allocatorIS2_EEE21__on_zero_shared_weakEv, symObjAddr: 0xDE20C, symBinAddr: 0xD9F40, symSize: 0x4 }
  - { offset: 0x93EFC0, size: 0x8, addend: 0x0, symName: __ZNSt3__120__shared_ptr_emplaceIN6twitch23BroadcastSchedulerModelENS_9allocatorIS2_EEE21__on_zero_shared_weakEv, symObjAddr: 0xDE20C, symBinAddr: 0xD9F40, symSize: 0x4 }
  - { offset: 0x93EFE5, size: 0x8, addend: 0x0, symName: __ZNSt3__120__shared_ptr_emplaceIN6twitch23BroadcastSchedulerModelENS_9allocatorIS2_EEE21__on_zero_shared_weakEv, symObjAddr: 0xDE20C, symBinAddr: 0xD9F40, symSize: 0x4 }
  - { offset: 0x93F00A, size: 0x8, addend: 0x0, symName: __ZNSt3__120__shared_ptr_emplaceIN6twitch23BroadcastSchedulerModelENS_9allocatorIS2_EEE21__on_zero_shared_weakEv, symObjAddr: 0xDE20C, symBinAddr: 0xD9F40, symSize: 0x4 }
  - { offset: 0x93F03B, size: 0x8, addend: 0x0, symName: __ZNSt3__120__shared_ptr_emplaceIN6twitch23BroadcastSchedulerModelENS_9allocatorIS2_EEE21__on_zero_shared_weakEv, symObjAddr: 0xDE20C, symBinAddr: 0xD9F40, symSize: 0x4 }
  - { offset: 0x93F066, size: 0x8, addend: 0x0, symName: __ZNSt3__120__shared_ptr_emplaceIN6twitch23BroadcastSchedulerModelENS_9allocatorIS2_EEE21__on_zero_shared_weakEv, symObjAddr: 0xDE20C, symBinAddr: 0xD9F40, symSize: 0x4 }
  - { offset: 0xA0EA92, size: 0x8, addend: 0x0, symName: _CRYPTO_free_ex_data, symObjAddr: 0x106600, symBinAddr: 0x101950, symSize: 0x134 }
  - { offset: 0xA0ED85, size: 0x8, addend: 0x0, symName: _CRYPTO_free_ex_data, symObjAddr: 0x106600, symBinAddr: 0x101950, symSize: 0x134 }
  - { offset: 0xA0F0E5, size: 0x8, addend: 0x0, symName: _HKDF_extract, symObjAddr: 0x106734, symBinAddr: 0x101A84, symSize: 0x74 }
  - { offset: 0xA6D90C, size: 0x8, addend: 0x0, symName: _PROXY_POLICY_it, symObjAddr: 0x1EA050, symBinAddr: 0x1F77F8, symSize: 0x0 }
  - { offset: 0xA6DA1B, size: 0x8, addend: 0x0, symName: _PROXY_CERT_INFO_EXTENSION_it, symObjAddr: 0x1EA0D8, symBinAddr: 0x1F7880, symSize: 0x0 }
  - { offset: 0xA6DA31, size: 0x8, addend: 0x0, symName: _PROXY_POLICY_seq_tt, symObjAddr: 0x1EA000, symBinAddr: 0x1F77A8, symSize: 0x0 }
  - { offset: 0xA6DA5A, size: 0x8, addend: 0x0, symName: _PROXY_CERT_INFO_EXTENSION_seq_tt, symObjAddr: 0x1EA088, symBinAddr: 0x1F7830, symSize: 0x0 }
  - { offset: 0x9D8CA2, size: 0x8, addend: 0x0, symName: _asn1_utctime_to_tm, symObjAddr: 0xF25DC, symBinAddr: 0xED92C, symSize: 0x260 }
  - { offset: 0x9D8CB0, size: 0x8, addend: 0x0, symName: _asn1_utctime_to_tm, symObjAddr: 0xF25DC, symBinAddr: 0xED92C, symSize: 0x260 }
  - { offset: 0x9D8CD6, size: 0x8, addend: 0x0, symName: _asn1_utctime_to_tm.min, symObjAddr: 0x198650, symBinAddr: 0x1AD9D0, symSize: 0x0 }
  - { offset: 0x9D8CEC, size: 0x8, addend: 0x0, symName: _asn1_utctime_to_tm.max, symObjAddr: 0x198670, symBinAddr: 0x1AD9F0, symSize: 0x0 }
  - { offset: 0x42AEA5, size: 0x8, addend: 0x0, symName: '+[NSThread ivs_checkMainThread:]', symObjAddr: 0x66804, symBinAddr: 0x67CB4, symSize: 0x40 }
  - { offset: 0x42AEB3, size: 0x8, addend: 0x0, symName: '+[NSThread ivs_checkMainThread:]', symObjAddr: 0x66804, symBinAddr: 0x67CB4, symSize: 0x40 }
  - { offset: 0xB79FD0, size: 0x8, addend: 0x0, symName: __ZN6twitch11PosixSocketD1Ev, symObjAddr: 0x150C6C, symBinAddr: 0x14AC4C, symSize: 0x4 }
  - { offset: 0xB7E7C8, size: 0x8, addend: 0x0, symName: __ZN6twitch11PosixSocket12queueConnectEP8addrinfo, symObjAddr: 0x1520B0, symBinAddr: 0x14C090, symSize: 0x174 }
  - { offset: 0xB7F2D7, size: 0x8, addend: 0x0, symName: __ZN6twitch11PosixSocket10runConnectEP8addrinfo, symObjAddr: 0x151824, symBinAddr: 0x14B804, symSize: 0x88C }
  - { offset: 0xB825D8, size: 0x8, addend: 0x0, symName: __ZN6twitch11PosixSocket12queueConnectEP8addrinfo, symObjAddr: 0x1520B0, symBinAddr: 0x14C090, symSize: 0x174 }
  - { offset: 0xB8287B, size: 0x8, addend: 0x0, symName: __ZN6twitch11PosixSocketD1Ev, symObjAddr: 0x150C6C, symBinAddr: 0x14AC4C, symSize: 0x4 }
  - { offset: 0xB8289F, size: 0x8, addend: 0x0, symName: __ZN6twitch11PosixSocketD1Ev, symObjAddr: 0x150C6C, symBinAddr: 0x14AC4C, symSize: 0x4 }
  - { offset: 0xB828AA, size: 0x8, addend: 0x0, symName: __ZN6twitch11PosixSocketD2Ev, symObjAddr: 0x152E78, symBinAddr: 0x14CBC0, symSize: 0x148 }
  - { offset: 0xB831F3, size: 0x8, addend: 0x0, symName: __ZN6twitch11PosixSocketD0Ev, symObjAddr: 0x150C70, symBinAddr: 0x14AC50, symSize: 0x14 }
  - { offset: 0xB83568, size: 0x8, addend: 0x0, symName: __ZN6twitch11PosixSocket7connectEv, symObjAddr: 0x150C84, symBinAddr: 0x14AC64, symSize: 0x3A4 }
  - { offset: 0xB84A70, size: 0x8, addend: 0x0, symName: __ZN6twitch11PosixSocket10disconnectEv, symObjAddr: 0x151028, symBinAddr: 0x14B008, symSize: 0x78 }
  - { offset: 0xB84B48, size: 0x8, addend: 0x0, symName: __ZN6twitch11PosixSocket4sendEPKhmRm, symObjAddr: 0x1510A0, symBinAddr: 0x14B080, symSize: 0x130 }
  - { offset: 0xB851CF, size: 0x8, addend: 0x0, symName: __ZN6twitch11PosixSocket4recvEPhmRm, symObjAddr: 0x1511D0, symBinAddr: 0x14B1B0, symSize: 0x168 }
  - { offset: 0xB858E0, size: 0x8, addend: 0x0, symName: __ZNK6twitch11PosixSocket10isBlockingEv, symObjAddr: 0x151338, symBinAddr: 0x14B318, symSize: 0x8 }
  - { offset: 0xB85907, size: 0x8, addend: 0x0, symName: __ZN6twitch11PosixSocket4peekEv, symObjAddr: 0x151340, symBinAddr: 0x14B320, symSize: 0x184 }
  - { offset: 0xB85FEB, size: 0x8, addend: 0x0, symName: __ZNK6twitch11PosixSocket5getFdEv, symObjAddr: 0x1514C4, symBinAddr: 0x14B4A4, symSize: 0x8 }
  - { offset: 0xB86012, size: 0x8, addend: 0x0, symName: __ZN6twitch11PosixSocket13setEnableIPv6Eb, symObjAddr: 0x1514CC, symBinAddr: 0x14B4AC, symSize: 0x8 }
  - { offset: 0xB86114, size: 0x8, addend: 0x0, symName: __ZN6twitch11PosixSocket15setStateHandlerEONSt3__18functionIFvRNS_6SocketENS3_5StateERKNS_5ErrorEEEE, symObjAddr: 0x1514D4, symBinAddr: 0x14B4B4, symSize: 0x44 }
  - { offset: 0xB86253, size: 0x8, addend: 0x0, symName: __ZN6twitch11PosixSocket15setSendLowWaterEib, symObjAddr: 0x151518, symBinAddr: 0x14B4F8, symSize: 0x188 }
  - { offset: 0xB86A19, size: 0x8, addend: 0x0, symName: __ZNK6twitch11PosixSocket15getSendLowWaterEv, symObjAddr: 0x1516A0, symBinAddr: 0x14B680, symSize: 0x8 }
  - { offset: 0xB86A7B, size: 0x8, addend: 0x0, symName: __ZNK6twitch11PosixSocket6getRttERi, symObjAddr: 0x1516A8, symBinAddr: 0x14B688, symSize: 0xD4 }
  - { offset: 0xB86CEC, size: 0x8, addend: 0x0, symName: __ZN6twitch11PosixSocket21pauseWritabilityCheckEv, symObjAddr: 0x15177C, symBinAddr: 0x14B75C, symSize: 0x18 }
  - { offset: 0xB86D19, size: 0x8, addend: 0x0, symName: __ZN6twitch11PosixSocket21pauseWritabilityCheckEv, symObjAddr: 0x15177C, symBinAddr: 0x14B75C, symSize: 0x18 }
  - { offset: 0xB86D43, size: 0x8, addend: 0x0, symName: __ZN6twitch11PosixSocket22resumeWritabilityCheckEv, symObjAddr: 0x151794, symBinAddr: 0x14B774, symSize: 0x18 }
  - { offset: 0xB86D70, size: 0x8, addend: 0x0, symName: __ZN6twitch11PosixSocket22resumeWritabilityCheckEv, symObjAddr: 0x151794, symBinAddr: 0x14B774, symSize: 0x18 }
  - { offset: 0xB86D9A, size: 0x8, addend: 0x0, symName: __ZNK6twitch11PosixSocket14isEcnSupportedEv, symObjAddr: 0x1517AC, symBinAddr: 0x14B78C, symSize: 0x68 }
  - { offset: 0xB86DF3, size: 0x8, addend: 0x0, symName: __ZNK6twitch11PosixSocket6isIPV6Ev, symObjAddr: 0x151814, symBinAddr: 0x14B7F4, symSize: 0x8 }
  - { offset: 0xB86E1A, size: 0x8, addend: 0x0, symName: __ZNK6twitch11PosixSocket32getUnsentPlusUnacknowledgedBytesEv, symObjAddr: 0x15181C, symBinAddr: 0x14B7FC, symSize: 0x8 }
  - { offset: 0xB87A7B, size: 0x8, addend: 0x0, symName: '__ZNSt3__110__function6__funcIZN6twitch11PosixSocket12queueConnectEP8addrinfoE3$_0NS_9allocatorIS6_EEFbiEED1Ev', symObjAddr: 0x152224, symBinAddr: 0x14C204, symSize: 0x4 }
  - { offset: 0xB87AA6, size: 0x8, addend: 0x0, symName: '__ZNSt3__110__function6__funcIZN6twitch11PosixSocket12queueConnectEP8addrinfoE3$_0NS_9allocatorIS6_EEFbiEED0Ev', symObjAddr: 0x152228, symBinAddr: 0x14C208, symSize: 0x4 }
  - { offset: 0xB87CBA, size: 0x8, addend: 0x0, symName: '__ZNKSt3__110__function6__funcIZN6twitch11PosixSocket12queueConnectEP8addrinfoE3$_0NS_9allocatorIS6_EEFbiEE7__cloneEv', symObjAddr: 0x15222C, symBinAddr: 0x14C20C, symSize: 0x38 }
  - { offset: 0xB88007, size: 0x8, addend: 0x0, symName: '__ZNKSt3__110__function6__funcIZN6twitch11PosixSocket12queueConnectEP8addrinfoE3$_0NS_9allocatorIS6_EEFbiEE7__cloneEPNS0_6__baseIS9_EE', symObjAddr: 0x152264, symBinAddr: 0x14C244, symSize: 0x18 }
  - { offset: 0xB88040, size: 0x8, addend: 0x0, symName: '__ZNKSt3__110__function6__funcIZN6twitch11PosixSocket12queueConnectEP8addrinfoE3$_0NS_9allocatorIS6_EEFbiEE7__cloneEPNS0_6__baseIS9_EE', symObjAddr: 0x152264, symBinAddr: 0x14C244, symSize: 0x18 }
  - { offset: 0xB88072, size: 0x8, addend: 0x0, symName: '__ZNKSt3__110__function6__funcIZN6twitch11PosixSocket12queueConnectEP8addrinfoE3$_0NS_9allocatorIS6_EEFbiEE7__cloneEPNS0_6__baseIS9_EE', symObjAddr: 0x152264, symBinAddr: 0x14C244, symSize: 0x18 }
  - { offset: 0xB8819E, size: 0x8, addend: 0x0, symName: '__ZNSt3__110__function6__funcIZN6twitch11PosixSocket12queueConnectEP8addrinfoE3$_0NS_9allocatorIS6_EEFbiEE7destroyEv', symObjAddr: 0x15227C, symBinAddr: 0x14C25C, symSize: 0x4 }
  - { offset: 0xB881F1, size: 0x8, addend: 0x0, symName: '__ZNSt3__110__function6__funcIZN6twitch11PosixSocket12queueConnectEP8addrinfoE3$_0NS_9allocatorIS6_EEFbiEE18destroy_deallocateEv', symObjAddr: 0x152280, symBinAddr: 0x14C260, symSize: 0x4 }
  - { offset: 0xB88228, size: 0x8, addend: 0x0, symName: '__ZNSt3__110__function6__funcIZN6twitch11PosixSocket12queueConnectEP8addrinfoE3$_0NS_9allocatorIS6_EEFbiEE18destroy_deallocateEv', symObjAddr: 0x152280, symBinAddr: 0x14C260, symSize: 0x4 }
  - { offset: 0xB8824D, size: 0x8, addend: 0x0, symName: '__ZNSt3__110__function6__funcIZN6twitch11PosixSocket12queueConnectEP8addrinfoE3$_0NS_9allocatorIS6_EEFbiEE18destroy_deallocateEv', symObjAddr: 0x152280, symBinAddr: 0x14C260, symSize: 0x4 }
  - { offset: 0xB8827C, size: 0x8, addend: 0x0, symName: '__ZNSt3__110__function6__funcIZN6twitch11PosixSocket12queueConnectEP8addrinfoE3$_0NS_9allocatorIS6_EEFbiEE18destroy_deallocateEv', symObjAddr: 0x152280, symBinAddr: 0x14C260, symSize: 0x4 }
  - { offset: 0xB882A5, size: 0x8, addend: 0x0, symName: '__ZNSt3__110__function6__funcIZN6twitch11PosixSocket12queueConnectEP8addrinfoE3$_0NS_9allocatorIS6_EEFbiEE18destroy_deallocateEv', symObjAddr: 0x152280, symBinAddr: 0x14C260, symSize: 0x4 }
  - { offset: 0xB88353, size: 0x8, addend: 0x0, symName: '__ZNSt3__110__function6__funcIZN6twitch11PosixSocket12queueConnectEP8addrinfoE3$_0NS_9allocatorIS6_EEFbiEEclEOi', symObjAddr: 0x152284, symBinAddr: 0x14C264, symSize: 0xC0 }
  - { offset: 0xB889C1, size: 0x8, addend: 0x0, symName: '__ZNSt3__110__function6__funcIZN6twitch11PosixSocket10runConnectEP8addrinfoE3$_0NS_9allocatorIS6_EEFbiEED1Ev', symObjAddr: 0x152344, symBinAddr: 0x14C324, symSize: 0x4 }
  - { offset: 0xB889EC, size: 0x8, addend: 0x0, symName: '__ZNSt3__110__function6__funcIZN6twitch11PosixSocket10runConnectEP8addrinfoE3$_0NS_9allocatorIS6_EEFbiEED0Ev', symObjAddr: 0x152348, symBinAddr: 0x14C328, symSize: 0x4 }
  - { offset: 0xB88C00, size: 0x8, addend: 0x0, symName: '__ZNKSt3__110__function6__funcIZN6twitch11PosixSocket10runConnectEP8addrinfoE3$_0NS_9allocatorIS6_EEFbiEE7__cloneEv', symObjAddr: 0x15234C, symBinAddr: 0x14C32C, symSize: 0x38 }
  - { offset: 0xB88F4D, size: 0x8, addend: 0x0, symName: '__ZNKSt3__110__function6__funcIZN6twitch11PosixSocket10runConnectEP8addrinfoE3$_0NS_9allocatorIS6_EEFbiEE7__cloneEPNS0_6__baseIS9_EE', symObjAddr: 0x152384, symBinAddr: 0x14C364, symSize: 0x18 }
  - { offset: 0xB88F86, size: 0x8, addend: 0x0, symName: '__ZNKSt3__110__function6__funcIZN6twitch11PosixSocket10runConnectEP8addrinfoE3$_0NS_9allocatorIS6_EEFbiEE7__cloneEPNS0_6__baseIS9_EE', symObjAddr: 0x152384, symBinAddr: 0x14C364, symSize: 0x18 }
  - { offset: 0xB88FB8, size: 0x8, addend: 0x0, symName: '__ZNKSt3__110__function6__funcIZN6twitch11PosixSocket10runConnectEP8addrinfoE3$_0NS_9allocatorIS6_EEFbiEE7__cloneEPNS0_6__baseIS9_EE', symObjAddr: 0x152384, symBinAddr: 0x14C364, symSize: 0x18 }
  - { offset: 0xB890E4, size: 0x8, addend: 0x0, symName: '__ZNSt3__110__function6__funcIZN6twitch11PosixSocket10runConnectEP8addrinfoE3$_0NS_9allocatorIS6_EEFbiEE7destroyEv', symObjAddr: 0x15239C, symBinAddr: 0x14C37C, symSize: 0x4 }
  - { offset: 0xB89137, size: 0x8, addend: 0x0, symName: '__ZNSt3__110__function6__funcIZN6twitch11PosixSocket10runConnectEP8addrinfoE3$_0NS_9allocatorIS6_EEFbiEE18destroy_deallocateEv', symObjAddr: 0x1523A0, symBinAddr: 0x14C380, symSize: 0x4 }
  - { offset: 0xB8916E, size: 0x8, addend: 0x0, symName: '__ZNSt3__110__function6__funcIZN6twitch11PosixSocket10runConnectEP8addrinfoE3$_0NS_9allocatorIS6_EEFbiEE18destroy_deallocateEv', symObjAddr: 0x1523A0, symBinAddr: 0x14C380, symSize: 0x4 }
  - { offset: 0xB89193, size: 0x8, addend: 0x0, symName: '__ZNSt3__110__function6__funcIZN6twitch11PosixSocket10runConnectEP8addrinfoE3$_0NS_9allocatorIS6_EEFbiEE18destroy_deallocateEv', symObjAddr: 0x1523A0, symBinAddr: 0x14C380, symSize: 0x4 }
  - { offset: 0xB891C2, size: 0x8, addend: 0x0, symName: '__ZNSt3__110__function6__funcIZN6twitch11PosixSocket10runConnectEP8addrinfoE3$_0NS_9allocatorIS6_EEFbiEE18destroy_deallocateEv', symObjAddr: 0x1523A0, symBinAddr: 0x14C380, symSize: 0x4 }
  - { offset: 0xB891EB, size: 0x8, addend: 0x0, symName: '__ZNSt3__110__function6__funcIZN6twitch11PosixSocket10runConnectEP8addrinfoE3$_0NS_9allocatorIS6_EEFbiEE18destroy_deallocateEv', symObjAddr: 0x1523A0, symBinAddr: 0x14C380, symSize: 0x4 }
  - { offset: 0xB8951F, size: 0x8, addend: 0x0, symName: '__ZNSt3__110__function6__funcIZN6twitch11PosixSocket10runConnectEP8addrinfoE3$_0NS_9allocatorIS6_EEFbiEEclEOi', symObjAddr: 0x1523A4, symBinAddr: 0x14C384, symSize: 0x3AC }
  - { offset: 0xB8A3E0, size: 0x8, addend: 0x0, symName: '__ZZN6twitch11PosixSocket11handleEventEiiENK3$_0clENS_5ErrorE', symObjAddr: 0x1528A0, symBinAddr: 0x14C730, symSize: 0x490 }
  - { offset: 0xB8C4C2, size: 0x8, addend: 0x0, symName: __ZN6twitch11PosixSocketC1ERKNSt3__110shared_ptrINS_9EventLoopEEENS1_12basic_stringIcNS1_11char_traitsIcEENS1_9allocatorIcEEEEib, symObjAddr: 0x152FC0, symBinAddr: 0x14CD08, symSize: 0x94 }
  - { offset: 0xB8C52E, size: 0x8, addend: 0x0, symName: __ZN6twitch11PosixSocketC1ERKNSt3__110shared_ptrINS_9EventLoopEEENS1_12basic_stringIcNS1_11char_traitsIcEENS1_9allocatorIcEEEEib, symObjAddr: 0x152FC0, symBinAddr: 0x14CD08, symSize: 0x94 }
  - { offset: 0xB8C571, size: 0x8, addend: 0x0, symName: __ZN6twitch11PosixSocketC1ERKNSt3__110shared_ptrINS_9EventLoopEEENS1_12basic_stringIcNS1_11char_traitsIcEENS1_9allocatorIcEEEEib, symObjAddr: 0x152FC0, symBinAddr: 0x14CD08, symSize: 0x94 }
  - { offset: 0xB8C590, size: 0x8, addend: 0x0, symName: __ZN6twitch11PosixSocketC1ERKNSt3__110shared_ptrINS_9EventLoopEEENS1_12basic_stringIcNS1_11char_traitsIcEENS1_9allocatorIcEEEEib, symObjAddr: 0x152FC0, symBinAddr: 0x14CD08, symSize: 0x94 }
  - { offset: 0xA7B1FA, size: 0x8, addend: 0x0, symName: __ZN6twitch14CriteriaParser16matchingPayloadsERKNSt3__16vectorINS_4JsonENS1_9allocatorIS3_EEEERKNS_14CriteriaInputsE, symObjAddr: 0x11C7DC, symBinAddr: 0x117ACC, symSize: 0xE0C }
  - { offset: 0xA7B3D4, size: 0x8, addend: 0x0, symName: __ZN6twitchL23PrivateComparatorPrefixE, symObjAddr: 0x1A0478, symBinAddr: 0x1B57F0, symSize: 0x0 }
  - { offset: 0xA7E5EA, size: 0x8, addend: 0x0, symName: __ZNSt3__119__allocate_at_leastB8nn180100INS_9allocatorIN6twitch5ErrorEEEEENS_19__allocation_resultINS_16allocator_traitsIT_E7pointerEEERS7_m, symObjAddr: 0x11F82C, symBinAddr: 0x11AAD8, symSize: 0x48 }
  - { offset: 0xA7E685, size: 0x8, addend: 0x0, symName: __ZNSt3__114__split_bufferIN6twitch5ErrorERNS_9allocatorIS2_EEED2Ev, symObjAddr: 0x11F874, symBinAddr: 0x11AB20, symSize: 0x4C }
  - { offset: 0xA7E6FE, size: 0x8, addend: 0x0, symName: __ZNSt3__119__allocate_at_leastB8nn180100INS_9allocatorIN6twitch5ErrorEEEEENS_19__allocation_resultINS_16allocator_traitsIT_E7pointerEEERS7_m, symObjAddr: 0x11F82C, symBinAddr: 0x11AAD8, symSize: 0x48 }
  - { offset: 0xA7EE20, size: 0x8, addend: 0x0, symName: __ZNSt3__112__destroy_atB8nn180100INS_4pairIKNS_12basic_stringIcNS_11char_traitsIcEENS_9allocatorIcEEEEN6twitch4util8expectedIbNS9_5ErrorEEEEELi0EEEvPT_, symObjAddr: 0x11F7A4, symBinAddr: 0x11AA94, symSize: 0x44 }
  - { offset: 0xA81368, size: 0x8, addend: 0x0, symName: __ZN6twitch14CriteriaInputsC1ERKNSt3__113unordered_mapINS1_12basic_stringIcNS1_11char_traitsIcEENS1_9allocatorIcEEEENS_4JsonENS1_4hashIS8_EENS1_8equal_toIS8_EENS6_INS1_4pairIKS8_S9_EEEEEERKNS2_IS8_NS1_8functionIFNS_4util8expectedIiNS_5ErrorEEERSF_RKS9_SS_EEESB_SD_NS6_INSE_ISF_SU_EEEEEE, symObjAddr: 0x121D50, symBinAddr: 0x11C54C, symSize: 0x2B0 }
  - { offset: 0xA834D4, size: 0x8, addend: 0x0, symName: __ZN6twitch14CriteriaParser16matchingPayloadsERKNSt3__16vectorINS_4JsonENS1_9allocatorIS3_EEEERKNS_14CriteriaInputsE, symObjAddr: 0x11C7DC, symBinAddr: 0x117ACC, symSize: 0xE0C }
  - { offset: 0xA89E5E, size: 0x8, addend: 0x0, symName: __ZN6twitch14CriteriaParser16evaluateCriteriaERKNSt3__13mapINS1_12basic_stringIcNS1_11char_traitsIcEENS1_9allocatorIcEEEENS_4JsonENS1_4lessIS8_EENS6_INS1_4pairIKS8_S9_EEEEEERKNS_14CriteriaInputsE, symObjAddr: 0x11D7D0, symBinAddr: 0x118AC0, symSize: 0x1F3C }
  - { offset: 0xA98519, size: 0x8, addend: 0x0, symName: __ZN6twitch4util8expectedINSt3__13mapINS2_12basic_stringIcNS2_11char_traitsIcEENS2_9allocatorIcEEEENS_4JsonENS2_4lessIS9_EENS7_INS2_4pairIKS9_SA_EEEEEENS_5ErrorEED2Ev, symObjAddr: 0x11F70C, symBinAddr: 0x11A9FC, symSize: 0x3C }
  - { offset: 0xA98526, size: 0x8, addend: 0x0, symName: __ZN6twitch14CriteriaParser11createErrorERKNSt3__112basic_stringIcNS1_11char_traitsIcEENS1_9allocatorIcEEEENS_4Json4TypeESB_, symObjAddr: 0x11D5E8, symBinAddr: 0x1188D8, symSize: 0x1E8 }
  - { offset: 0xA992C2, size: 0x8, addend: 0x0, symName: __ZNSt3__114__split_bufferIN6twitch5ErrorERNS_9allocatorIS2_EEED2Ev, symObjAddr: 0x11F874, symBinAddr: 0x11AB20, symSize: 0x4C }
  - { offset: 0xA9942C, size: 0x8, addend: 0x0, symName: __ZN6twitch4util8expectedINSt3__13mapINS2_12basic_stringIcNS2_11char_traitsIcEENS2_9allocatorIcEEEENS_4JsonENS2_4lessIS9_EENS7_INS2_4pairIKS9_SA_EEEEEENS_5ErrorEED2Ev, symObjAddr: 0x11F70C, symBinAddr: 0x11A9FC, symSize: 0x3C }
  - { offset: 0xA9954C, size: 0x8, addend: 0x0, symName: __ZNSt3__112__hash_tableINS_17__hash_value_typeINS_12basic_stringIcNS_11char_traitsIcEENS_9allocatorIcEEEEN6twitch4util8expectedIbNS8_5ErrorEEEEENS_22__unordered_map_hasherIS7_SD_NS_4hashIS7_EENS_8equal_toIS7_EELb1EEENS_21__unordered_map_equalIS7_SD_SI_SG_Lb1EEENS5_ISD_EEED2Ev, symObjAddr: 0x11F748, symBinAddr: 0x11AA38, symSize: 0x5C }
  - { offset: 0xA997FF, size: 0x8, addend: 0x0, symName: __ZNSt3__16vectorIN6twitch5ErrorENS_9allocatorIS2_EEE16__init_with_sizeB8nn180100IPS2_S7_EEvT_T0_m, symObjAddr: 0x120330, symBinAddr: 0x11B324, symSize: 0x84 }
  - { offset: 0xA99A58, size: 0x8, addend: 0x0, symName: __ZNSt3__112__hash_tableINS_17__hash_value_typeINS_12basic_stringIcNS_11char_traitsIcEENS_9allocatorIcEEEENS_8functionIFN6twitch4util8expectedIiNS9_5ErrorEEERKS7_RKNS9_4JsonESI_EEEEENS_22__unordered_map_hasherIS7_SL_NS_4hashIS7_EENS_8equal_toIS7_EELb1EEENS_21__unordered_map_equalIS7_SL_SQ_SO_Lb1EEENS5_ISL_EEE25__emplace_unique_key_argsIS7_JRKNS_21piecewise_construct_tENS_5tupleIJOS7_EEENS10_IJEEEEEENS_4pairINS_15__hash_iteratorIPNS_11__hash_nodeISL_PvEEEEbEERKT_DpOT0_, symObjAddr: 0x1203B4, symBinAddr: 0x11B3A8, symSize: 0x434 }
  - { offset: 0xA9ADBC, size: 0x8, addend: 0x0, symName: __ZNKSt3__16__treeINS_12__value_typeINS_12basic_stringIcNS_11char_traitsIcEENS_9allocatorIcEEEEN6twitch4JsonEEENS_19__map_value_compareIS7_SA_NS_4lessIS7_EELb1EEENS5_ISA_EEE4findIS7_EENS_21__tree_const_iteratorISA_PNS_11__tree_nodeISA_PvEElEERKT_, symObjAddr: 0x11F97C, symBinAddr: 0x11AB6C, symSize: 0x7C }
  - { offset: 0xA9B0AF, size: 0x8, addend: 0x0, symName: __ZN6twitch4util8expectedINSt3__113unordered_mapINS2_12basic_stringIcNS2_11char_traitsIcEENS2_9allocatorIcEEEENS1_IbNS_5ErrorEEENS2_4hashIS9_EENS2_8equal_toIS9_EENS7_INS2_4pairIKS9_SB_EEEEEESA_EC2ISA_EEONS0_10unexpectedIT_EE, symObjAddr: 0x11FAB4, symBinAddr: 0x11ABE8, symSize: 0xC0 }
  - { offset: 0xA9B364, size: 0x8, addend: 0x0, symName: __ZNKSt3__112__hash_tableINS_17__hash_value_typeINS_12basic_stringIcNS_11char_traitsIcEENS_9allocatorIcEEEEN6twitch4JsonEEENS_22__unordered_map_hasherIS7_SA_NS_4hashIS7_EENS_8equal_toIS7_EELb1EEENS_21__unordered_map_equalIS7_SA_SF_SD_Lb1EEENS5_ISA_EEE4findIS7_EENS_21__hash_const_iteratorIPNS_11__hash_nodeISA_PvEEEERKT_, symObjAddr: 0x1201A8, symBinAddr: 0x11B21C, symSize: 0x108 }
  - { offset: 0xA9B73B, size: 0x8, addend: 0x0, symName: __ZNSt3__112__hash_tableINS_17__hash_value_typeINS_12basic_stringIcNS_11char_traitsIcEENS_9allocatorIcEEEEN6twitch4util8expectedIbNS8_5ErrorEEEEENS_22__unordered_map_hasherIS7_SD_NS_4hashIS7_EENS_8equal_toIS7_EELb1EEENS_21__unordered_map_equalIS7_SD_SI_SG_Lb1EEENS5_ISD_EEE25__emplace_unique_key_argsIS7_JRKNS_21piecewise_construct_tENS_5tupleIJRKS7_EEENSS_IJEEEEEENS_4pairINS_15__hash_iteratorIPNS_11__hash_nodeISD_PvEEEEbEERKT_DpOT0_, symObjAddr: 0x11FC34, symBinAddr: 0x11ACA8, symSize: 0x428 }
  - { offset: 0xA9C40C, size: 0x8, addend: 0x0, symName: __ZN6twitch4util8expectedIbNS_5ErrorEEaSEOS3_, symObjAddr: 0x12005C, symBinAddr: 0x11B0D0, symSize: 0x14C }
  - { offset: 0xA9C435, size: 0x8, addend: 0x0, symName: __ZN6twitch4util8expectedIbNS_5ErrorEEaSEOS3_, symObjAddr: 0x12005C, symBinAddr: 0x11B0D0, symSize: 0x14C }
  - { offset: 0xA9DEA4, size: 0x8, addend: 0x0, symName: __ZNSt3__112__hash_tableINS_17__hash_value_typeINS_12basic_stringIcNS_11char_traitsIcEENS_9allocatorIcEEEENS_8functionIFN6twitch4util8expectedIiNS9_5ErrorEEERKS7_RKNS9_4JsonESI_EEEEENS_22__unordered_map_hasherIS7_SL_NS_4hashIS7_EENS_8equal_toIS7_EELb1EEENS_21__unordered_map_equalIS7_SL_SQ_SO_Lb1EEENS5_ISL_EEE25__emplace_unique_key_argsIS7_JRKNS_21piecewise_construct_tENS_5tupleIJOS7_EEENS10_IJEEEEEENS_4pairINS_15__hash_iteratorIPNS_11__hash_nodeISL_PvEEEEbEERKT_DpOT0_, symObjAddr: 0x1203B4, symBinAddr: 0x11B3A8, symSize: 0x434 }
  - { offset: 0xA9ECBD, size: 0x8, addend: 0x0, symName: __ZNSt3__110unique_ptrINS_11__hash_nodeINS_17__hash_value_typeINS_12basic_stringIcNS_11char_traitsIcEENS_9allocatorIcEEEENS_8functionIFN6twitch4util8expectedIiNSA_5ErrorEEERKS8_RKNSA_4JsonESJ_EEEEEPvEENS_22__hash_node_destructorINS6_ISO_EEEEE5resetB8nn180100EPSO_, symObjAddr: 0x1217FC, symBinAddr: 0x11C508, symSize: 0x44 }
  - { offset: 0xA9EF19, size: 0x8, addend: 0x0, symName: '__ZNSt3__110__function6__funcIZN6twitch14CriteriaInputsC1ERKNS_13unordered_mapINS_12basic_stringIcNS_11char_traitsIcEENS_9allocatorIcEEEENS2_4JsonENS_4hashISA_EENS_8equal_toISA_EENS8_INS_4pairIKSA_SB_EEEEEERKNS4_ISA_NS_8functionIFNS2_4util8expectedIiNS2_5ErrorEEERSH_RKSB_SU_EEESD_SF_NS8_INSG_ISH_SW_EEEEEEE3$_1NS8_IS12_EESV_ED1Ev', symObjAddr: 0x120950, symBinAddr: 0x11B7DC, symSize: 0x4 }
  - { offset: 0xA9EF44, size: 0x8, addend: 0x0, symName: '__ZNSt3__110__function6__funcIZN6twitch14CriteriaInputsC1ERKNS_13unordered_mapINS_12basic_stringIcNS_11char_traitsIcEENS_9allocatorIcEEEENS2_4JsonENS_4hashISA_EENS_8equal_toISA_EENS8_INS_4pairIKSA_SB_EEEEEERKNS4_ISA_NS_8functionIFNS2_4util8expectedIiNS2_5ErrorEEERSH_RKSB_SU_EEESD_SF_NS8_INSG_ISH_SW_EEEEEEE3$_1NS8_IS12_EESV_ED0Ev', symObjAddr: 0x120954, symBinAddr: 0x11B7E0, symSize: 0x4 }
  - { offset: 0xA9F158, size: 0x8, addend: 0x0, symName: '__ZNKSt3__110__function6__funcIZN6twitch14CriteriaInputsC1ERKNS_13unordered_mapINS_12basic_stringIcNS_11char_traitsIcEENS_9allocatorIcEEEENS2_4JsonENS_4hashISA_EENS_8equal_toISA_EENS8_INS_4pairIKSA_SB_EEEEEERKNS4_ISA_NS_8functionIFNS2_4util8expectedIiNS2_5ErrorEEERSH_RKSB_SU_EEESD_SF_NS8_INSG_ISH_SW_EEEEEEE3$_1NS8_IS12_EESV_E7__cloneEv', symObjAddr: 0x120958, symBinAddr: 0x11B7E4, symSize: 0x34 }
  - { offset: 0xA9F473, size: 0x8, addend: 0x0, symName: '__ZNKSt3__110__function6__funcIZN6twitch14CriteriaInputsC1ERKNS_13unordered_mapINS_12basic_stringIcNS_11char_traitsIcEENS_9allocatorIcEEEENS2_4JsonENS_4hashISA_EENS_8equal_toISA_EENS8_INS_4pairIKSA_SB_EEEEEERKNS4_ISA_NS_8functionIFNS2_4util8expectedIiNS2_5ErrorEEERSH_RKSB_SU_EEESD_SF_NS8_INSG_ISH_SW_EEEEEEE3$_1NS8_IS12_EESV_E7__cloneEPNS0_6__baseISV_EE', symObjAddr: 0x12098C, symBinAddr: 0x11B818, symSize: 0x14 }
  - { offset: 0xA9F4AC, size: 0x8, addend: 0x0, symName: '__ZNKSt3__110__function6__funcIZN6twitch14CriteriaInputsC1ERKNS_13unordered_mapINS_12basic_stringIcNS_11char_traitsIcEENS_9allocatorIcEEEENS2_4JsonENS_4hashISA_EENS_8equal_toISA_EENS8_INS_4pairIKSA_SB_EEEEEERKNS4_ISA_NS_8functionIFNS2_4util8expectedIiNS2_5ErrorEEERSH_RKSB_SU_EEESD_SF_NS8_INSG_ISH_SW_EEEEEEE3$_1NS8_IS12_EESV_E7__cloneEPNS0_6__baseISV_EE', symObjAddr: 0x12098C, symBinAddr: 0x11B818, symSize: 0x14 }
  - { offset: 0xA9F4DE, size: 0x8, addend: 0x0, symName: '__ZNKSt3__110__function6__funcIZN6twitch14CriteriaInputsC1ERKNS_13unordered_mapINS_12basic_stringIcNS_11char_traitsIcEENS_9allocatorIcEEEENS2_4JsonENS_4hashISA_EENS_8equal_toISA_EENS8_INS_4pairIKSA_SB_EEEEEERKNS4_ISA_NS_8functionIFNS2_4util8expectedIiNS2_5ErrorEEERSH_RKSB_SU_EEESD_SF_NS8_INSG_ISH_SW_EEEEEEE3$_1NS8_IS12_EESV_E7__cloneEPNS0_6__baseISV_EE', symObjAddr: 0x12098C, symBinAddr: 0x11B818, symSize: 0x14 }
  - { offset: 0xA9F510, size: 0x8, addend: 0x0, symName: '__ZNKSt3__110__function6__funcIZN6twitch14CriteriaInputsC1ERKNS_13unordered_mapINS_12basic_stringIcNS_11char_traitsIcEENS_9allocatorIcEEEENS2_4JsonENS_4hashISA_EENS_8equal_toISA_EENS8_INS_4pairIKSA_SB_EEEEEERKNS4_ISA_NS_8functionIFNS2_4util8expectedIiNS2_5ErrorEEERSH_RKSB_SU_EEESD_SF_NS8_INSG_ISH_SW_EEEEEEE3$_1NS8_IS12_EESV_E7__cloneEPNS0_6__baseISV_EE', symObjAddr: 0x12098C, symBinAddr: 0x11B818, symSize: 0x14 }
  - { offset: 0xA9F526, size: 0x8, addend: 0x0, symName: '__ZNKSt3__110__function6__funcIZN6twitch14CriteriaInputsC1ERKNS_13unordered_mapINS_12basic_stringIcNS_11char_traitsIcEENS_9allocatorIcEEEENS2_4JsonENS_4hashISA_EENS_8equal_toISA_EENS8_INS_4pairIKSA_SB_EEEEEERKNS4_ISA_NS_8functionIFNS2_4util8expectedIiNS2_5ErrorEEERSH_RKSB_SU_EEESD_SF_NS8_INSG_ISH_SW_EEEEEEE3$_1NS8_IS12_EESV_E7__cloneEPNS0_6__baseISV_EE', symObjAddr: 0x12098C, symBinAddr: 0x11B818, symSize: 0x14 }
  - { offset: 0xA9F53B, size: 0x8, addend: 0x0, symName: '__ZNKSt3__110__function6__funcIZN6twitch14CriteriaInputsC1ERKNS_13unordered_mapINS_12basic_stringIcNS_11char_traitsIcEENS_9allocatorIcEEEENS2_4JsonENS_4hashISA_EENS_8equal_toISA_EENS8_INS_4pairIKSA_SB_EEEEEERKNS4_ISA_NS_8functionIFNS2_4util8expectedIiNS2_5ErrorEEERSH_RKSB_SU_EEESD_SF_NS8_INSG_ISH_SW_EEEEEEE3$_1NS8_IS12_EESV_E7__cloneEPNS0_6__baseISV_EE', symObjAddr: 0x12098C, symBinAddr: 0x11B818, symSize: 0x14 }
  - { offset: 0xA9F550, size: 0x8, addend: 0x0, symName: '__ZNKSt3__110__function6__funcIZN6twitch14CriteriaInputsC1ERKNS_13unordered_mapINS_12basic_stringIcNS_11char_traitsIcEENS_9allocatorIcEEEENS2_4JsonENS_4hashISA_EENS_8equal_toISA_EENS8_INS_4pairIKSA_SB_EEEEEERKNS4_ISA_NS_8functionIFNS2_4util8expectedIiNS2_5ErrorEEERSH_RKSB_SU_EEESD_SF_NS8_INSG_ISH_SW_EEEEEEE3$_1NS8_IS12_EESV_E7__cloneEPNS0_6__baseISV_EE', symObjAddr: 0x12098C, symBinAddr: 0x11B818, symSize: 0x14 }
  - { offset: 0xA9F565, size: 0x8, addend: 0x0, symName: '__ZNKSt3__110__function6__funcIZN6twitch14CriteriaInputsC1ERKNS_13unordered_mapINS_12basic_stringIcNS_11char_traitsIcEENS_9allocatorIcEEEENS2_4JsonENS_4hashISA_EENS_8equal_toISA_EENS8_INS_4pairIKSA_SB_EEEEEERKNS4_ISA_NS_8functionIFNS2_4util8expectedIiNS2_5ErrorEEERSH_RKSB_SU_EEESD_SF_NS8_INSG_ISH_SW_EEEEEEE3$_1NS8_IS12_EESV_E7__cloneEPNS0_6__baseISV_EE', symObjAddr: 0x12098C, symBinAddr: 0x11B818, symSize: 0x14 }
  - { offset: 0xA9F57D, size: 0x8, addend: 0x0, symName: '__ZNSt3__110__function6__funcIZN6twitch14CriteriaInputsC1ERKNS_13unordered_mapINS_12basic_stringIcNS_11char_traitsIcEENS_9allocatorIcEEEENS2_4JsonENS_4hashISA_EENS_8equal_toISA_EENS8_INS_4pairIKSA_SB_EEEEEERKNS4_ISA_NS_8functionIFNS2_4util8expectedIiNS2_5ErrorEEERSH_RKSB_SU_EEESD_SF_NS8_INSG_ISH_SW_EEEEEEE3$_1NS8_IS12_EESV_E7destroyEv', symObjAddr: 0x1209A0, symBinAddr: 0x11B82C, symSize: 0x4 }
  - { offset: 0xA9F5D0, size: 0x8, addend: 0x0, symName: '__ZNSt3__110__function6__funcIZN6twitch14CriteriaInputsC1ERKNS_13unordered_mapINS_12basic_stringIcNS_11char_traitsIcEENS_9allocatorIcEEEENS2_4JsonENS_4hashISA_EENS_8equal_toISA_EENS8_INS_4pairIKSA_SB_EEEEEERKNS4_ISA_NS_8functionIFNS2_4util8expectedIiNS2_5ErrorEEERSH_RKSB_SU_EEESD_SF_NS8_INSG_ISH_SW_EEEEEEE3$_1NS8_IS12_EESV_E18destroy_deallocateEv', symObjAddr: 0x1209A4, symBinAddr: 0x11B830, symSize: 0x4 }
  - { offset: 0xA9F607, size: 0x8, addend: 0x0, symName: '__ZNSt3__110__function6__funcIZN6twitch14CriteriaInputsC1ERKNS_13unordered_mapINS_12basic_stringIcNS_11char_traitsIcEENS_9allocatorIcEEEENS2_4JsonENS_4hashISA_EENS_8equal_toISA_EENS8_INS_4pairIKSA_SB_EEEEEERKNS4_ISA_NS_8functionIFNS2_4util8expectedIiNS2_5ErrorEEERSH_RKSB_SU_EEESD_SF_NS8_INSG_ISH_SW_EEEEEEE3$_1NS8_IS12_EESV_E18destroy_deallocateEv', symObjAddr: 0x1209A4, symBinAddr: 0x11B830, symSize: 0x4 }
  - { offset: 0xA9F62C, size: 0x8, addend: 0x0, symName: '__ZNSt3__110__function6__funcIZN6twitch14CriteriaInputsC1ERKNS_13unordered_mapINS_12basic_stringIcNS_11char_traitsIcEENS_9allocatorIcEEEENS2_4JsonENS_4hashISA_EENS_8equal_toISA_EENS8_INS_4pairIKSA_SB_EEEEEERKNS4_ISA_NS_8functionIFNS2_4util8expectedIiNS2_5ErrorEEERSH_RKSB_SU_EEESD_SF_NS8_INSG_ISH_SW_EEEEEEE3$_1NS8_IS12_EESV_E18destroy_deallocateEv', symObjAddr: 0x1209A4, symBinAddr: 0x11B830, symSize: 0x4 }
  - { offset: 0xA9F65B, size: 0x8, addend: 0x0, symName: '__ZNSt3__110__function6__funcIZN6twitch14CriteriaInputsC1ERKNS_13unordered_mapINS_12basic_stringIcNS_11char_traitsIcEENS_9allocatorIcEEEENS2_4JsonENS_4hashISA_EENS_8equal_toISA_EENS8_INS_4pairIKSA_SB_EEEEEERKNS4_ISA_NS_8functionIFNS2_4util8expectedIiNS2_5ErrorEEERSH_RKSB_SU_EEESD_SF_NS8_INSG_ISH_SW_EEEEEEE3$_1NS8_IS12_EESV_E18destroy_deallocateEv', symObjAddr: 0x1209A4, symBinAddr: 0x11B830, symSize: 0x4 }
  - { offset: 0xA9F684, size: 0x8, addend: 0x0, symName: '__ZNSt3__110__function6__funcIZN6twitch14CriteriaInputsC1ERKNS_13unordered_mapINS_12basic_stringIcNS_11char_traitsIcEENS_9allocatorIcEEEENS2_4JsonENS_4hashISA_EENS_8equal_toISA_EENS8_INS_4pairIKSA_SB_EEEEEERKNS4_ISA_NS_8functionIFNS2_4util8expectedIiNS2_5ErrorEEERSH_RKSB_SU_EEESD_SF_NS8_INSG_ISH_SW_EEEEEEE3$_1NS8_IS12_EESV_E18destroy_deallocateEv', symObjAddr: 0x1209A4, symBinAddr: 0x11B830, symSize: 0x4 }
  - { offset: 0xA9F844, size: 0x8, addend: 0x0, symName: '__ZNSt3__110__function6__funcIZN6twitch14CriteriaInputsC1ERKNS_13unordered_mapINS_12basic_stringIcNS_11char_traitsIcEENS_9allocatorIcEEEENS2_4JsonENS_4hashISA_EENS_8equal_toISA_EENS8_INS_4pairIKSA_SB_EEEEEERKNS4_ISA_NS_8functionIFNS2_4util8expectedIiNS2_5ErrorEEERSH_RKSB_SU_EEESD_SF_NS8_INSG_ISH_SW_EEEEEEE3$_1NS8_IS12_EESV_EclESS_SU_SU_', symObjAddr: 0x1209A8, symBinAddr: 0x11B834, symSize: 0x284 }
  - { offset: 0xAA04DE, size: 0x8, addend: 0x0, symName: '__ZNSt3__110__function6__funcIZN6twitch14CriteriaInputsC1ERKNS_13unordered_mapINS_12basic_stringIcNS_11char_traitsIcEENS_9allocatorIcEEEENS2_4JsonENS_4hashISA_EENS_8equal_toISA_EENS8_INS_4pairIKSA_SB_EEEEEERKNS4_ISA_NS_8functionIFNS2_4util8expectedIiNS2_5ErrorEEERSH_RKSB_SU_EEESD_SF_NS8_INSG_ISH_SW_EEEEEEE3$_0NS8_IS12_EESV_ED1Ev', symObjAddr: 0x120CEC, symBinAddr: 0x11BAB8, symSize: 0x4 }
  - { offset: 0xAA0509, size: 0x8, addend: 0x0, symName: '__ZNSt3__110__function6__funcIZN6twitch14CriteriaInputsC1ERKNS_13unordered_mapINS_12basic_stringIcNS_11char_traitsIcEENS_9allocatorIcEEEENS2_4JsonENS_4hashISA_EENS_8equal_toISA_EENS8_INS_4pairIKSA_SB_EEEEEERKNS4_ISA_NS_8functionIFNS2_4util8expectedIiNS2_5ErrorEEERSH_RKSB_SU_EEESD_SF_NS8_INSG_ISH_SW_EEEEEEE3$_0NS8_IS12_EESV_ED0Ev', symObjAddr: 0x120CF0, symBinAddr: 0x11BABC, symSize: 0x4 }
  - { offset: 0xAA071D, size: 0x8, addend: 0x0, symName: '__ZNKSt3__110__function6__funcIZN6twitch14CriteriaInputsC1ERKNS_13unordered_mapINS_12basic_stringIcNS_11char_traitsIcEENS_9allocatorIcEEEENS2_4JsonENS_4hashISA_EENS_8equal_toISA_EENS8_INS_4pairIKSA_SB_EEEEEERKNS4_ISA_NS_8functionIFNS2_4util8expectedIiNS2_5ErrorEEERSH_RKSB_SU_EEESD_SF_NS8_INSG_ISH_SW_EEEEEEE3$_0NS8_IS12_EESV_E7__cloneEv', symObjAddr: 0x120CF4, symBinAddr: 0x11BAC0, symSize: 0x34 }
  - { offset: 0xAA0A38, size: 0x8, addend: 0x0, symName: '__ZNKSt3__110__function6__funcIZN6twitch14CriteriaInputsC1ERKNS_13unordered_mapINS_12basic_stringIcNS_11char_traitsIcEENS_9allocatorIcEEEENS2_4JsonENS_4hashISA_EENS_8equal_toISA_EENS8_INS_4pairIKSA_SB_EEEEEERKNS4_ISA_NS_8functionIFNS2_4util8expectedIiNS2_5ErrorEEERSH_RKSB_SU_EEESD_SF_NS8_INSG_ISH_SW_EEEEEEE3$_0NS8_IS12_EESV_E7__cloneEPNS0_6__baseISV_EE', symObjAddr: 0x120D28, symBinAddr: 0x11BAF4, symSize: 0x14 }
  - { offset: 0xAA0A71, size: 0x8, addend: 0x0, symName: '__ZNKSt3__110__function6__funcIZN6twitch14CriteriaInputsC1ERKNS_13unordered_mapINS_12basic_stringIcNS_11char_traitsIcEENS_9allocatorIcEEEENS2_4JsonENS_4hashISA_EENS_8equal_toISA_EENS8_INS_4pairIKSA_SB_EEEEEERKNS4_ISA_NS_8functionIFNS2_4util8expectedIiNS2_5ErrorEEERSH_RKSB_SU_EEESD_SF_NS8_INSG_ISH_SW_EEEEEEE3$_0NS8_IS12_EESV_E7__cloneEPNS0_6__baseISV_EE', symObjAddr: 0x120D28, symBinAddr: 0x11BAF4, symSize: 0x14 }
  - { offset: 0xAA0AA3, size: 0x8, addend: 0x0, symName: '__ZNKSt3__110__function6__funcIZN6twitch14CriteriaInputsC1ERKNS_13unordered_mapINS_12basic_stringIcNS_11char_traitsIcEENS_9allocatorIcEEEENS2_4JsonENS_4hashISA_EENS_8equal_toISA_EENS8_INS_4pairIKSA_SB_EEEEEERKNS4_ISA_NS_8functionIFNS2_4util8expectedIiNS2_5ErrorEEERSH_RKSB_SU_EEESD_SF_NS8_INSG_ISH_SW_EEEEEEE3$_0NS8_IS12_EESV_E7__cloneEPNS0_6__baseISV_EE', symObjAddr: 0x120D28, symBinAddr: 0x11BAF4, symSize: 0x14 }
  - { offset: 0xAA0AD5, size: 0x8, addend: 0x0, symName: '__ZNKSt3__110__function6__funcIZN6twitch14CriteriaInputsC1ERKNS_13unordered_mapINS_12basic_stringIcNS_11char_traitsIcEENS_9allocatorIcEEEENS2_4JsonENS_4hashISA_EENS_8equal_toISA_EENS8_INS_4pairIKSA_SB_EEEEEERKNS4_ISA_NS_8functionIFNS2_4util8expectedIiNS2_5ErrorEEERSH_RKSB_SU_EEESD_SF_NS8_INSG_ISH_SW_EEEEEEE3$_0NS8_IS12_EESV_E7__cloneEPNS0_6__baseISV_EE', symObjAddr: 0x120D28, symBinAddr: 0x11BAF4, symSize: 0x14 }
  - { offset: 0xAA0AEB, size: 0x8, addend: 0x0, symName: '__ZNKSt3__110__function6__funcIZN6twitch14CriteriaInputsC1ERKNS_13unordered_mapINS_12basic_stringIcNS_11char_traitsIcEENS_9allocatorIcEEEENS2_4JsonENS_4hashISA_EENS_8equal_toISA_EENS8_INS_4pairIKSA_SB_EEEEEERKNS4_ISA_NS_8functionIFNS2_4util8expectedIiNS2_5ErrorEEERSH_RKSB_SU_EEESD_SF_NS8_INSG_ISH_SW_EEEEEEE3$_0NS8_IS12_EESV_E7__cloneEPNS0_6__baseISV_EE', symObjAddr: 0x120D28, symBinAddr: 0x11BAF4, symSize: 0x14 }
  - { offset: 0xAA0B00, size: 0x8, addend: 0x0, symName: '__ZNKSt3__110__function6__funcIZN6twitch14CriteriaInputsC1ERKNS_13unordered_mapINS_12basic_stringIcNS_11char_traitsIcEENS_9allocatorIcEEEENS2_4JsonENS_4hashISA_EENS_8equal_toISA_EENS8_INS_4pairIKSA_SB_EEEEEERKNS4_ISA_NS_8functionIFNS2_4util8expectedIiNS2_5ErrorEEERSH_RKSB_SU_EEESD_SF_NS8_INSG_ISH_SW_EEEEEEE3$_0NS8_IS12_EESV_E7__cloneEPNS0_6__baseISV_EE', symObjAddr: 0x120D28, symBinAddr: 0x11BAF4, symSize: 0x14 }
  - { offset: 0xAA0B15, size: 0x8, addend: 0x0, symName: '__ZNKSt3__110__function6__funcIZN6twitch14CriteriaInputsC1ERKNS_13unordered_mapINS_12basic_stringIcNS_11char_traitsIcEENS_9allocatorIcEEEENS2_4JsonENS_4hashISA_EENS_8equal_toISA_EENS8_INS_4pairIKSA_SB_EEEEEERKNS4_ISA_NS_8functionIFNS2_4util8expectedIiNS2_5ErrorEEERSH_RKSB_SU_EEESD_SF_NS8_INSG_ISH_SW_EEEEEEE3$_0NS8_IS12_EESV_E7__cloneEPNS0_6__baseISV_EE', symObjAddr: 0x120D28, symBinAddr: 0x11BAF4, symSize: 0x14 }
  - { offset: 0xAA0B2A, size: 0x8, addend: 0x0, symName: '__ZNKSt3__110__function6__funcIZN6twitch14CriteriaInputsC1ERKNS_13unordered_mapINS_12basic_stringIcNS_11char_traitsIcEENS_9allocatorIcEEEENS2_4JsonENS_4hashISA_EENS_8equal_toISA_EENS8_INS_4pairIKSA_SB_EEEEEERKNS4_ISA_NS_8functionIFNS2_4util8expectedIiNS2_5ErrorEEERSH_RKSB_SU_EEESD_SF_NS8_INSG_ISH_SW_EEEEEEE3$_0NS8_IS12_EESV_E7__cloneEPNS0_6__baseISV_EE', symObjAddr: 0x120D28, symBinAddr: 0x11BAF4, symSize: 0x14 }
  - { offset: 0xAA0B42, size: 0x8, addend: 0x0, symName: '__ZNSt3__110__function6__funcIZN6twitch14CriteriaInputsC1ERKNS_13unordered_mapINS_12basic_stringIcNS_11char_traitsIcEENS_9allocatorIcEEEENS2_4JsonENS_4hashISA_EENS_8equal_toISA_EENS8_INS_4pairIKSA_SB_EEEEEERKNS4_ISA_NS_8functionIFNS2_4util8expectedIiNS2_5ErrorEEERSH_RKSB_SU_EEESD_SF_NS8_INSG_ISH_SW_EEEEEEE3$_0NS8_IS12_EESV_E7destroyEv', symObjAddr: 0x120D3C, symBinAddr: 0x11BB08, symSize: 0x4 }
  - { offset: 0xAA0B95, size: 0x8, addend: 0x0, symName: '__ZNSt3__110__function6__funcIZN6twitch14CriteriaInputsC1ERKNS_13unordered_mapINS_12basic_stringIcNS_11char_traitsIcEENS_9allocatorIcEEEENS2_4JsonENS_4hashISA_EENS_8equal_toISA_EENS8_INS_4pairIKSA_SB_EEEEEERKNS4_ISA_NS_8functionIFNS2_4util8expectedIiNS2_5ErrorEEERSH_RKSB_SU_EEESD_SF_NS8_INSG_ISH_SW_EEEEEEE3$_0NS8_IS12_EESV_E18destroy_deallocateEv', symObjAddr: 0x120D40, symBinAddr: 0x11BB0C, symSize: 0x4 }
  - { offset: 0xAA0BCC, size: 0x8, addend: 0x0, symName: '__ZNSt3__110__function6__funcIZN6twitch14CriteriaInputsC1ERKNS_13unordered_mapINS_12basic_stringIcNS_11char_traitsIcEENS_9allocatorIcEEEENS2_4JsonENS_4hashISA_EENS_8equal_toISA_EENS8_INS_4pairIKSA_SB_EEEEEERKNS4_ISA_NS_8functionIFNS2_4util8expectedIiNS2_5ErrorEEERSH_RKSB_SU_EEESD_SF_NS8_INSG_ISH_SW_EEEEEEE3$_0NS8_IS12_EESV_E18destroy_deallocateEv', symObjAddr: 0x120D40, symBinAddr: 0x11BB0C, symSize: 0x4 }
  - { offset: 0xAA0BF1, size: 0x8, addend: 0x0, symName: '__ZNSt3__110__function6__funcIZN6twitch14CriteriaInputsC1ERKNS_13unordered_mapINS_12basic_stringIcNS_11char_traitsIcEENS_9allocatorIcEEEENS2_4JsonENS_4hashISA_EENS_8equal_toISA_EENS8_INS_4pairIKSA_SB_EEEEEERKNS4_ISA_NS_8functionIFNS2_4util8expectedIiNS2_5ErrorEEERSH_RKSB_SU_EEESD_SF_NS8_INSG_ISH_SW_EEEEEEE3$_0NS8_IS12_EESV_E18destroy_deallocateEv', symObjAddr: 0x120D40, symBinAddr: 0x11BB0C, symSize: 0x4 }
  - { offset: 0xAA0C20, size: 0x8, addend: 0x0, symName: '__ZNSt3__110__function6__funcIZN6twitch14CriteriaInputsC1ERKNS_13unordered_mapINS_12basic_stringIcNS_11char_traitsIcEENS_9allocatorIcEEEENS2_4JsonENS_4hashISA_EENS_8equal_toISA_EENS8_INS_4pairIKSA_SB_EEEEEERKNS4_ISA_NS_8functionIFNS2_4util8expectedIiNS2_5ErrorEEERSH_RKSB_SU_EEESD_SF_NS8_INSG_ISH_SW_EEEEEEE3$_0NS8_IS12_EESV_E18destroy_deallocateEv', symObjAddr: 0x120D40, symBinAddr: 0x11BB0C, symSize: 0x4 }
  - { offset: 0xAA0C49, size: 0x8, addend: 0x0, symName: '__ZNSt3__110__function6__funcIZN6twitch14CriteriaInputsC1ERKNS_13unordered_mapINS_12basic_stringIcNS_11char_traitsIcEENS_9allocatorIcEEEENS2_4JsonENS_4hashISA_EENS_8equal_toISA_EENS8_INS_4pairIKSA_SB_EEEEEERKNS4_ISA_NS_8functionIFNS2_4util8expectedIiNS2_5ErrorEEERSH_RKSB_SU_EEESD_SF_NS8_INSG_ISH_SW_EEEEEEE3$_0NS8_IS12_EESV_E18destroy_deallocateEv', symObjAddr: 0x120D40, symBinAddr: 0x11BB0C, symSize: 0x4 }
  - { offset: 0xAA101B, size: 0x8, addend: 0x0, symName: '__ZNSt3__110__function6__funcIZN6twitch14CriteriaInputsC1ERKNS_13unordered_mapINS_12basic_stringIcNS_11char_traitsIcEENS_9allocatorIcEEEENS2_4JsonENS_4hashISA_EENS_8equal_toISA_EENS8_INS_4pairIKSA_SB_EEEEEERKNS4_ISA_NS_8functionIFNS2_4util8expectedIiNS2_5ErrorEEERSH_RKSB_SU_EEESD_SF_NS8_INSG_ISH_SW_EEEEEEE3$_0NS8_IS12_EESV_EclESS_SU_SU_', symObjAddr: 0x120D44, symBinAddr: 0x11BB10, symSize: 0x350 }
  - { offset: 0xAA1D76, size: 0x8, addend: 0x0, symName: __ZNK6twitch14CriteriaInputs11parseSemverERKNSt3__112basic_stringIcNS1_11char_traitsIcEENS1_9allocatorIcEEEE, symObjAddr: 0x121094, symBinAddr: 0x11BE60, symSize: 0x668 }
  - { offset: 0xAA3CF9, size: 0x8, addend: 0x0, symName: __ZN6twitch4util8expectedINSt3__16vectorIiNS2_9allocatorIiEEEENS_5ErrorEED2Ev, symObjAddr: 0x1217BC, symBinAddr: 0x11C4C8, symSize: 0x40 }
  - { offset: 0x493E34, size: 0x8, addend: 0x0, symName: __ZN6twitch8Animator7receiveERKNS_13PictureSampleE, symObjAddr: 0x6F8B4, symBinAddr: 0x70994, symSize: 0x890 }
  - { offset: 0x494014, size: 0x8, addend: 0x0, symName: __ZN6twitchL13computeEasingIdEET_RKS1_NS_8Animator12EasingMethodE, symObjAddr: 0x70BE4, symBinAddr: 0x71BB8, symSize: 0x64 }
  - { offset: 0x49685F, size: 0x8, addend: 0x0, symName: __ZNSt3__119__allocate_at_leastB8nn180100INS_9allocatorINS_12basic_stringIcNS_11char_traitsIcEENS1_IcEEEEEEEENS_19__allocation_resultINS_16allocator_traitsIT_E7pointerEEERSA_m, symObjAddr: 0x72C10, symBinAddr: 0x73AD8, symSize: 0x44 }
  - { offset: 0x4968FA, size: 0x8, addend: 0x0, symName: __ZN6twitch8Animator10transitionERKNSt3__112basic_stringIcNS1_11char_traitsIcEENS1_9allocatorIcEEEERKNS_11MixerConfig4SlotENS_9MediaTimeENS0_12EasingMethodENS1_8functionIFvbEEE, symObjAddr: 0x72C54, symBinAddr: 0x73B1C, symSize: 0xBB4 }
  - { offset: 0x49960E, size: 0x8, addend: 0x0, symName: __ZN6twitch8Animator7receiveERKNS_13PictureSampleE, symObjAddr: 0x6F8B4, symBinAddr: 0x70994, symSize: 0x890 }
  - { offset: 0x49C30C, size: 0x8, addend: 0x0, symName: __ZNSt3__111timed_mutex14try_lock_untilINS_6chrono12steady_clockENS2_8durationIxNS_5ratioILl1ELl1000000000EEEEEEEbRKNS2_10time_pointIT_T0_EE, symObjAddr: 0x70600, symBinAddr: 0x716E0, symSize: 0x154 }
  - { offset: 0x49C75F, size: 0x8, addend: 0x0, symName: __ZN6twitch8Animator11nextBindingERKNSt3__112basic_stringIcNS1_11char_traitsIcEENS1_9allocatorIcEEEENS_9MediaTimeERNS0_7BindingE, symObjAddr: 0x70860, symBinAddr: 0x71834, symSize: 0x300 }
  - { offset: 0x49CEDF, size: 0x8, addend: 0x0, symName: __ZN6twitch8Animator23forceCompleteTransitionERKNSt3__112basic_stringIcNS1_11char_traitsIcEENS1_9allocatorIcEEEERNS0_7BindingE, symObjAddr: 0x70B60, symBinAddr: 0x71B34, symSize: 0x84 }
  - { offset: 0x49CFCC, size: 0x8, addend: 0x0, symName: __ZN6twitch8Animator20preparePictureSampleERNS_13PictureSampleERKNS0_7BindingE, symObjAddr: 0x70D98, symBinAddr: 0x71C60, symSize: 0x4EC }
  - { offset: 0x49F032, size: 0x8, addend: 0x0, symName: __ZN6twitch8AnimatorD1Ev, symObjAddr: 0x70144, symBinAddr: 0x71224, symSize: 0x4 }
  - { offset: 0x49F056, size: 0x8, addend: 0x0, symName: __ZN6twitch8AnimatorD1Ev, symObjAddr: 0x70144, symBinAddr: 0x71224, symSize: 0x4 }
  - { offset: 0x49F07D, size: 0x8, addend: 0x0, symName: __ZN6twitch8AnimatorD0Ev, symObjAddr: 0x70148, symBinAddr: 0x71228, symSize: 0x14 }
  - { offset: 0x49F3BE, size: 0x8, addend: 0x0, symName: __ZN6twitch8Animator7receiveERKNS_9PCMSampleE, symObjAddr: 0x7015C, symBinAddr: 0x7123C, symSize: 0x43C }
  - { offset: 0x4A042D, size: 0x8, addend: 0x0, symName: __ZThn8_N6twitch8Animator7receiveERKNS_9PCMSampleE, symObjAddr: 0x70598, symBinAddr: 0x71678, symSize: 0x8 }
  - { offset: 0x4A0453, size: 0x8, addend: 0x0, symName: __ZThn8_N6twitch8AnimatorD1Ev, symObjAddr: 0x705A0, symBinAddr: 0x71680, symSize: 0x8 }
  - { offset: 0x4A04AF, size: 0x8, addend: 0x0, symName: __ZThn8_N6twitch8AnimatorD0Ev, symObjAddr: 0x705A8, symBinAddr: 0x71688, symSize: 0x18 }
  - { offset: 0x4A050F, size: 0x8, addend: 0x0, symName: __ZThn16_N6twitch8AnimatorD1Ev, symObjAddr: 0x705C0, symBinAddr: 0x716A0, symSize: 0x8 }
  - { offset: 0x4A0551, size: 0x8, addend: 0x0, symName: __ZThn16_N6twitch8AnimatorD0Ev, symObjAddr: 0x705C8, symBinAddr: 0x716A8, symSize: 0x18 }
  - { offset: 0x4A05B1, size: 0x8, addend: 0x0, symName: __ZThn40_N6twitch8AnimatorD1Ev, symObjAddr: 0x705E0, symBinAddr: 0x716C0, symSize: 0x8 }
  - { offset: 0x4A05F3, size: 0x8, addend: 0x0, symName: __ZThn40_N6twitch8AnimatorD0Ev, symObjAddr: 0x705E8, symBinAddr: 0x716C8, symSize: 0x18 }
  - { offset: 0x4A0F13, size: 0x8, addend: 0x0, symName: __ZNSt3__110unique_ptrINS_11__hash_nodeINS_17__hash_value_typeINS_12basic_stringIcNS_11char_traitsIcEENS_9allocatorIcEEEEN6twitch8Animator10TransitionEEEPvEENS_22__hash_node_destructorINS6_ISE_EEEEE5resetB8nn180100EPSE_, symObjAddr: 0x70D54, symBinAddr: 0x71C1C, symSize: 0x44 }
  - { offset: 0x4A1777, size: 0x8, addend: 0x0, symName: __ZN6twitch8AnimatorC1ENSt3__110shared_ptrINS_3LogEEENS_4Vec2ENS_10AspectModeENS_11MixerConfigE, symObjAddr: 0x71284, symBinAddr: 0x7214C, symSize: 0x100 }
  - { offset: 0x4A21DE, size: 0x8, addend: 0x0, symName: __ZN6twitch8Animator7addSlotENS_11MixerConfig4SlotE, symObjAddr: 0x71384, symBinAddr: 0x7224C, symSize: 0x42C }
  - { offset: 0x4A3261, size: 0x8, addend: 0x0, symName: __ZN6twitch8Animator10removeSlotERKNSt3__112basic_stringIcNS1_11char_traitsIcEENS1_9allocatorIcEEEE, symObjAddr: 0x717B0, symBinAddr: 0x72678, symSize: 0x650 }
  - { offset: 0x4A3274, size: 0x8, addend: 0x0, symName: __ZN6twitch8Animator10removeSlotERKNSt3__112basic_stringIcNS1_11char_traitsIcEENS1_9allocatorIcEEEE, symObjAddr: 0x717B0, symBinAddr: 0x72678, symSize: 0x650 }
  - { offset: 0x4A5863, size: 0x8, addend: 0x0, symName: __ZNSt3__112__hash_tableINS_17__hash_value_typeINS_12basic_stringIcNS_11char_traitsIcEENS_9allocatorIcEEEEN6twitch8Animator7BindingEEENS_22__unordered_map_hasherIS7_SB_NS_4hashIS7_EENS_8equal_toIS7_EELb1EEENS_21__unordered_map_equalIS7_SB_SG_SE_Lb1EEENS5_ISB_EEE6removeENS_21__hash_const_iteratorIPNS_11__hash_nodeISB_PvEEEE, symObjAddr: 0x71E00, symBinAddr: 0x72CC8, symSize: 0x134 }
  - { offset: 0x4A58DE, size: 0x8, addend: 0x0, symName: __ZNSt3__112__hash_tableINS_17__hash_value_typeINS_12basic_stringIcNS_11char_traitsIcEENS_9allocatorIcEEEEN6twitch8Animator7BindingEEENS_22__unordered_map_hasherIS7_SB_NS_4hashIS7_EENS_8equal_toIS7_EELb1EEENS_21__unordered_map_equalIS7_SB_SG_SE_Lb1EEENS5_ISB_EEE6removeENS_21__hash_const_iteratorIPNS_11__hash_nodeISB_PvEEEE, symObjAddr: 0x71E00, symBinAddr: 0x72CC8, symSize: 0x134 }
  - { offset: 0x4A58FC, size: 0x8, addend: 0x0, symName: __ZNSt3__112__hash_tableINS_17__hash_value_typeINS_12basic_stringIcNS_11char_traitsIcEENS_9allocatorIcEEEEN6twitch8Animator7BindingEEENS_22__unordered_map_hasherIS7_SB_NS_4hashIS7_EENS_8equal_toIS7_EELb1EEENS_21__unordered_map_equalIS7_SB_SG_SE_Lb1EEENS5_ISB_EEE6removeENS_21__hash_const_iteratorIPNS_11__hash_nodeISB_PvEEEE, symObjAddr: 0x71E00, symBinAddr: 0x72CC8, symSize: 0x134 }
  - { offset: 0x4A5B62, size: 0x8, addend: 0x0, symName: __ZNSt3__110unique_ptrINS_11__hash_nodeINS_17__hash_value_typeINS_12basic_stringIcNS_11char_traitsIcEENS_9allocatorIcEEEEN6twitch8Animator7BindingEEEPvEENS_22__hash_node_destructorINS6_ISE_EEEEE5resetB8nn180100EPSE_, symObjAddr: 0x71F34, symBinAddr: 0x72DFC, symSize: 0x44 }
  - { offset: 0x4A5F45, size: 0x8, addend: 0x0, symName: __ZN6twitch8Animator4bindERKNSt3__112basic_stringIcNS1_11char_traitsIcEENS1_9allocatorIcEEEENS_10DeviceTypeES9_, symObjAddr: 0x71F78, symBinAddr: 0x72E40, symSize: 0x1E0 }
  - { offset: 0x4A6476, size: 0x8, addend: 0x0, symName: __ZN6twitch8Animator6unbindERKNSt3__112basic_stringIcNS1_11char_traitsIcEENS1_9allocatorIcEEEE, symObjAddr: 0x72158, symBinAddr: 0x73020, symSize: 0x380 }
  - { offset: 0x4A7C5E, size: 0x8, addend: 0x0, symName: __ZNSt3__112__hash_tableINS_17__hash_value_typeINS_12basic_stringIcNS_11char_traitsIcEENS_9allocatorIcEEEEN6twitch8Animator7BindingEEENS_22__unordered_map_hasherIS7_SB_NS_4hashIS7_EENS_8equal_toIS7_EELb1EEENS_21__unordered_map_equalIS7_SB_SG_SE_Lb1EEENS5_ISB_EEE25__emplace_unique_key_argsIS7_JRKNS_21piecewise_construct_tENS_5tupleIJRKS7_EEENSQ_IJEEEEEENS_4pairINS_15__hash_iteratorIPNS_11__hash_nodeISB_PvEEEEbEERKT_DpOT0_, symObjAddr: 0x724D8, symBinAddr: 0x733A0, symSize: 0x490 }
  - { offset: 0x4A8AB2, size: 0x8, addend: 0x0, symName: __ZN6twitch8Animator7isBoundERKNSt3__112basic_stringIcNS1_11char_traitsIcEENS1_9allocatorIcEEEERNS1_6vectorIS7_NS5_IS7_EEEE, symObjAddr: 0x72968, symBinAddr: 0x73830, symSize: 0x138 }
  - { offset: 0x4A9253, size: 0x8, addend: 0x0, symName: __ZN6twitch8Animator7isBoundERKNSt3__112basic_stringIcNS1_11char_traitsIcEENS1_9allocatorIcEEEERNS1_6vectorIS7_NS5_IS7_EEEE, symObjAddr: 0x72968, symBinAddr: 0x73830, symSize: 0x138 }
  - { offset: 0x4A965B, size: 0x8, addend: 0x0, symName: __ZNSt3__16vectorINS_12basic_stringIcNS_11char_traitsIcEENS_9allocatorIcEEEENS4_IS6_EEE21__push_back_slow_pathIRKS6_EEPS6_OT_, symObjAddr: 0x72AA0, symBinAddr: 0x73968, symSize: 0x170 }
  - { offset: 0x4A9D0C, size: 0x8, addend: 0x0, symName: __ZNSt3__119__allocate_at_leastB8nn180100INS_9allocatorINS_12basic_stringIcNS_11char_traitsIcEENS1_IcEEEEEEEENS_19__allocation_resultINS_16allocator_traitsIT_E7pointerEEERSA_m, symObjAddr: 0x72C10, symBinAddr: 0x73AD8, symSize: 0x44 }
  - { offset: 0x4AAA54, size: 0x8, addend: 0x0, symName: __ZN6twitch8Animator10transitionERKNSt3__112basic_stringIcNS1_11char_traitsIcEENS1_9allocatorIcEEEERKNS_11MixerConfig4SlotENS_9MediaTimeENS0_12EasingMethodENS1_8functionIFvbEEE, symObjAddr: 0x72C54, symBinAddr: 0x73B1C, symSize: 0xBB4 }
  - { offset: 0x4ACEF5, size: 0x8, addend: 0x0, symName: '__ZNSt3__110__function6__funcIZN6twitch8Animator15getUnboundWantsENS2_10DeviceTypeEE3$_0NS_9allocatorIS5_EEFbRKNS_12basic_stringIcNS_11char_traitsIcEENS6_IcEEEEEED1Ev', symObjAddr: 0x7386C, symBinAddr: 0x746D0, symSize: 0x4 }
  - { offset: 0x4ACF20, size: 0x8, addend: 0x0, symName: '__ZNSt3__110__function6__funcIZN6twitch8Animator15getUnboundWantsENS2_10DeviceTypeEE3$_0NS_9allocatorIS5_EEFbRKNS_12basic_stringIcNS_11char_traitsIcEENS6_IcEEEEEED0Ev', symObjAddr: 0x73870, symBinAddr: 0x746D4, symSize: 0x4 }
  - { offset: 0x4AD134, size: 0x8, addend: 0x0, symName: '__ZNKSt3__110__function6__funcIZN6twitch8Animator15getUnboundWantsENS2_10DeviceTypeEE3$_0NS_9allocatorIS5_EEFbRKNS_12basic_stringIcNS_11char_traitsIcEENS6_IcEEEEEE7__cloneEv', symObjAddr: 0x73874, symBinAddr: 0x746D8, symSize: 0x38 }
  - { offset: 0x4AD481, size: 0x8, addend: 0x0, symName: '__ZNKSt3__110__function6__funcIZN6twitch8Animator15getUnboundWantsENS2_10DeviceTypeEE3$_0NS_9allocatorIS5_EEFbRKNS_12basic_stringIcNS_11char_traitsIcEENS6_IcEEEEEE7__cloneEPNS0_6__baseISF_EE', symObjAddr: 0x738AC, symBinAddr: 0x74710, symSize: 0x18 }
  - { offset: 0x4AD4BA, size: 0x8, addend: 0x0, symName: '__ZNKSt3__110__function6__funcIZN6twitch8Animator15getUnboundWantsENS2_10DeviceTypeEE3$_0NS_9allocatorIS5_EEFbRKNS_12basic_stringIcNS_11char_traitsIcEENS6_IcEEEEEE7__cloneEPNS0_6__baseISF_EE', symObjAddr: 0x738AC, symBinAddr: 0x74710, symSize: 0x18 }
  - { offset: 0x4AD4EC, size: 0x8, addend: 0x0, symName: '__ZNKSt3__110__function6__funcIZN6twitch8Animator15getUnboundWantsENS2_10DeviceTypeEE3$_0NS_9allocatorIS5_EEFbRKNS_12basic_stringIcNS_11char_traitsIcEENS6_IcEEEEEE7__cloneEPNS0_6__baseISF_EE', symObjAddr: 0x738AC, symBinAddr: 0x74710, symSize: 0x18 }
  - { offset: 0x4AD618, size: 0x8, addend: 0x0, symName: '__ZNSt3__110__function6__funcIZN6twitch8Animator15getUnboundWantsENS2_10DeviceTypeEE3$_0NS_9allocatorIS5_EEFbRKNS_12basic_stringIcNS_11char_traitsIcEENS6_IcEEEEEE7destroyEv', symObjAddr: 0x738C4, symBinAddr: 0x74728, symSize: 0x4 }
  - { offset: 0x4AD66B, size: 0x8, addend: 0x0, symName: '__ZNSt3__110__function6__funcIZN6twitch8Animator15getUnboundWantsENS2_10DeviceTypeEE3$_0NS_9allocatorIS5_EEFbRKNS_12basic_stringIcNS_11char_traitsIcEENS6_IcEEEEEE18destroy_deallocateEv', symObjAddr: 0x738C8, symBinAddr: 0x7472C, symSize: 0x4 }
  - { offset: 0x4AD6A2, size: 0x8, addend: 0x0, symName: '__ZNSt3__110__function6__funcIZN6twitch8Animator15getUnboundWantsENS2_10DeviceTypeEE3$_0NS_9allocatorIS5_EEFbRKNS_12basic_stringIcNS_11char_traitsIcEENS6_IcEEEEEE18destroy_deallocateEv', symObjAddr: 0x738C8, symBinAddr: 0x7472C, symSize: 0x4 }
  - { offset: 0x4AD6C7, size: 0x8, addend: 0x0, symName: '__ZNSt3__110__function6__funcIZN6twitch8Animator15getUnboundWantsENS2_10DeviceTypeEE3$_0NS_9allocatorIS5_EEFbRKNS_12basic_stringIcNS_11char_traitsIcEENS6_IcEEEEEE18destroy_deallocateEv', symObjAddr: 0x738C8, symBinAddr: 0x7472C, symSize: 0x4 }
  - { offset: 0x4AD6F6, size: 0x8, addend: 0x0, symName: '__ZNSt3__110__function6__funcIZN6twitch8Animator15getUnboundWantsENS2_10DeviceTypeEE3$_0NS_9allocatorIS5_EEFbRKNS_12basic_stringIcNS_11char_traitsIcEENS6_IcEEEEEE18destroy_deallocateEv', symObjAddr: 0x738C8, symBinAddr: 0x7472C, symSize: 0x4 }
  - { offset: 0x4AD71F, size: 0x8, addend: 0x0, symName: '__ZNSt3__110__function6__funcIZN6twitch8Animator15getUnboundWantsENS2_10DeviceTypeEE3$_0NS_9allocatorIS5_EEFbRKNS_12basic_stringIcNS_11char_traitsIcEENS6_IcEEEEEE18destroy_deallocateEv', symObjAddr: 0x738C8, symBinAddr: 0x7472C, symSize: 0x4 }
  - { offset: 0x4AD803, size: 0x8, addend: 0x0, symName: '__ZNSt3__110__function6__funcIZN6twitch8Animator15getUnboundWantsENS2_10DeviceTypeEE3$_0NS_9allocatorIS5_EEFbRKNS_12basic_stringIcNS_11char_traitsIcEENS6_IcEEEEEEclESE_', symObjAddr: 0x738CC, symBinAddr: 0x74730, symSize: 0xE8 }
  - { offset: 0x4ADA03, size: 0x8, addend: 0x0, symName: __ZN6twitch8Animator7getSlotERKNSt3__112basic_stringIcNS1_11char_traitsIcEENS1_9allocatorIcEEEERNS_11MixerConfig4SlotE, symObjAddr: 0x739B4, symBinAddr: 0x74818, symSize: 0x10C }
  - { offset: 0xCDAED0, size: 0x8, addend: 0x0, symName: __ZN4bssl11SSLKeyShare6AcceptEP6cbb_stPNS_5ArrayIhEEPhNS_4SpanIKhEE, symObjAddr: 0x17A7E4, symBinAddr: 0x173110, symSize: 0x84 }
  - { offset: 0xCDAEF2, size: 0x8, addend: 0x0, symName: __ZN4bssl12_GLOBAL__N_112kNamedGroupsE, symObjAddr: 0x1A326C, symBinAddr: 0x1B85E4, symSize: 0x0 }
  - { offset: 0xCDB39E, size: 0x8, addend: 0x0, symName: __ZN4bssl3NewINS_12_GLOBAL__N_110ECKeyShareEJiiEEEPT_DpOT0_, symObjAddr: 0x17A960, symBinAddr: 0x17328C, symSize: 0x74 }
  - { offset: 0xCDD060, size: 0x8, addend: 0x0, symName: __ZN4bssl11SSLKeyShare6AcceptEP6cbb_stPNS_5ArrayIhEEPhNS_4SpanIKhEE, symObjAddr: 0x17A7E4, symBinAddr: 0x173110, symSize: 0x84 }
  - { offset: 0xCDD0E2, size: 0x8, addend: 0x0, symName: __ZN4bssl11SSLKeyShare9SerializeEP6cbb_st, symObjAddr: 0x17A868, symBinAddr: 0x173194, symSize: 0x8 }
  - { offset: 0xCDD112, size: 0x8, addend: 0x0, symName: __ZN4bssl11SSLKeyShare11DeserializeEP6cbs_st, symObjAddr: 0x17A870, symBinAddr: 0x17319C, symSize: 0x8 }
  - { offset: 0xCDD1B6, size: 0x8, addend: 0x0, symName: __ZN4bssl11SSLKeyShare6CreateEt, symObjAddr: 0x17A878, symBinAddr: 0x1731A4, symSize: 0xE8 }
  - { offset: 0xCDD450, size: 0x8, addend: 0x0, symName: __ZN4bssl12_GLOBAL__N_114CECPQ2KeyShareD1Ev, symObjAddr: 0x17A9D4, symBinAddr: 0x173300, symSize: 0x4 }
  - { offset: 0xCDD48C, size: 0x8, addend: 0x0, symName: __ZN4bssl12_GLOBAL__N_114CECPQ2KeyShareD0Ev, symObjAddr: 0x17A9D8, symBinAddr: 0x173304, symSize: 0xC }
  - { offset: 0xCDD4CD, size: 0x8, addend: 0x0, symName: __ZNK4bssl12_GLOBAL__N_114CECPQ2KeyShare7GroupIDEv, symObjAddr: 0x17A9E4, symBinAddr: 0x173310, symSize: 0x8 }
  - { offset: 0xCDD4D8, size: 0x8, addend: 0x0, symName: __ZNK4bssl12_GLOBAL__N_114CECPQ2KeyShare7GroupIDEv, symObjAddr: 0x17A9E4, symBinAddr: 0x173310, symSize: 0x8 }
  - { offset: 0xCDD4FB, size: 0x8, addend: 0x0, symName: __ZN4bssl12_GLOBAL__N_114CECPQ2KeyShare5OfferEP6cbb_st, symObjAddr: 0x17A9EC, symBinAddr: 0x173318, symSize: 0xB6C }
  - { offset: 0xCDF175, size: 0x8, addend: 0x0, symName: __ZN4bssl12_GLOBAL__N_114CECPQ2KeyShare6AcceptEP6cbb_stPNS_5ArrayIhEEPhNS_4SpanIKhEE, symObjAddr: 0x17B558, symBinAddr: 0x173E84, symSize: 0x444 }
  - { offset: 0xCDFA41, size: 0x8, addend: 0x0, symName: __ZN4bssl12_GLOBAL__N_114CECPQ2KeyShare6FinishEPNS_5ArrayIhEEPhNS_4SpanIKhEE, symObjAddr: 0x17B99C, symBinAddr: 0x1742C8, symSize: 0x918 }
  - { offset: 0xCE0AAF, size: 0x8, addend: 0x0, symName: __ZN4bssl12_GLOBAL__N_114X25519KeyShareD1Ev, symObjAddr: 0x17C2B4, symBinAddr: 0x174BE0, symSize: 0x4 }
  - { offset: 0xCE0ADA, size: 0x8, addend: 0x0, symName: __ZN4bssl12_GLOBAL__N_114X25519KeyShareD0Ev, symObjAddr: 0x17C2B8, symBinAddr: 0x174BE4, symSize: 0xC }
  - { offset: 0xCE0B1B, size: 0x8, addend: 0x0, symName: __ZNK4bssl12_GLOBAL__N_114X25519KeyShare7GroupIDEv, symObjAddr: 0x17C2C4, symBinAddr: 0x174BF0, symSize: 0x8 }
  - { offset: 0xCE0B26, size: 0x8, addend: 0x0, symName: __ZNK4bssl12_GLOBAL__N_114X25519KeyShare7GroupIDEv, symObjAddr: 0x17C2C4, symBinAddr: 0x174BF0, symSize: 0x8 }
  - { offset: 0xCE0B49, size: 0x8, addend: 0x0, symName: __ZN4bssl12_GLOBAL__N_114X25519KeyShare5OfferEP6cbb_st, symObjAddr: 0x17C2CC, symBinAddr: 0x174BF8, symSize: 0x74 }
  - { offset: 0xCE0BAB, size: 0x8, addend: 0x0, symName: __ZN4bssl12_GLOBAL__N_114X25519KeyShare6FinishEPNS_5ArrayIhEEPhNS_4SpanIKhEE, symObjAddr: 0x17C340, symBinAddr: 0x174C6C, symSize: 0x114 }
  - { offset: 0xCE0EDC, size: 0x8, addend: 0x0, symName: __ZN4bssl12_GLOBAL__N_114X25519KeyShare9SerializeEP6cbb_st, symObjAddr: 0x17C454, symBinAddr: 0x174D80, symSize: 0x7C }
  - { offset: 0xCE0F8D, size: 0x8, addend: 0x0, symName: __ZN4bssl12_GLOBAL__N_114X25519KeyShare11DeserializeEP6cbs_st, symObjAddr: 0x17C4D0, symBinAddr: 0x174DFC, symSize: 0x60 }
  - { offset: 0xCE115B, size: 0x8, addend: 0x0, symName: __ZN4bssl12_GLOBAL__N_110ECKeyShareD1Ev, symObjAddr: 0x17C530, symBinAddr: 0x174E5C, symSize: 0x38 }
  - { offset: 0xCE1268, size: 0x8, addend: 0x0, symName: __ZN4bssl12_GLOBAL__N_110ECKeyShareD0Ev, symObjAddr: 0x17C568, symBinAddr: 0x174E94, symSize: 0x28 }
  - { offset: 0xCE1391, size: 0x8, addend: 0x0, symName: __ZNK4bssl12_GLOBAL__N_110ECKeyShare7GroupIDEv, symObjAddr: 0x17C590, symBinAddr: 0x174EBC, symSize: 0x8 }
  - { offset: 0xCE139C, size: 0x8, addend: 0x0, symName: __ZNK4bssl12_GLOBAL__N_110ECKeyShare7GroupIDEv, symObjAddr: 0x17C590, symBinAddr: 0x174EBC, symSize: 0x8 }
  - { offset: 0xCE1891, size: 0x8, addend: 0x0, symName: __ZN4bssl12_GLOBAL__N_110ECKeyShare5OfferEP6cbb_st, symObjAddr: 0x17C598, symBinAddr: 0x174EC4, symSize: 0x120 }
  - { offset: 0xCE1CF0, size: 0x8, addend: 0x0, symName: __ZN4bssl12_GLOBAL__N_110ECKeyShare6FinishEPNS_5ArrayIhEEPhNS_4SpanIKhEE, symObjAddr: 0x17C6B8, symBinAddr: 0x174FE4, symSize: 0x22C }
  - { offset: 0xCE2440, size: 0x8, addend: 0x0, symName: __ZN4bssl12_GLOBAL__N_110ECKeyShare9SerializeEP6cbb_st, symObjAddr: 0x17C8E4, symBinAddr: 0x175210, symSize: 0xB0 }
  - { offset: 0xCE2602, size: 0x8, addend: 0x0, symName: __ZN4bssl12_GLOBAL__N_110ECKeyShare11DeserializeEP6cbs_st, symObjAddr: 0x17C994, symBinAddr: 0x1752C0, symSize: 0x68 }
  - { offset: 0x42050D, size: 0x8, addend: 0x0, symName: __ZN6twitch19CommonCryptoEncrypt7encryptERKNSt3__16vectorIhNS1_9allocatorIhEEEE, symObjAddr: 0x64AE4, symBinAddr: 0x66050, symSize: 0x14 }
  - { offset: 0x42146F, size: 0x8, addend: 0x0, symName: __ZN6twitch19CommonCryptoEncrypt7encryptERKNSt3__16vectorIhNS1_9allocatorIhEEEE, symObjAddr: 0x64AE4, symBinAddr: 0x66050, symSize: 0x14 }
  - { offset: 0x4214B6, size: 0x8, addend: 0x0, symName: __ZN6twitch19CommonCryptoEncrypt22performCryptoOperationEjRKNSt3__16vectorIhNS1_9allocatorIhEEEE, symObjAddr: 0x64B0C, symBinAddr: 0x66078, symSize: 0x1B0 }
  - { offset: 0x421BCF, size: 0x8, addend: 0x0, symName: __ZN6twitch3ios12GCDSchedulerD1Ev, symObjAddr: 0x64CBC, symBinAddr: 0x66228, symSize: 0x4 }
  - { offset: 0x421BDA, size: 0x8, addend: 0x0, symName: __ZN6twitch19CommonCryptoEncrypt7decryptERKNSt3__16vectorIhNS1_9allocatorIhEEEE, symObjAddr: 0x64AF8, symBinAddr: 0x66064, symSize: 0x14 }
  - { offset: 0x7ECCF8, size: 0x8, addend: 0x0, symName: __ZN6twitch22BroadcastStatePipelineD1Ev, symObjAddr: 0xC1DC4, symBinAddr: 0xBF770, symSize: 0x4 }
  - { offset: 0x7F2A37, size: 0x8, addend: 0x0, symName: __ZN6twitch22BroadcastStatePipeline13setupInternalEv, symObjAddr: 0xC1DDC, symBinAddr: 0xBF788, symSize: 0x274 }
  - { offset: 0x7F467E, size: 0x8, addend: 0x0, symName: __ZN6twitch22BroadcastStatePipelineD1Ev, symObjAddr: 0xC1DC4, symBinAddr: 0xBF770, symSize: 0x4 }
  - { offset: 0x7F46A2, size: 0x8, addend: 0x0, symName: __ZN6twitch22BroadcastStatePipelineD1Ev, symObjAddr: 0xC1DC4, symBinAddr: 0xBF770, symSize: 0x4 }
  - { offset: 0x7F46C0, size: 0x8, addend: 0x0, symName: __ZN6twitch22BroadcastStatePipelineD1Ev, symObjAddr: 0xC1DC4, symBinAddr: 0xBF770, symSize: 0x4 }
  - { offset: 0x7F46E7, size: 0x8, addend: 0x0, symName: __ZN6twitch22BroadcastStatePipelineD0Ev, symObjAddr: 0xC1DC8, symBinAddr: 0xBF774, symSize: 0x14 }
  - { offset: 0x7F55DC, size: 0x8, addend: 0x0, symName: __ZNSt3__112__hash_tableINS_17__hash_value_typeINS_12basic_stringIcNS_11char_traitsIcEENS_9allocatorIcEEEENS_6vectorINS_10shared_ptrIN6twitch16ICompositionPathEEENS5_ISC_EEEEEENS_22__unordered_map_hasherIS7_SF_NS_4hashIS7_EENS_8equal_toIS7_EELb1EEENS_21__unordered_map_equalIS7_SF_SK_SI_Lb1EEENS5_ISF_EEE25__emplace_unique_key_argsIS7_JRKNS_21piecewise_construct_tENS_5tupleIJOS7_EEENSU_IJEEEEEENS_4pairINS_15__hash_iteratorIPNS_11__hash_nodeISF_PvEEEEbEERKT_DpOT0_, symObjAddr: 0xC2A10, symBinAddr: 0xC0364, symSize: 0x260 }
  - { offset: 0x7F6F62, size: 0x8, addend: 0x0, symName: __ZN6twitch22BroadcastStatePipeline18attachSinkInternalERKNSt3__110shared_ptrINS_8ReceiverINS_20BroadcastStateSampleENS_5ErrorEEEEERKNS1_12basic_stringIcNS1_11char_traitsIcEENS1_9allocatorIcEEEESH_, symObjAddr: 0xC2050, symBinAddr: 0xBF9FC, symSize: 0x4C0 }
  - { offset: 0x7F90E8, size: 0x8, addend: 0x0, symName: __ZThn152_N6twitch22BroadcastStatePipelineD1Ev, symObjAddr: 0xC2510, symBinAddr: 0xBFEBC, symSize: 0x8 }
  - { offset: 0x7F90F7, size: 0x8, addend: 0x0, symName: __ZN6twitch15CompositionPathIJNSt3__110shared_ptrINS_8ReceiverINS_20BroadcastStateSampleENS_5ErrorEEEEENS2_INS_14DistinctFilterIS4_EEEENS2_INS_3BusIS4_EEEEEED2Ev, symObjAddr: 0xC2530, symBinAddr: 0xBFEDC, symSize: 0x44 }
  - { offset: 0x7F9282, size: 0x8, addend: 0x0, symName: __ZThn152_N6twitch22BroadcastStatePipelineD1Ev, symObjAddr: 0xC2510, symBinAddr: 0xBFEBC, symSize: 0x8 }
  - { offset: 0x7F92FC, size: 0x8, addend: 0x0, symName: __ZThn152_N6twitch22BroadcastStatePipelineD0Ev, symObjAddr: 0xC2518, symBinAddr: 0xBFEC4, symSize: 0x18 }
  - { offset: 0x7F94B3, size: 0x8, addend: 0x0, symName: __ZNSt3__120__shared_ptr_pointerIPN6twitch15CompositionPathIJNS_10shared_ptrINS1_8ReceiverINS1_20BroadcastStateSampleENS1_5ErrorEEEEENS3_INS1_14DistinctFilterIS5_EEEENS3_INS1_3BusIS5_EEEEEEENS_14default_deleteISF_EENS_9allocatorISF_EEED1Ev, symObjAddr: 0xC25CC, symBinAddr: 0xBFF20, symSize: 0x4 }
  - { offset: 0x7F94D7, size: 0x8, addend: 0x0, symName: __ZNSt3__120__shared_ptr_pointerIPN6twitch15CompositionPathIJNS_10shared_ptrINS1_8ReceiverINS1_20BroadcastStateSampleENS1_5ErrorEEEEENS3_INS1_14DistinctFilterIS5_EEEENS3_INS1_3BusIS5_EEEEEEENS_14default_deleteISF_EENS_9allocatorISF_EEED1Ev, symObjAddr: 0xC25CC, symBinAddr: 0xBFF20, symSize: 0x4 }
  - { offset: 0x7F950E, size: 0x8, addend: 0x0, symName: __ZNSt3__120__shared_ptr_pointerIPN6twitch15CompositionPathIJNS_10shared_ptrINS1_8ReceiverINS1_20BroadcastStateSampleENS1_5ErrorEEEEENS3_INS1_14DistinctFilterIS5_EEEENS3_INS1_3BusIS5_EEEEEEENS_14default_deleteISF_EENS_9allocatorISF_EEED0Ev, symObjAddr: 0xC25D0, symBinAddr: 0xBFF24, symSize: 0x14 }
  - { offset: 0x7F959D, size: 0x8, addend: 0x0, symName: __ZNSt3__120__shared_ptr_pointerIPN6twitch15CompositionPathIJNS_10shared_ptrINS1_8ReceiverINS1_20BroadcastStateSampleENS1_5ErrorEEEEENS3_INS1_14DistinctFilterIS5_EEEENS3_INS1_3BusIS5_EEEEEEENS_14default_deleteISF_EENS_9allocatorISF_EEE16__on_zero_sharedEv, symObjAddr: 0xC25E4, symBinAddr: 0xBFF38, symSize: 0x18 }
  - { offset: 0x7F9623, size: 0x8, addend: 0x0, symName: __ZNSt3__120__shared_ptr_pointerIPN6twitch15CompositionPathIJNS_10shared_ptrINS1_8ReceiverINS1_20BroadcastStateSampleENS1_5ErrorEEEEENS3_INS1_14DistinctFilterIS5_EEEENS3_INS1_3BusIS5_EEEEEEENS_14default_deleteISF_EENS_9allocatorISF_EEE21__on_zero_shared_weakEv, symObjAddr: 0xC25FC, symBinAddr: 0xBFF50, symSize: 0x4 }
  - { offset: 0x7F9658, size: 0x8, addend: 0x0, symName: __ZNSt3__120__shared_ptr_pointerIPN6twitch15CompositionPathIJNS_10shared_ptrINS1_8ReceiverINS1_20BroadcastStateSampleENS1_5ErrorEEEEENS3_INS1_14DistinctFilterIS5_EEEENS3_INS1_3BusIS5_EEEEEEENS_14default_deleteISF_EENS_9allocatorISF_EEE21__on_zero_shared_weakEv, symObjAddr: 0xC25FC, symBinAddr: 0xBFF50, symSize: 0x4 }
  - { offset: 0x7F967C, size: 0x8, addend: 0x0, symName: __ZNSt3__120__shared_ptr_pointerIPN6twitch15CompositionPathIJNS_10shared_ptrINS1_8ReceiverINS1_20BroadcastStateSampleENS1_5ErrorEEEEENS3_INS1_14DistinctFilterIS5_EEEENS3_INS1_3BusIS5_EEEEEEENS_14default_deleteISF_EENS_9allocatorISF_EEE21__on_zero_shared_weakEv, symObjAddr: 0xC25FC, symBinAddr: 0xBFF50, symSize: 0x4 }
  - { offset: 0x7F96AB, size: 0x8, addend: 0x0, symName: __ZNSt3__120__shared_ptr_pointerIPN6twitch15CompositionPathIJNS_10shared_ptrINS1_8ReceiverINS1_20BroadcastStateSampleENS1_5ErrorEEEEENS3_INS1_14DistinctFilterIS5_EEEENS3_INS1_3BusIS5_EEEEEEENS_14default_deleteISF_EENS_9allocatorISF_EEE21__on_zero_shared_weakEv, symObjAddr: 0xC25FC, symBinAddr: 0xBFF50, symSize: 0x4 }
  - { offset: 0x7F96D4, size: 0x8, addend: 0x0, symName: __ZNSt3__120__shared_ptr_pointerIPN6twitch15CompositionPathIJNS_10shared_ptrINS1_8ReceiverINS1_20BroadcastStateSampleENS1_5ErrorEEEEENS3_INS1_14DistinctFilterIS5_EEEENS3_INS1_3BusIS5_EEEEEEENS_14default_deleteISF_EENS_9allocatorISF_EEE21__on_zero_shared_weakEv, symObjAddr: 0xC25FC, symBinAddr: 0xBFF50, symSize: 0x4 }
  - { offset: 0x7F96FF, size: 0x8, addend: 0x0, symName: __ZN6twitch15CompositionPathIJNSt3__110shared_ptrINS_8ReceiverINS_20BroadcastStateSampleENS_5ErrorEEEEENS2_INS_14DistinctFilterIS4_EEEENS2_INS_3BusIS4_EEEEEED1Ev, symObjAddr: 0xC2600, symBinAddr: 0xBFF54, symSize: 0x4 }
  - { offset: 0x7F9723, size: 0x8, addend: 0x0, symName: __ZN6twitch15CompositionPathIJNSt3__110shared_ptrINS_8ReceiverINS_20BroadcastStateSampleENS_5ErrorEEEEENS2_INS_14DistinctFilterIS4_EEEENS2_INS_3BusIS4_EEEEEED1Ev, symObjAddr: 0xC2600, symBinAddr: 0xBFF54, symSize: 0x4 }
  - { offset: 0x7F972E, size: 0x8, addend: 0x0, symName: __ZN6twitch15CompositionPathIJNSt3__110shared_ptrINS_8ReceiverINS_20BroadcastStateSampleENS_5ErrorEEEEENS2_INS_14DistinctFilterIS4_EEEENS2_INS_3BusIS4_EEEEEED0Ev, symObjAddr: 0xC2604, symBinAddr: 0xBFF58, symSize: 0x14 }
  - { offset: 0x7F98C4, size: 0x8, addend: 0x0, symName: __ZN6twitch14DistinctFilterINS_20BroadcastStateSampleEE7receiveERKS1_, symObjAddr: 0xC2618, symBinAddr: 0xBFF6C, symSize: 0x124 }
  - { offset: 0x7F9B40, size: 0x8, addend: 0x0, symName: __ZN6twitch14DistinctFilterINS_20BroadcastStateSampleEED1Ev, symObjAddr: 0xC273C, symBinAddr: 0xC0090, symSize: 0xA8 }
  - { offset: 0x7FA1CC, size: 0x8, addend: 0x0, symName: __ZN6twitch14DistinctFilterINS_20BroadcastStateSampleEED0Ev, symObjAddr: 0xC27E4, symBinAddr: 0xC0138, symSize: 0xA8 }
  - { offset: 0x7FA858, size: 0x8, addend: 0x0, symName: __ZThn8_N6twitch14DistinctFilterINS_20BroadcastStateSampleEED1Ev, symObjAddr: 0xC288C, symBinAddr: 0xC01E0, symSize: 0x9C }
  - { offset: 0x7FAEFB, size: 0x8, addend: 0x0, symName: __ZThn8_N6twitch14DistinctFilterINS_20BroadcastStateSampleEED0Ev, symObjAddr: 0xC2928, symBinAddr: 0xC027C, symSize: 0xA8 }
  - { offset: 0x7FB5BA, size: 0x8, addend: 0x0, symName: __ZNSt3__120__shared_ptr_emplaceIN6twitch14DistinctFilterINS1_20BroadcastStateSampleEEENS_9allocatorIS4_EEED1Ev, symObjAddr: 0xC29D0, symBinAddr: 0xC0324, symSize: 0x10 }
  - { offset: 0x7FB5DE, size: 0x8, addend: 0x0, symName: __ZNSt3__120__shared_ptr_emplaceIN6twitch14DistinctFilterINS1_20BroadcastStateSampleEEENS_9allocatorIS4_EEED1Ev, symObjAddr: 0xC29D0, symBinAddr: 0xC0324, symSize: 0x10 }
  - { offset: 0x7FB615, size: 0x8, addend: 0x0, symName: __ZNSt3__120__shared_ptr_emplaceIN6twitch14DistinctFilterINS1_20BroadcastStateSampleEEENS_9allocatorIS4_EEED0Ev, symObjAddr: 0xC29E0, symBinAddr: 0xC0334, symSize: 0x20 }
  - { offset: 0x7FB6E4, size: 0x8, addend: 0x0, symName: __ZNSt3__120__shared_ptr_emplaceIN6twitch14DistinctFilterINS1_20BroadcastStateSampleEEENS_9allocatorIS4_EEE16__on_zero_sharedEv, symObjAddr: 0xC2A00, symBinAddr: 0xC0354, symSize: 0xC }
  - { offset: 0x7FB70E, size: 0x8, addend: 0x0, symName: __ZNSt3__120__shared_ptr_emplaceIN6twitch14DistinctFilterINS1_20BroadcastStateSampleEEENS_9allocatorIS4_EEE16__on_zero_sharedEv, symObjAddr: 0xC2A00, symBinAddr: 0xC0354, symSize: 0xC }
  - { offset: 0x7FB72E, size: 0x8, addend: 0x0, symName: __ZNSt3__120__shared_ptr_emplaceIN6twitch14DistinctFilterINS1_20BroadcastStateSampleEEENS_9allocatorIS4_EEE16__on_zero_sharedEv, symObjAddr: 0xC2A00, symBinAddr: 0xC0354, symSize: 0xC }
  - { offset: 0x7FB74E, size: 0x8, addend: 0x0, symName: __ZNSt3__120__shared_ptr_emplaceIN6twitch14DistinctFilterINS1_20BroadcastStateSampleEEENS_9allocatorIS4_EEE16__on_zero_sharedEv, symObjAddr: 0xC2A00, symBinAddr: 0xC0354, symSize: 0xC }
  - { offset: 0x7FB7D7, size: 0x8, addend: 0x0, symName: __ZNSt3__120__shared_ptr_emplaceIN6twitch14DistinctFilterINS1_20BroadcastStateSampleEEENS_9allocatorIS4_EEE21__on_zero_shared_weakEv, symObjAddr: 0xC2A0C, symBinAddr: 0xC0360, symSize: 0x4 }
  - { offset: 0x7FB80C, size: 0x8, addend: 0x0, symName: __ZNSt3__120__shared_ptr_emplaceIN6twitch14DistinctFilterINS1_20BroadcastStateSampleEEENS_9allocatorIS4_EEE21__on_zero_shared_weakEv, symObjAddr: 0xC2A0C, symBinAddr: 0xC0360, symSize: 0x4 }
  - { offset: 0x7FB831, size: 0x8, addend: 0x0, symName: __ZNSt3__120__shared_ptr_emplaceIN6twitch14DistinctFilterINS1_20BroadcastStateSampleEEENS_9allocatorIS4_EEE21__on_zero_shared_weakEv, symObjAddr: 0xC2A0C, symBinAddr: 0xC0360, symSize: 0x4 }
  - { offset: 0x7FB856, size: 0x8, addend: 0x0, symName: __ZNSt3__120__shared_ptr_emplaceIN6twitch14DistinctFilterINS1_20BroadcastStateSampleEEENS_9allocatorIS4_EEE21__on_zero_shared_weakEv, symObjAddr: 0xC2A0C, symBinAddr: 0xC0360, symSize: 0x4 }
  - { offset: 0x7FB887, size: 0x8, addend: 0x0, symName: __ZNSt3__120__shared_ptr_emplaceIN6twitch14DistinctFilterINS1_20BroadcastStateSampleEEENS_9allocatorIS4_EEE21__on_zero_shared_weakEv, symObjAddr: 0xC2A0C, symBinAddr: 0xC0360, symSize: 0x4 }
  - { offset: 0x7FB8B2, size: 0x8, addend: 0x0, symName: __ZNSt3__120__shared_ptr_emplaceIN6twitch14DistinctFilterINS1_20BroadcastStateSampleEEENS_9allocatorIS4_EEE21__on_zero_shared_weakEv, symObjAddr: 0xC2A0C, symBinAddr: 0xC0360, symSize: 0x4 }
  - { offset: 0x7FBF35, size: 0x8, addend: 0x0, symName: '__ZNSt3__110__function6__funcIZN6twitch22BroadcastStatePipeline13setupInternalEvE3$_0NS_9allocatorIS4_EEFNS2_5ErrorERKNS2_20BroadcastStateSampleEEED1Ev', symObjAddr: 0xC2C70, symBinAddr: 0xC05C4, symSize: 0x4 }
  - { offset: 0x7FBF60, size: 0x8, addend: 0x0, symName: '__ZNSt3__110__function6__funcIZN6twitch22BroadcastStatePipeline13setupInternalEvE3$_0NS_9allocatorIS4_EEFNS2_5ErrorERKNS2_20BroadcastStateSampleEEED0Ev', symObjAddr: 0xC2C74, symBinAddr: 0xC05C8, symSize: 0x4 }
  - { offset: 0x7FC127, size: 0x8, addend: 0x0, symName: '__ZNKSt3__110__function6__funcIZN6twitch22BroadcastStatePipeline13setupInternalEvE3$_0NS_9allocatorIS4_EEFNS2_5ErrorERKNS2_20BroadcastStateSampleEEE7__cloneEv', symObjAddr: 0xC2C78, symBinAddr: 0xC05CC, symSize: 0x34 }
  - { offset: 0x7FC2CE, size: 0x8, addend: 0x0, symName: '__ZNKSt3__110__function6__funcIZN6twitch22BroadcastStatePipeline13setupInternalEvE3$_0NS_9allocatorIS4_EEFNS2_5ErrorERKNS2_20BroadcastStateSampleEEE7__cloneEPNS0_6__baseISB_EE', symObjAddr: 0xC2CAC, symBinAddr: 0xC0600, symSize: 0x14 }
  - { offset: 0x7FC2FA, size: 0x8, addend: 0x0, symName: '__ZNKSt3__110__function6__funcIZN6twitch22BroadcastStatePipeline13setupInternalEvE3$_0NS_9allocatorIS4_EEFNS2_5ErrorERKNS2_20BroadcastStateSampleEEE7__cloneEPNS0_6__baseISB_EE', symObjAddr: 0xC2CAC, symBinAddr: 0xC0600, symSize: 0x14 }
  - { offset: 0x7FC32C, size: 0x8, addend: 0x0, symName: '__ZNKSt3__110__function6__funcIZN6twitch22BroadcastStatePipeline13setupInternalEvE3$_0NS_9allocatorIS4_EEFNS2_5ErrorERKNS2_20BroadcastStateSampleEEE7__cloneEPNS0_6__baseISB_EE', symObjAddr: 0xC2CAC, symBinAddr: 0xC0600, symSize: 0x14 }
  - { offset: 0x7FC35E, size: 0x8, addend: 0x0, symName: '__ZNKSt3__110__function6__funcIZN6twitch22BroadcastStatePipeline13setupInternalEvE3$_0NS_9allocatorIS4_EEFNS2_5ErrorERKNS2_20BroadcastStateSampleEEE7__cloneEPNS0_6__baseISB_EE', symObjAddr: 0xC2CAC, symBinAddr: 0xC0600, symSize: 0x14 }
  - { offset: 0x7FC374, size: 0x8, addend: 0x0, symName: '__ZNKSt3__110__function6__funcIZN6twitch22BroadcastStatePipeline13setupInternalEvE3$_0NS_9allocatorIS4_EEFNS2_5ErrorERKNS2_20BroadcastStateSampleEEE7__cloneEPNS0_6__baseISB_EE', symObjAddr: 0xC2CAC, symBinAddr: 0xC0600, symSize: 0x14 }
  - { offset: 0x7FC389, size: 0x8, addend: 0x0, symName: '__ZNKSt3__110__function6__funcIZN6twitch22BroadcastStatePipeline13setupInternalEvE3$_0NS_9allocatorIS4_EEFNS2_5ErrorERKNS2_20BroadcastStateSampleEEE7__cloneEPNS0_6__baseISB_EE', symObjAddr: 0xC2CAC, symBinAddr: 0xC0600, symSize: 0x14 }
  - { offset: 0x7FC39E, size: 0x8, addend: 0x0, symName: '__ZNKSt3__110__function6__funcIZN6twitch22BroadcastStatePipeline13setupInternalEvE3$_0NS_9allocatorIS4_EEFNS2_5ErrorERKNS2_20BroadcastStateSampleEEE7__cloneEPNS0_6__baseISB_EE', symObjAddr: 0xC2CAC, symBinAddr: 0xC0600, symSize: 0x14 }
  - { offset: 0x7FC3B3, size: 0x8, addend: 0x0, symName: '__ZNKSt3__110__function6__funcIZN6twitch22BroadcastStatePipeline13setupInternalEvE3$_0NS_9allocatorIS4_EEFNS2_5ErrorERKNS2_20BroadcastStateSampleEEE7__cloneEPNS0_6__baseISB_EE', symObjAddr: 0xC2CAC, symBinAddr: 0xC0600, symSize: 0x14 }
  - { offset: 0x7FC3CB, size: 0x8, addend: 0x0, symName: '__ZNSt3__110__function6__funcIZN6twitch22BroadcastStatePipeline13setupInternalEvE3$_0NS_9allocatorIS4_EEFNS2_5ErrorERKNS2_20BroadcastStateSampleEEE7destroyEv', symObjAddr: 0xC2CC0, symBinAddr: 0xC0614, symSize: 0x4 }
  - { offset: 0x7FC41E, size: 0x8, addend: 0x0, symName: '__ZNSt3__110__function6__funcIZN6twitch22BroadcastStatePipeline13setupInternalEvE3$_0NS_9allocatorIS4_EEFNS2_5ErrorERKNS2_20BroadcastStateSampleEEE18destroy_deallocateEv', symObjAddr: 0xC2CC4, symBinAddr: 0xC0618, symSize: 0x4 }
  - { offset: 0x7FC455, size: 0x8, addend: 0x0, symName: '__ZNSt3__110__function6__funcIZN6twitch22BroadcastStatePipeline13setupInternalEvE3$_0NS_9allocatorIS4_EEFNS2_5ErrorERKNS2_20BroadcastStateSampleEEE18destroy_deallocateEv', symObjAddr: 0xC2CC4, symBinAddr: 0xC0618, symSize: 0x4 }
  - { offset: 0x7FC47A, size: 0x8, addend: 0x0, symName: '__ZNSt3__110__function6__funcIZN6twitch22BroadcastStatePipeline13setupInternalEvE3$_0NS_9allocatorIS4_EEFNS2_5ErrorERKNS2_20BroadcastStateSampleEEE18destroy_deallocateEv', symObjAddr: 0xC2CC4, symBinAddr: 0xC0618, symSize: 0x4 }
  - { offset: 0x7FC4A9, size: 0x8, addend: 0x0, symName: '__ZNSt3__110__function6__funcIZN6twitch22BroadcastStatePipeline13setupInternalEvE3$_0NS_9allocatorIS4_EEFNS2_5ErrorERKNS2_20BroadcastStateSampleEEE18destroy_deallocateEv', symObjAddr: 0xC2CC4, symBinAddr: 0xC0618, symSize: 0x4 }
  - { offset: 0x7FC4D2, size: 0x8, addend: 0x0, symName: '__ZNSt3__110__function6__funcIZN6twitch22BroadcastStatePipeline13setupInternalEvE3$_0NS_9allocatorIS4_EEFNS2_5ErrorERKNS2_20BroadcastStateSampleEEE18destroy_deallocateEv', symObjAddr: 0xC2CC4, symBinAddr: 0xC0618, symSize: 0x4 }
  - { offset: 0x7FC5AA, size: 0x8, addend: 0x0, symName: '__ZNSt3__110__function6__funcIZN6twitch22BroadcastStatePipeline13setupInternalEvE3$_0NS_9allocatorIS4_EEFNS2_5ErrorERKNS2_20BroadcastStateSampleEEEclESA_', symObjAddr: 0xC2CC8, symBinAddr: 0xC061C, symSize: 0x50 }
  - { offset: 0x7FD02F, size: 0x8, addend: 0x0, symName: __ZN6twitch3BusINS_20BroadcastStateSampleEE7receiveERKS1_, symObjAddr: 0xC2D18, symBinAddr: 0xC066C, symSize: 0x730 }
  - { offset: 0x8005E1, size: 0x8, addend: 0x0, symName: __ZN6twitch3BusINS_20BroadcastStateSampleEED1Ev, symObjAddr: 0xC3448, symBinAddr: 0xC0D9C, symSize: 0x64 }
  - { offset: 0x800B83, size: 0x8, addend: 0x0, symName: __ZN6twitch3BusINS_20BroadcastStateSampleEED1Ev, symObjAddr: 0xC3448, symBinAddr: 0xC0D9C, symSize: 0x64 }
  - { offset: 0x800C8B, size: 0x8, addend: 0x0, symName: __ZN6twitch3BusINS_20BroadcastStateSampleEED0Ev, symObjAddr: 0xC34AC, symBinAddr: 0xC0E00, symSize: 0x64 }
  - { offset: 0x8010E1, size: 0x8, addend: 0x0, symName: __ZN6twitch3BusINS_20BroadcastStateSampleEE9setOutputERKNSt3__110shared_ptrINS_8ReceiverIS1_NS_5ErrorEEEEE, symObjAddr: 0xC3510, symBinAddr: 0xC0E64, symSize: 0x144 }
  - { offset: 0x801812, size: 0x8, addend: 0x0, symName: __ZN6twitch3BusINS_20BroadcastStateSampleEE11unsetOutputERKNSt3__110shared_ptrINS_8ReceiverIS1_NS_5ErrorEEEEE, symObjAddr: 0xC3654, symBinAddr: 0xC0FA8, symSize: 0x1E4 }
  - { offset: 0x8018EF, size: 0x8, addend: 0x0, symName: __ZN6twitch3BusINS_20BroadcastStateSampleEE11unsetOutputERKNSt3__110shared_ptrINS_8ReceiverIS1_NS_5ErrorEEEEE, symObjAddr: 0xC3654, symBinAddr: 0xC0FA8, symSize: 0x1E4 }
  - { offset: 0x801DB3, size: 0x8, addend: 0x0, symName: __ZThn8_N6twitch3BusINS_20BroadcastStateSampleEE9setOutputERKNSt3__110shared_ptrINS_8ReceiverIS1_NS_5ErrorEEEEE, symObjAddr: 0xC3838, symBinAddr: 0xC118C, symSize: 0x8 }
  - { offset: 0x801DD8, size: 0x8, addend: 0x0, symName: __ZThn8_N6twitch3BusINS_20BroadcastStateSampleEE11unsetOutputERKNSt3__110shared_ptrINS_8ReceiverIS1_NS_5ErrorEEEEE, symObjAddr: 0xC3840, symBinAddr: 0xC1194, symSize: 0x8 }
  - { offset: 0x801DFD, size: 0x8, addend: 0x0, symName: __ZThn8_N6twitch3BusINS_20BroadcastStateSampleEED1Ev, symObjAddr: 0xC3848, symBinAddr: 0xC119C, symSize: 0x58 }
  - { offset: 0x801F18, size: 0x8, addend: 0x0, symName: __ZThn8_N6twitch3BusINS_20BroadcastStateSampleEED0Ev, symObjAddr: 0xC38A0, symBinAddr: 0xC11F4, symSize: 0x68 }
  - { offset: 0x802039, size: 0x8, addend: 0x0, symName: __ZThn16_N6twitch3BusINS_20BroadcastStateSampleEED1Ev, symObjAddr: 0xC3908, symBinAddr: 0xC125C, symSize: 0x58 }
  - { offset: 0x80213A, size: 0x8, addend: 0x0, symName: __ZThn16_N6twitch3BusINS_20BroadcastStateSampleEED0Ev, symObjAddr: 0xC3960, symBinAddr: 0xC12B4, symSize: 0x64 }
  - { offset: 0x802403, size: 0x8, addend: 0x0, symName: __ZNSt3__120__shared_ptr_emplaceIN6twitch3BusINS1_20BroadcastStateSampleEEENS_9allocatorIS4_EEED1Ev, symObjAddr: 0xC3D18, symBinAddr: 0xC1318, symSize: 0x10 }
  - { offset: 0x802427, size: 0x8, addend: 0x0, symName: __ZNSt3__120__shared_ptr_emplaceIN6twitch3BusINS1_20BroadcastStateSampleEEENS_9allocatorIS4_EEED1Ev, symObjAddr: 0xC3D18, symBinAddr: 0xC1318, symSize: 0x10 }
  - { offset: 0x80245E, size: 0x8, addend: 0x0, symName: __ZNSt3__120__shared_ptr_emplaceIN6twitch3BusINS1_20BroadcastStateSampleEEENS_9allocatorIS4_EEED0Ev, symObjAddr: 0xC3D28, symBinAddr: 0xC1328, symSize: 0x20 }
  - { offset: 0x80252D, size: 0x8, addend: 0x0, symName: __ZNSt3__120__shared_ptr_emplaceIN6twitch3BusINS1_20BroadcastStateSampleEEENS_9allocatorIS4_EEE16__on_zero_sharedEv, symObjAddr: 0xC3D48, symBinAddr: 0xC1348, symSize: 0xC }
  - { offset: 0x802557, size: 0x8, addend: 0x0, symName: __ZNSt3__120__shared_ptr_emplaceIN6twitch3BusINS1_20BroadcastStateSampleEEENS_9allocatorIS4_EEE16__on_zero_sharedEv, symObjAddr: 0xC3D48, symBinAddr: 0xC1348, symSize: 0xC }
  - { offset: 0x802577, size: 0x8, addend: 0x0, symName: __ZNSt3__120__shared_ptr_emplaceIN6twitch3BusINS1_20BroadcastStateSampleEEENS_9allocatorIS4_EEE16__on_zero_sharedEv, symObjAddr: 0xC3D48, symBinAddr: 0xC1348, symSize: 0xC }
  - { offset: 0x802597, size: 0x8, addend: 0x0, symName: __ZNSt3__120__shared_ptr_emplaceIN6twitch3BusINS1_20BroadcastStateSampleEEENS_9allocatorIS4_EEE16__on_zero_sharedEv, symObjAddr: 0xC3D48, symBinAddr: 0xC1348, symSize: 0xC }
  - { offset: 0x802620, size: 0x8, addend: 0x0, symName: __ZNSt3__120__shared_ptr_emplaceIN6twitch3BusINS1_20BroadcastStateSampleEEENS_9allocatorIS4_EEE21__on_zero_shared_weakEv, symObjAddr: 0xC3D54, symBinAddr: 0xC1354, symSize: 0x4 }
  - { offset: 0x802655, size: 0x8, addend: 0x0, symName: __ZNSt3__120__shared_ptr_emplaceIN6twitch3BusINS1_20BroadcastStateSampleEEENS_9allocatorIS4_EEE21__on_zero_shared_weakEv, symObjAddr: 0xC3D54, symBinAddr: 0xC1354, symSize: 0x4 }
  - { offset: 0x80267A, size: 0x8, addend: 0x0, symName: __ZNSt3__120__shared_ptr_emplaceIN6twitch3BusINS1_20BroadcastStateSampleEEENS_9allocatorIS4_EEE21__on_zero_shared_weakEv, symObjAddr: 0xC3D54, symBinAddr: 0xC1354, symSize: 0x4 }
  - { offset: 0x80269F, size: 0x8, addend: 0x0, symName: __ZNSt3__120__shared_ptr_emplaceIN6twitch3BusINS1_20BroadcastStateSampleEEENS_9allocatorIS4_EEE21__on_zero_shared_weakEv, symObjAddr: 0xC3D54, symBinAddr: 0xC1354, symSize: 0x4 }
  - { offset: 0x8026CF, size: 0x8, addend: 0x0, symName: __ZNSt3__120__shared_ptr_emplaceIN6twitch3BusINS1_20BroadcastStateSampleEEENS_9allocatorIS4_EEE21__on_zero_shared_weakEv, symObjAddr: 0xC3D54, symBinAddr: 0xC1354, symSize: 0x4 }
  - { offset: 0x8026F9, size: 0x8, addend: 0x0, symName: __ZNSt3__120__shared_ptr_emplaceIN6twitch3BusINS1_20BroadcastStateSampleEEENS_9allocatorIS4_EEE21__on_zero_shared_weakEv, symObjAddr: 0xC3D54, symBinAddr: 0xC1354, symSize: 0x4 }
  - { offset: 0xBC624C, size: 0x8, addend: 0x0, symName: __ZN6twitch17AsyncHttpResponseD1Ev, symObjAddr: 0x158428, symBinAddr: 0x151F28, symSize: 0x4 }
  - { offset: 0xBCE3CD, size: 0x8, addend: 0x0, symName: __ZN6twitch17AsyncHttpResponse4readENSt3__18functionIFvPKhmbEEENS2_IFviRKNS1_12basic_stringIcNS1_11char_traitsIcEENS1_9allocatorIcEEEEEEE, symObjAddr: 0x158480, symBinAddr: 0x151F80, symSize: 0x740 }
  - { offset: 0xBD1158, size: 0x8, addend: 0x0, symName: __ZN6twitch17AsyncHttpResponseD1Ev, symObjAddr: 0x158428, symBinAddr: 0x151F28, symSize: 0x4 }
  - { offset: 0xBD117C, size: 0x8, addend: 0x0, symName: __ZN6twitch17AsyncHttpResponseD1Ev, symObjAddr: 0x158428, symBinAddr: 0x151F28, symSize: 0x4 }
  - { offset: 0xBD1187, size: 0x8, addend: 0x0, symName: __ZN6twitch17AsyncHttpResponseD2Ev, symObjAddr: 0x159FDC, symBinAddr: 0x153940, symSize: 0x54 }
  - { offset: 0xBD12A6, size: 0x8, addend: 0x0, symName: __ZN6twitch17AsyncHttpResponseD0Ev, symObjAddr: 0x15842C, symBinAddr: 0x151F2C, symSize: 0x14 }
  - { offset: 0xBD1311, size: 0x8, addend: 0x0, symName: __ZNK6twitch17AsyncHttpResponse9getHeaderERKNSt3__112basic_stringIcNS1_11char_traitsIcEENS1_9allocatorIcEEEE, symObjAddr: 0x158440, symBinAddr: 0x151F40, symSize: 0x10 }
  - { offset: 0xBD134B, size: 0x8, addend: 0x0, symName: __ZNK6twitch17AsyncHttpResponse9getHeaderERKNSt3__112basic_stringIcNS1_11char_traitsIcEENS1_9allocatorIcEEEE, symObjAddr: 0x158440, symBinAddr: 0x151F40, symSize: 0x10 }
  - { offset: 0xBD1374, size: 0x8, addend: 0x0, symName: __ZNK6twitch17AsyncHttpResponse9getStatusEv, symObjAddr: 0x158450, symBinAddr: 0x151F50, symSize: 0x10 }
  - { offset: 0xBD13A0, size: 0x8, addend: 0x0, symName: __ZNK6twitch17AsyncHttpResponse9getStatusEv, symObjAddr: 0x158450, symBinAddr: 0x151F50, symSize: 0x10 }
  - { offset: 0xBD13C9, size: 0x8, addend: 0x0, symName: __ZNK6twitch17AsyncHttpResponse6getUrlEv, symObjAddr: 0x158460, symBinAddr: 0x151F60, symSize: 0x10 }
  - { offset: 0xBD13F5, size: 0x8, addend: 0x0, symName: __ZNK6twitch17AsyncHttpResponse6getUrlEv, symObjAddr: 0x158460, symBinAddr: 0x151F60, symSize: 0x10 }
  - { offset: 0xBD141E, size: 0x8, addend: 0x0, symName: __ZN6twitch17AsyncHttpResponse14setReadTimeoutENSt3__16chrono8durationIxNS1_5ratioILl1ELl1EEEEE, symObjAddr: 0x158470, symBinAddr: 0x151F70, symSize: 0x10 }
  - { offset: 0xBD1458, size: 0x8, addend: 0x0, symName: __ZN6twitch17AsyncHttpResponse14setReadTimeoutENSt3__16chrono8durationIxNS1_5ratioILl1ELl1EEEEE, symObjAddr: 0x158470, symBinAddr: 0x151F70, symSize: 0x10 }
  - { offset: 0xBD2567, size: 0x8, addend: 0x0, symName: '__ZNSt3__18functionIFviRKNS_12basic_stringIcNS_11char_traitsIcEENS_9allocatorIcEEEEEEC1IZN6twitch17AsyncHttpResponse4readENS0_IFvPKhmbEEESA_E3$_0vEET_', symObjAddr: 0x158BC0, symBinAddr: 0x1526C0, symSize: 0xA0 }
  - { offset: 0xBD2DBE, size: 0x8, addend: 0x0, symName: '__ZNSt3__110__function6__funcIZN6twitch17AsyncHttpResponse4readENS_8functionIFvPKhmbEEENS4_IFviRKNS_12basic_stringIcNS_11char_traitsIcEENS_9allocatorIcEEEEEEEE3$_0NSC_ISJ_EESH_ED1Ev', symObjAddr: 0x158C60, symBinAddr: 0x152760, symSize: 0x74 }
  - { offset: 0xBD3010, size: 0x8, addend: 0x0, symName: '__ZNSt3__110__function6__funcIZN6twitch17AsyncHttpResponse4readENS_8functionIFvPKhmbEEENS4_IFviRKNS_12basic_stringIcNS_11char_traitsIcEENS_9allocatorIcEEEEEEEE3$_0NSC_ISJ_EESH_ED0Ev', symObjAddr: 0x158CD4, symBinAddr: 0x1527D4, symSize: 0x74 }
  - { offset: 0xBD33E2, size: 0x8, addend: 0x0, symName: '__ZNKSt3__110__function6__funcIZN6twitch17AsyncHttpResponse4readENS_8functionIFvPKhmbEEENS4_IFviRKNS_12basic_stringIcNS_11char_traitsIcEENS_9allocatorIcEEEEEEEE3$_0NSC_ISJ_EESH_E7__cloneEv', symObjAddr: 0x158D48, symBinAddr: 0x152848, symSize: 0x40 }
  - { offset: 0xBD3865, size: 0x8, addend: 0x0, symName: '__ZNKSt3__110__function6__funcIZN6twitch17AsyncHttpResponse4readENS_8functionIFvPKhmbEEENS4_IFviRKNS_12basic_stringIcNS_11char_traitsIcEENS_9allocatorIcEEEEEEEE3$_0NSC_ISJ_EESH_E7__cloneEPNS0_6__baseISH_EE', symObjAddr: 0x158D88, symBinAddr: 0x152888, symSize: 0x1C }
  - { offset: 0xBD39C8, size: 0x8, addend: 0x0, symName: '__ZNSt3__110__function6__funcIZN6twitch17AsyncHttpResponse4readENS_8functionIFvPKhmbEEENS4_IFviRKNS_12basic_stringIcNS_11char_traitsIcEENS_9allocatorIcEEEEEEEE3$_0NSC_ISJ_EESH_E7destroyEv', symObjAddr: 0x158DA4, symBinAddr: 0x1528A4, symSize: 0x8 }
  - { offset: 0xBD3B23, size: 0x8, addend: 0x0, symName: '__ZNSt3__110__function6__funcIZN6twitch17AsyncHttpResponse4readENS_8functionIFvPKhmbEEENS4_IFviRKNS_12basic_stringIcNS_11char_traitsIcEENS_9allocatorIcEEEEEEEE3$_0NSC_ISJ_EESH_E18destroy_deallocateEv', symObjAddr: 0x158DAC, symBinAddr: 0x1528AC, symSize: 0x28 }
  - { offset: 0xBD4248, size: 0x8, addend: 0x0, symName: '__ZNSt3__110__function6__funcIZN6twitch17AsyncHttpResponse4readENS_8functionIFvPKhmbEEENS4_IFviRKNS_12basic_stringIcNS_11char_traitsIcEENS_9allocatorIcEEEEEEEE3$_0NSC_ISJ_EESH_EclEOiSG_', symObjAddr: 0x158DD4, symBinAddr: 0x1528D4, symSize: 0x208 }
  - { offset: 0xBD4D6B, size: 0x8, addend: 0x0, symName: '__ZNSt3__110__function6__funcIZZN6twitch17AsyncHttpResponse4readENS_8functionIFvPKhmbEEENS4_IFviRKNS_12basic_stringIcNS_11char_traitsIcEENS_9allocatorIcEEEEEEEENK3$_0clEiSG_EUlvE_NSC_ISK_EEFvvEED1Ev', symObjAddr: 0x158FDC, symBinAddr: 0x152ADC, symSize: 0x6C }
  - { offset: 0xBD5061, size: 0x8, addend: 0x0, symName: '__ZNSt3__110__function6__funcIZZN6twitch17AsyncHttpResponse4readENS_8functionIFvPKhmbEEENS4_IFviRKNS_12basic_stringIcNS_11char_traitsIcEENS_9allocatorIcEEEEEEEENK3$_0clEiSG_EUlvE_NSC_ISK_EEFvvEED0Ev', symObjAddr: 0x159048, symBinAddr: 0x152B48, symSize: 0x6C }
  - { offset: 0xBD54D7, size: 0x8, addend: 0x0, symName: '__ZNKSt3__110__function6__funcIZZN6twitch17AsyncHttpResponse4readENS_8functionIFvPKhmbEEENS4_IFviRKNS_12basic_stringIcNS_11char_traitsIcEENS_9allocatorIcEEEEEEEENK3$_0clEiSG_EUlvE_NSC_ISK_EEFvvEE7__cloneEv', symObjAddr: 0x1590B4, symBinAddr: 0x152BB4, symSize: 0x40 }
  - { offset: 0xBD590D, size: 0x8, addend: 0x0, symName: '__ZNKSt3__110__function6__funcIZZN6twitch17AsyncHttpResponse4readENS_8functionIFvPKhmbEEENS4_IFviRKNS_12basic_stringIcNS_11char_traitsIcEENS_9allocatorIcEEEEEEEENK3$_0clEiSG_EUlvE_NSC_ISK_EEFvvEE7__cloneEPNS0_6__baseISM_EE', symObjAddr: 0x1590F4, symBinAddr: 0x152BF4, symSize: 0x1C }
  - { offset: 0xBD5A70, size: 0x8, addend: 0x0, symName: '__ZNSt3__110__function6__funcIZZN6twitch17AsyncHttpResponse4readENS_8functionIFvPKhmbEEENS4_IFviRKNS_12basic_stringIcNS_11char_traitsIcEENS_9allocatorIcEEEEEEEENK3$_0clEiSG_EUlvE_NSC_ISK_EEFvvEE7destroyEv', symObjAddr: 0x159110, symBinAddr: 0x152C10, symSize: 0x8 }
  - { offset: 0xBD5C33, size: 0x8, addend: 0x0, symName: '__ZNSt3__110__function6__funcIZZN6twitch17AsyncHttpResponse4readENS_8functionIFvPKhmbEEENS4_IFviRKNS_12basic_stringIcNS_11char_traitsIcEENS_9allocatorIcEEEEEEEENK3$_0clEiSG_EUlvE_NSC_ISK_EEFvvEE18destroy_deallocateEv', symObjAddr: 0x159118, symBinAddr: 0x152C18, symSize: 0x28 }
  - { offset: 0xBD5DEB, size: 0x8, addend: 0x0, symName: '__ZNSt3__110__function6__funcIZZN6twitch17AsyncHttpResponse4readENS_8functionIFvPKhmbEEENS4_IFviRKNS_12basic_stringIcNS_11char_traitsIcEENS_9allocatorIcEEEEEEEENK3$_0clEiSG_EUlvE_NSC_ISK_EEFvvEEclEv', symObjAddr: 0x159140, symBinAddr: 0x152C40, symSize: 0x44 }
  - { offset: 0xBD5FD3, size: 0x8, addend: 0x0, symName: '__ZNSt3__110__function6__funcIZN6twitch17AsyncHttpResponse4readENS_8functionIFvPKhmbEEENS4_IFviRKNS_12basic_stringIcNS_11char_traitsIcEENS_9allocatorIcEEEEEEEE3$_2NSC_ISJ_EEFvvEED1Ev', symObjAddr: 0x159320, symBinAddr: 0x152C84, symSize: 0xAC }
  - { offset: 0xBD62F8, size: 0x8, addend: 0x0, symName: '__ZNSt3__110__function6__funcIZN6twitch17AsyncHttpResponse4readENS_8functionIFvPKhmbEEENS4_IFviRKNS_12basic_stringIcNS_11char_traitsIcEENS_9allocatorIcEEEEEEEE3$_2NSC_ISJ_EEFvvEED0Ev', symObjAddr: 0x1593CC, symBinAddr: 0x152D30, symSize: 0xAC }
  - { offset: 0xBD679B, size: 0x8, addend: 0x0, symName: '__ZNKSt3__110__function6__funcIZN6twitch17AsyncHttpResponse4readENS_8functionIFvPKhmbEEENS4_IFviRKNS_12basic_stringIcNS_11char_traitsIcEENS_9allocatorIcEEEEEEEE3$_2NSC_ISJ_EEFvvEE7__cloneEv', symObjAddr: 0x159478, symBinAddr: 0x152DDC, symSize: 0x40 }
  - { offset: 0xBD6944, size: 0x8, addend: 0x0, symName: '__ZNSt3__122__compressed_pair_elemIZN6twitch17AsyncHttpResponse4readENS_8functionIFvPKhmbEEENS3_IFviRKNS_12basic_stringIcNS_11char_traitsIcEENS_9allocatorIcEEEEEEEE3$_2Li0ELb0EEC2B8nn180100IJRKSI_EJLm0EEEENS_21piecewise_construct_tENS_5tupleIJDpT_EEENS_15__tuple_indicesIJXspT0_EEEE', symObjAddr: 0x159720, symBinAddr: 0x153084, symSize: 0x9C }
  - { offset: 0xBD6E96, size: 0x8, addend: 0x0, symName: '__ZNKSt3__110__function6__funcIZN6twitch17AsyncHttpResponse4readENS_8functionIFvPKhmbEEENS4_IFviRKNS_12basic_stringIcNS_11char_traitsIcEENS_9allocatorIcEEEEEEEE3$_2NSC_ISJ_EEFvvEE7__cloneEPNS0_6__baseISL_EE', symObjAddr: 0x1594B8, symBinAddr: 0x152E1C, symSize: 0x1C }
  - { offset: 0xBD6FF9, size: 0x8, addend: 0x0, symName: '__ZNSt3__110__function6__funcIZN6twitch17AsyncHttpResponse4readENS_8functionIFvPKhmbEEENS4_IFviRKNS_12basic_stringIcNS_11char_traitsIcEENS_9allocatorIcEEEEEEEE3$_2NSC_ISJ_EEFvvEE7destroyEv', symObjAddr: 0x1594D4, symBinAddr: 0x152E38, symSize: 0x8 }
  - { offset: 0xBD7030, size: 0x8, addend: 0x0, symName: '__ZNSt3__110__function12__alloc_funcIZN6twitch17AsyncHttpResponse4readENS_8functionIFvPKhmbEEENS4_IFviRKNS_12basic_stringIcNS_11char_traitsIcEENS_9allocatorIcEEEEEEEE3$_2NSC_ISJ_EEFvvEE7destroyB8nn180100Ev', symObjAddr: 0x159688, symBinAddr: 0x152FEC, symSize: 0x98 }
  - { offset: 0xBD7337, size: 0x8, addend: 0x0, symName: '__ZNSt3__110__function6__funcIZN6twitch17AsyncHttpResponse4readENS_8functionIFvPKhmbEEENS4_IFviRKNS_12basic_stringIcNS_11char_traitsIcEENS_9allocatorIcEEEEEEEE3$_2NSC_ISJ_EEFvvEE18destroy_deallocateEv', symObjAddr: 0x1594DC, symBinAddr: 0x152E40, symSize: 0x28 }
  - { offset: 0xBD748D, size: 0x8, addend: 0x0, symName: '__ZNSt3__110__function6__funcIZN6twitch17AsyncHttpResponse4readENS_8functionIFvPKhmbEEENS4_IFviRKNS_12basic_stringIcNS_11char_traitsIcEENS_9allocatorIcEEEEEEEE3$_2NSC_ISJ_EEFvvEEclEv', symObjAddr: 0x159504, symBinAddr: 0x152E68, symSize: 0x184 }
  - { offset: 0xBD7B69, size: 0x8, addend: 0x0, symName: '__ZNSt3__110__function6__funcIZN6twitch17AsyncHttpResponse4readENS_8functionIFvPKhmbEEENS4_IFviRKNS_12basic_stringIcNS_11char_traitsIcEENS_9allocatorIcEEEEEEEE3$_1NSC_ISJ_EES7_ED1Ev', symObjAddr: 0x1597BC, symBinAddr: 0x153120, symSize: 0x7C }
  - { offset: 0xBD7DE9, size: 0x8, addend: 0x0, symName: '__ZNSt3__110__function6__funcIZN6twitch17AsyncHttpResponse4readENS_8functionIFvPKhmbEEENS4_IFviRKNS_12basic_stringIcNS_11char_traitsIcEENS_9allocatorIcEEEEEEEE3$_1NSC_ISJ_EES7_ED0Ev', symObjAddr: 0x159838, symBinAddr: 0x15319C, symSize: 0x7C }
  - { offset: 0xBD81E7, size: 0x8, addend: 0x0, symName: '__ZNKSt3__110__function6__funcIZN6twitch17AsyncHttpResponse4readENS_8functionIFvPKhmbEEENS4_IFviRKNS_12basic_stringIcNS_11char_traitsIcEENS_9allocatorIcEEEEEEEE3$_1NSC_ISJ_EES7_E7__cloneEv', symObjAddr: 0x1598B4, symBinAddr: 0x153218, symSize: 0x40 }
  - { offset: 0xBD8390, size: 0x8, addend: 0x0, symName: '__ZNSt3__122__compressed_pair_elemIZN6twitch17AsyncHttpResponse4readENS_8functionIFvPKhmbEEENS3_IFviRKNS_12basic_stringIcNS_11char_traitsIcEENS_9allocatorIcEEEEEEEE3$_1Li0ELb0EEC2B8nn180100IJRKSI_EJLm0EEEENS_21piecewise_construct_tENS_5tupleIJDpT_EEENS_15__tuple_indicesIJXspT0_EEEE', symObjAddr: 0x159F4C, symBinAddr: 0x1538B0, symSize: 0x90 }
  - { offset: 0xBD880C, size: 0x8, addend: 0x0, symName: '__ZNKSt3__110__function6__funcIZN6twitch17AsyncHttpResponse4readENS_8functionIFvPKhmbEEENS4_IFviRKNS_12basic_stringIcNS_11char_traitsIcEENS_9allocatorIcEEEEEEEE3$_1NSC_ISJ_EES7_E7__cloneEPNS0_6__baseIS7_EE', symObjAddr: 0x1598F4, symBinAddr: 0x153258, symSize: 0x1C }
  - { offset: 0xBD896F, size: 0x8, addend: 0x0, symName: '__ZNSt3__110__function6__funcIZN6twitch17AsyncHttpResponse4readENS_8functionIFvPKhmbEEENS4_IFviRKNS_12basic_stringIcNS_11char_traitsIcEENS_9allocatorIcEEEEEEEE3$_1NSC_ISJ_EES7_E7destroyEv', symObjAddr: 0x159910, symBinAddr: 0x153274, symSize: 0x8 }
  - { offset: 0xBD89A6, size: 0x8, addend: 0x0, symName: '__ZNSt3__110__function12__alloc_funcIZN6twitch17AsyncHttpResponse4readENS_8functionIFvPKhmbEEENS4_IFviRKNS_12basic_stringIcNS_11char_traitsIcEENS_9allocatorIcEEEEEEEE3$_1NSC_ISJ_EES7_E7destroyB8nn180100Ev', symObjAddr: 0x159ED8, symBinAddr: 0x15383C, symSize: 0x74 }
  - { offset: 0xBD8BDA, size: 0x8, addend: 0x0, symName: '__ZNSt3__110__function6__funcIZN6twitch17AsyncHttpResponse4readENS_8functionIFvPKhmbEEENS4_IFviRKNS_12basic_stringIcNS_11char_traitsIcEENS_9allocatorIcEEEEEEEE3$_1NSC_ISJ_EES7_E18destroy_deallocateEv', symObjAddr: 0x159918, symBinAddr: 0x15327C, symSize: 0x28 }
  - { offset: 0xBD977A, size: 0x8, addend: 0x0, symName: '__ZNSt3__110__function6__funcIZN6twitch17AsyncHttpResponse4readENS_8functionIFvPKhmbEEENS4_IFviRKNS_12basic_stringIcNS_11char_traitsIcEENS_9allocatorIcEEEEEEEE3$_1NSC_ISJ_EES7_EclEOS6_OmOb', symObjAddr: 0x159940, symBinAddr: 0x1532A4, symSize: 0x330 }
  - { offset: 0xBDA981, size: 0x8, addend: 0x0, symName: '__ZNSt3__110__function6__funcIZZN6twitch17AsyncHttpResponse4readENS_8functionIFvPKhmbEEENS4_IFviRKNS_12basic_stringIcNS_11char_traitsIcEENS_9allocatorIcEEEEEEEEN3$_1clES6_mbEUlvE_NSC_ISK_EEFvvEED1Ev', symObjAddr: 0x159C70, symBinAddr: 0x1535D4, symSize: 0x64 }
  - { offset: 0xBDAB63, size: 0x8, addend: 0x0, symName: '__ZNSt3__110__function6__funcIZZN6twitch17AsyncHttpResponse4readENS_8functionIFvPKhmbEEENS4_IFviRKNS_12basic_stringIcNS_11char_traitsIcEENS_9allocatorIcEEEEEEEEN3$_1clES6_mbEUlvE_NSC_ISK_EEFvvEED0Ev', symObjAddr: 0x159CD4, symBinAddr: 0x153638, symSize: 0x64 }
  - { offset: 0xBDAF54, size: 0x8, addend: 0x0, symName: '__ZNKSt3__110__function6__funcIZZN6twitch17AsyncHttpResponse4readENS_8functionIFvPKhmbEEENS4_IFviRKNS_12basic_stringIcNS_11char_traitsIcEENS_9allocatorIcEEEEEEEEN3$_1clES6_mbEUlvE_NSC_ISK_EEFvvEE7__cloneEv', symObjAddr: 0x159D38, symBinAddr: 0x15369C, symSize: 0x74 }
  - { offset: 0xBDB40B, size: 0x8, addend: 0x0, symName: '__ZNKSt3__110__function6__funcIZZN6twitch17AsyncHttpResponse4readENS_8functionIFvPKhmbEEENS4_IFviRKNS_12basic_stringIcNS_11char_traitsIcEENS_9allocatorIcEEEEEEEEN3$_1clES6_mbEUlvE_NSC_ISK_EEFvvEE7__cloneEPNS0_6__baseISM_EE', symObjAddr: 0x159DAC, symBinAddr: 0x153710, symSize: 0x60 }
  - { offset: 0xBDB738, size: 0x8, addend: 0x0, symName: '__ZNSt3__110__function6__funcIZZN6twitch17AsyncHttpResponse4readENS_8functionIFvPKhmbEEENS4_IFviRKNS_12basic_stringIcNS_11char_traitsIcEENS_9allocatorIcEEEEEEEEN3$_1clES6_mbEUlvE_NSC_ISK_EEFvvEE7destroyEv', symObjAddr: 0x159E0C, symBinAddr: 0x153770, symSize: 0x5C }
  - { offset: 0xBDB90B, size: 0x8, addend: 0x0, symName: '__ZNSt3__110__function6__funcIZZN6twitch17AsyncHttpResponse4readENS_8functionIFvPKhmbEEENS4_IFviRKNS_12basic_stringIcNS_11char_traitsIcEENS_9allocatorIcEEEEEEEEN3$_1clES6_mbEUlvE_NSC_ISK_EEFvvEE18destroy_deallocateEv', symObjAddr: 0x159E68, symBinAddr: 0x1537CC, symSize: 0x58 }
  - { offset: 0xBDBBFF, size: 0x8, addend: 0x0, symName: '__ZNSt3__110__function6__funcIZZN6twitch17AsyncHttpResponse4readENS_8functionIFvPKhmbEEENS4_IFviRKNS_12basic_stringIcNS_11char_traitsIcEENS_9allocatorIcEEEEEEEEN3$_1clES6_mbEUlvE_NSC_ISK_EEFvvEEclEv', symObjAddr: 0x159EC0, symBinAddr: 0x153824, symSize: 0x18 }
  - { offset: 0xBDBC2B, size: 0x8, addend: 0x0, symName: '__ZNSt3__110__function6__funcIZZN6twitch17AsyncHttpResponse4readENS_8functionIFvPKhmbEEENS4_IFviRKNS_12basic_stringIcNS_11char_traitsIcEENS_9allocatorIcEEEEEEEEN3$_1clES6_mbEUlvE_NSC_ISK_EEFvvEEclEv', symObjAddr: 0x159EC0, symBinAddr: 0x153824, symSize: 0x18 }
  - { offset: 0xBDBC4B, size: 0x8, addend: 0x0, symName: '__ZNSt3__110__function6__funcIZZN6twitch17AsyncHttpResponse4readENS_8functionIFvPKhmbEEENS4_IFviRKNS_12basic_stringIcNS_11char_traitsIcEENS_9allocatorIcEEEEEEEEN3$_1clES6_mbEUlvE_NSC_ISK_EEFvvEEclEv', symObjAddr: 0x159EC0, symBinAddr: 0x153824, symSize: 0x18 }
  - { offset: 0xBDBC6A, size: 0x8, addend: 0x0, symName: '__ZNSt3__110__function6__funcIZZN6twitch17AsyncHttpResponse4readENS_8functionIFvPKhmbEEENS4_IFviRKNS_12basic_stringIcNS_11char_traitsIcEENS_9allocatorIcEEEEEEEEN3$_1clES6_mbEUlvE_NSC_ISK_EEFvvEEclEv', symObjAddr: 0x159EC0, symBinAddr: 0x153824, symSize: 0x18 }
  - { offset: 0xBDBC8A, size: 0x8, addend: 0x0, symName: '__ZNSt3__110__function6__funcIZZN6twitch17AsyncHttpResponse4readENS_8functionIFvPKhmbEEENS4_IFviRKNS_12basic_stringIcNS_11char_traitsIcEENS_9allocatorIcEEEEEEEEN3$_1clES6_mbEUlvE_NSC_ISK_EEFvvEEclEv', symObjAddr: 0x159EC0, symBinAddr: 0x153824, symSize: 0x18 }
  - { offset: 0xBDBCAA, size: 0x8, addend: 0x0, symName: '__ZNSt3__110__function6__funcIZZN6twitch17AsyncHttpResponse4readENS_8functionIFvPKhmbEEENS4_IFviRKNS_12basic_stringIcNS_11char_traitsIcEENS_9allocatorIcEEEEEEEEN3$_1clES6_mbEUlvE_NSC_ISK_EEFvvEEclEv', symObjAddr: 0x159EC0, symBinAddr: 0x153824, symSize: 0x18 }
  - { offset: 0xBDE1AA, size: 0x8, addend: 0x0, symName: __ZN9resampler12IntegerRatio6reduceEv, symObjAddr: 0x15A0EC, symBinAddr: 0x153A50, symSize: 0x7C }
  - { offset: 0xBDE1C4, size: 0x8, addend: 0x0, symName: __ZL7kPrimes, symObjAddr: 0x1A3108, symBinAddr: 0x1B8480, symSize: 0x0 }
  - { offset: 0xBDE272, size: 0x8, addend: 0x0, symName: __ZN9resampler12IntegerRatio6reduceEv, symObjAddr: 0x15A0EC, symBinAddr: 0x153A50, symSize: 0x7C }
  - { offset: 0xD3ADAC, size: 0x8, addend: 0x0, symName: __ZNK6twitch9JsonValue12number_valueEv, symObjAddr: 0x18EFF4, symBinAddr: 0x187400, symSize: 0x8 }
  - { offset: 0xD3ADBF, size: 0x8, addend: 0x0, symName: __ZN6twitchL7staticsEv, symObjAddr: 0x18F128, symBinAddr: 0x187534, symSize: 0x60 }
  - { offset: 0xD3ADEC, size: 0x8, addend: 0x0, symName: __ZZN6twitchL7staticsEvE1s, symObjAddr: 0x34EDB10, symBinAddr: 0x2121A0, symSize: 0x0 }
  - { offset: 0xD3AE95, size: 0x8, addend: 0x0, symName: __ZN6twitchL11static_nullEv, symObjAddr: 0x18F098, symBinAddr: 0x1874A4, symSize: 0x90 }
  - { offset: 0xD3AEC2, size: 0x8, addend: 0x0, symName: __ZZN6twitchL11static_nullEvE9json_null, symObjAddr: 0x34EDB90, symBinAddr: 0x212220, symSize: 0x0 }
  - { offset: 0xD3C011, size: 0x8, addend: 0x0, symName: __ZN6twitchL4dumpERKNSt3__112basic_stringIcNS0_11char_traitsIcEENS0_9allocatorIcEEEERS6_, symObjAddr: 0x18F9E8, symBinAddr: 0x187DF4, symSize: 0x244 }
  - { offset: 0xD3C658, size: 0x8, addend: 0x0, symName: __ZN6twitchL3escEc, symObjAddr: 0x192BEC, symBinAddr: 0x18AF30, symSize: 0x94 }
  - { offset: 0xD41363, size: 0x8, addend: 0x0, symName: __ZNSt3__117__synth_three_wayB8nn180100IN6twitch4JsonES2_EEDaRKT_RKT0_, symObjAddr: 0x18FF84, symBinAddr: 0x188390, symSize: 0x3C }
  - { offset: 0xD417ED, size: 0x8, addend: 0x0, symName: __ZNSt3__117__synth_three_wayB8nn180100INS_4pairIKNS_12basic_stringIcNS_11char_traitsIcEENS_9allocatorIcEEEEN6twitch4JsonEEESB_EEDaRKT_RKT0_, symObjAddr: 0x19062C, symBinAddr: 0x188A38, symSize: 0x4C }
  - { offset: 0xD42447, size: 0x8, addend: 0x0, symName: __ZNSt3__115allocate_sharedB8nn180100IN6twitch10JsonObjectENS_9allocatorIS2_EEJNS_3mapINS_12basic_stringIcNS_11char_traitsIcEENS3_IcEEEENS1_4JsonENS_4lessISA_EENS3_INS_4pairIKSA_SB_EEEEEEEvEENS_10shared_ptrIT_EERKT0_DpOT1_, symObjAddr: 0x191434, symBinAddr: 0x189778, symSize: 0x84 }
  - { offset: 0xD44E68, size: 0x8, addend: 0x0, symName: __ZNK6twitch9JsonValue12number_valueEv, symObjAddr: 0x18EFF4, symBinAddr: 0x187400, symSize: 0x8 }
  - { offset: 0xD44E8E, size: 0x8, addend: 0x0, symName: __ZNK6twitch9JsonValue9int_valueEv, symObjAddr: 0x18EFFC, symBinAddr: 0x187408, symSize: 0x8 }
  - { offset: 0xD44EB4, size: 0x8, addend: 0x0, symName: __ZNK6twitch9JsonValue10bool_valueEv, symObjAddr: 0x18F004, symBinAddr: 0x187410, symSize: 0x8 }
  - { offset: 0xD44EDA, size: 0x8, addend: 0x0, symName: __ZNK6twitch9JsonValue12string_valueEv, symObjAddr: 0x18F00C, symBinAddr: 0x187418, symSize: 0x1C }
  - { offset: 0xD44F0E, size: 0x8, addend: 0x0, symName: __ZNK6twitch9JsonValue11array_itemsEv, symObjAddr: 0x18F028, symBinAddr: 0x187434, symSize: 0x1C }
  - { offset: 0xD44F46, size: 0x8, addend: 0x0, symName: __ZNK6twitch9JsonValueixEm, symObjAddr: 0x18F044, symBinAddr: 0x187450, symSize: 0x1C }
  - { offset: 0xD44F83, size: 0x8, addend: 0x0, symName: __ZNK6twitch9JsonValue12object_itemsEv, symObjAddr: 0x18F060, symBinAddr: 0x18746C, symSize: 0x1C }
  - { offset: 0xD44FBB, size: 0x8, addend: 0x0, symName: __ZNK6twitch9JsonValueixERKNSt3__112basic_stringIcNS1_11char_traitsIcEENS1_9allocatorIcEEEE, symObjAddr: 0x18F07C, symBinAddr: 0x187488, symSize: 0x1C }
  - { offset: 0xD45018, size: 0x8, addend: 0x0, symName: __ZN6twitch7StaticsC2Ev, symObjAddr: 0x18F18C, symBinAddr: 0x187598, symSize: 0xC4 }
  - { offset: 0xD456C0, size: 0x8, addend: 0x0, symName: __ZN6twitch4JsonD1Ev, symObjAddr: 0x18F188, symBinAddr: 0x187594, symSize: 0x4 }
  - { offset: 0xD456E4, size: 0x8, addend: 0x0, symName: __ZN6twitch4JsonD1Ev, symObjAddr: 0x18F188, symBinAddr: 0x187594, symSize: 0x4 }
  - { offset: 0xD45701, size: 0x8, addend: 0x0, symName: __ZN6twitch4JsonD1Ev, symObjAddr: 0x18F188, symBinAddr: 0x187594, symSize: 0x4 }
  - { offset: 0xD45720, size: 0x8, addend: 0x0, symName: __ZN6twitch4JsonD1Ev, symObjAddr: 0x18F188, symBinAddr: 0x187594, symSize: 0x4 }
  - { offset: 0xD45FDE, size: 0x8, addend: 0x0, symName: __ZN6twitch7StaticsD1Ev, symObjAddr: 0x18F250, symBinAddr: 0x18765C, symSize: 0x60 }
  - { offset: 0xD46349, size: 0x8, addend: 0x0, symName: __ZNK6twitch5ValueILNS_4Json4TypeE2EbE4typeEv, symObjAddr: 0x18F2B0, symBinAddr: 0x1876BC, symSize: 0x8 }
  - { offset: 0xD4636C, size: 0x8, addend: 0x0, symName: __ZNK6twitch5ValueILNS_4Json4TypeE2EbE6equalsEPKNS_9JsonValueE, symObjAddr: 0x18F2B8, symBinAddr: 0x1876C4, symSize: 0x14 }
  - { offset: 0xD463A1, size: 0x8, addend: 0x0, symName: __ZNK6twitch5ValueILNS_4Json4TypeE2EbE4lessEPKNS_9JsonValueE, symObjAddr: 0x18F2CC, symBinAddr: 0x1876D8, symSize: 0x14 }
  - { offset: 0xD46436, size: 0x8, addend: 0x0, symName: __ZNK6twitch5ValueILNS_4Json4TypeE2EbE4dumpERNSt3__112basic_stringIcNS4_11char_traitsIcEENS4_9allocatorIcEEEE, symObjAddr: 0x18F2E0, symBinAddr: 0x1876EC, symSize: 0x30 }
  - { offset: 0xD46515, size: 0x8, addend: 0x0, symName: __ZNK6twitch11JsonBoolean10bool_valueEv, symObjAddr: 0x18F310, symBinAddr: 0x18771C, symSize: 0x8 }
  - { offset: 0xD4653C, size: 0x8, addend: 0x0, symName: __ZN6twitch11JsonBooleanD1Ev, symObjAddr: 0x18F318, symBinAddr: 0x187724, symSize: 0x4 }
  - { offset: 0xD46568, size: 0x8, addend: 0x0, symName: __ZN6twitch11JsonBooleanD0Ev, symObjAddr: 0x18F31C, symBinAddr: 0x187728, symSize: 0x4 }
  - { offset: 0xD465CE, size: 0x8, addend: 0x0, symName: __ZN6twitch11JsonBoolean5writeERNS_10JsonWriterERNSt3__112basic_stringIcNS3_11char_traitsIcEENS3_9allocatorIcEEEE, symObjAddr: 0x18F320, symBinAddr: 0x18772C, symSize: 0x68 }
  - { offset: 0xD46683, size: 0x8, addend: 0x0, symName: __ZNSt3__120__shared_ptr_emplaceIN6twitch11JsonBooleanENS_9allocatorIS2_EEED1Ev, symObjAddr: 0x18F388, symBinAddr: 0x187794, symSize: 0x10 }
  - { offset: 0xD466A7, size: 0x8, addend: 0x0, symName: __ZNSt3__120__shared_ptr_emplaceIN6twitch11JsonBooleanENS_9allocatorIS2_EEED1Ev, symObjAddr: 0x18F388, symBinAddr: 0x187794, symSize: 0x10 }
  - { offset: 0xD466DE, size: 0x8, addend: 0x0, symName: __ZNSt3__120__shared_ptr_emplaceIN6twitch11JsonBooleanENS_9allocatorIS2_EEED0Ev, symObjAddr: 0x18F398, symBinAddr: 0x1877A4, symSize: 0x20 }
  - { offset: 0xD46745, size: 0x8, addend: 0x0, symName: __ZNSt3__120__shared_ptr_emplaceIN6twitch11JsonBooleanENS_9allocatorIS2_EEE16__on_zero_sharedEv, symObjAddr: 0x18F3B8, symBinAddr: 0x1877C4, symSize: 0x4 }
  - { offset: 0xD467C5, size: 0x8, addend: 0x0, symName: __ZNSt3__120__shared_ptr_emplaceIN6twitch11JsonBooleanENS_9allocatorIS2_EEE21__on_zero_shared_weakEv, symObjAddr: 0x18F3BC, symBinAddr: 0x1877C8, symSize: 0x4 }
  - { offset: 0xD467FA, size: 0x8, addend: 0x0, symName: __ZNSt3__120__shared_ptr_emplaceIN6twitch11JsonBooleanENS_9allocatorIS2_EEE21__on_zero_shared_weakEv, symObjAddr: 0x18F3BC, symBinAddr: 0x1877C8, symSize: 0x4 }
  - { offset: 0xD4681F, size: 0x8, addend: 0x0, symName: __ZNSt3__120__shared_ptr_emplaceIN6twitch11JsonBooleanENS_9allocatorIS2_EEE21__on_zero_shared_weakEv, symObjAddr: 0x18F3BC, symBinAddr: 0x1877C8, symSize: 0x4 }
  - { offset: 0xD46844, size: 0x8, addend: 0x0, symName: __ZNSt3__120__shared_ptr_emplaceIN6twitch11JsonBooleanENS_9allocatorIS2_EEE21__on_zero_shared_weakEv, symObjAddr: 0x18F3BC, symBinAddr: 0x1877C8, symSize: 0x4 }
  - { offset: 0xD46874, size: 0x8, addend: 0x0, symName: __ZNSt3__120__shared_ptr_emplaceIN6twitch11JsonBooleanENS_9allocatorIS2_EEE21__on_zero_shared_weakEv, symObjAddr: 0x18F3BC, symBinAddr: 0x1877C8, symSize: 0x4 }
  - { offset: 0xD4689E, size: 0x8, addend: 0x0, symName: __ZNSt3__120__shared_ptr_emplaceIN6twitch11JsonBooleanENS_9allocatorIS2_EEE21__on_zero_shared_weakEv, symObjAddr: 0x18F3BC, symBinAddr: 0x1877C8, symSize: 0x4 }
  - { offset: 0xD468CB, size: 0x8, addend: 0x0, symName: __ZNK6twitch5ValueILNS_4Json4TypeE0ENS_10NullStructEE4typeEv, symObjAddr: 0x18F3C0, symBinAddr: 0x1877CC, symSize: 0x8 }
  - { offset: 0xD468EE, size: 0x8, addend: 0x0, symName: __ZNK6twitch5ValueILNS_4Json4TypeE0ENS_10NullStructEE6equalsEPKNS_9JsonValueE, symObjAddr: 0x18F3C8, symBinAddr: 0x1877D4, symSize: 0x8 }
  - { offset: 0xD4691D, size: 0x8, addend: 0x0, symName: __ZNK6twitch5ValueILNS_4Json4TypeE0ENS_10NullStructEE4lessEPKNS_9JsonValueE, symObjAddr: 0x18F3D0, symBinAddr: 0x1877DC, symSize: 0x8 }
  - { offset: 0xD4694C, size: 0x8, addend: 0x0, symName: __ZNK6twitch5ValueILNS_4Json4TypeE0ENS_10NullStructEE4dumpERNSt3__112basic_stringIcNS5_11char_traitsIcEENS5_9allocatorIcEEEE, symObjAddr: 0x18F3D8, symBinAddr: 0x1877E4, symSize: 0x14 }
  - { offset: 0xD469EE, size: 0x8, addend: 0x0, symName: __ZN6twitch8JsonNullD1Ev, symObjAddr: 0x18F3EC, symBinAddr: 0x1877F8, symSize: 0x4 }
  - { offset: 0xD46A1A, size: 0x8, addend: 0x0, symName: __ZN6twitch8JsonNullD0Ev, symObjAddr: 0x18F3F0, symBinAddr: 0x1877FC, symSize: 0x4 }
  - { offset: 0xD46A86, size: 0x8, addend: 0x0, symName: __ZN6twitch8JsonNull5writeERNS_10JsonWriterERNSt3__112basic_stringIcNS3_11char_traitsIcEENS3_9allocatorIcEEEE, symObjAddr: 0x18F3F4, symBinAddr: 0x187800, symSize: 0x14 }
  - { offset: 0xD46B21, size: 0x8, addend: 0x0, symName: __ZNSt3__120__shared_ptr_emplaceIN6twitch8JsonNullENS_9allocatorIS2_EEED1Ev, symObjAddr: 0x18F408, symBinAddr: 0x187814, symSize: 0x10 }
  - { offset: 0xD46B45, size: 0x8, addend: 0x0, symName: __ZNSt3__120__shared_ptr_emplaceIN6twitch8JsonNullENS_9allocatorIS2_EEED1Ev, symObjAddr: 0x18F408, symBinAddr: 0x187814, symSize: 0x10 }
  - { offset: 0xD46B7C, size: 0x8, addend: 0x0, symName: __ZNSt3__120__shared_ptr_emplaceIN6twitch8JsonNullENS_9allocatorIS2_EEED0Ev, symObjAddr: 0x18F418, symBinAddr: 0x187824, symSize: 0x20 }
  - { offset: 0xD46BE3, size: 0x8, addend: 0x0, symName: __ZNSt3__120__shared_ptr_emplaceIN6twitch8JsonNullENS_9allocatorIS2_EEE16__on_zero_sharedEv, symObjAddr: 0x18F438, symBinAddr: 0x187844, symSize: 0x4 }
  - { offset: 0xD46C63, size: 0x8, addend: 0x0, symName: __ZNSt3__120__shared_ptr_emplaceIN6twitch8JsonNullENS_9allocatorIS2_EEE21__on_zero_shared_weakEv, symObjAddr: 0x18F43C, symBinAddr: 0x187848, symSize: 0x4 }
  - { offset: 0xD46C98, size: 0x8, addend: 0x0, symName: __ZNSt3__120__shared_ptr_emplaceIN6twitch8JsonNullENS_9allocatorIS2_EEE21__on_zero_shared_weakEv, symObjAddr: 0x18F43C, symBinAddr: 0x187848, symSize: 0x4 }
  - { offset: 0xD46CBD, size: 0x8, addend: 0x0, symName: __ZNSt3__120__shared_ptr_emplaceIN6twitch8JsonNullENS_9allocatorIS2_EEE21__on_zero_shared_weakEv, symObjAddr: 0x18F43C, symBinAddr: 0x187848, symSize: 0x4 }
  - { offset: 0xD46CE2, size: 0x8, addend: 0x0, symName: __ZNSt3__120__shared_ptr_emplaceIN6twitch8JsonNullENS_9allocatorIS2_EEE21__on_zero_shared_weakEv, symObjAddr: 0x18F43C, symBinAddr: 0x187848, symSize: 0x4 }
  - { offset: 0xD46D12, size: 0x8, addend: 0x0, symName: __ZNSt3__120__shared_ptr_emplaceIN6twitch8JsonNullENS_9allocatorIS2_EEE21__on_zero_shared_weakEv, symObjAddr: 0x18F43C, symBinAddr: 0x187848, symSize: 0x4 }
  - { offset: 0xD46D3C, size: 0x8, addend: 0x0, symName: __ZNSt3__120__shared_ptr_emplaceIN6twitch8JsonNullENS_9allocatorIS2_EEE21__on_zero_shared_weakEv, symObjAddr: 0x18F43C, symBinAddr: 0x187848, symSize: 0x4 }
  - { offset: 0xD46D69, size: 0x8, addend: 0x0, symName: __ZNK6twitch5ValueILNS_4Json4TypeE1EdE4typeEv, symObjAddr: 0x18F440, symBinAddr: 0x18784C, symSize: 0x8 }
  - { offset: 0xD46D8C, size: 0x8, addend: 0x0, symName: __ZNK6twitch10JsonDouble6equalsEPKNS_9JsonValueE, symObjAddr: 0x18F448, symBinAddr: 0x187854, symSize: 0x34 }
  - { offset: 0xD46DCF, size: 0x8, addend: 0x0, symName: __ZNK6twitch10JsonDouble4lessEPKNS_9JsonValueE, symObjAddr: 0x18F47C, symBinAddr: 0x187888, symSize: 0x34 }
  - { offset: 0xD46E12, size: 0x8, addend: 0x0, symName: __ZNK6twitch5ValueILNS_4Json4TypeE1EdE4dumpERNSt3__112basic_stringIcNS4_11char_traitsIcEENS4_9allocatorIcEEEE, symObjAddr: 0x18F4B0, symBinAddr: 0x1878BC, symSize: 0xD0 }
  - { offset: 0xD46F97, size: 0x8, addend: 0x0, symName: __ZNK6twitch10JsonDouble12number_valueEv, symObjAddr: 0x18F580, symBinAddr: 0x18798C, symSize: 0x8 }
  - { offset: 0xD46FBC, size: 0x8, addend: 0x0, symName: __ZNK6twitch10JsonDouble9int_valueEv, symObjAddr: 0x18F588, symBinAddr: 0x187994, symSize: 0xC }
  - { offset: 0xD46FE3, size: 0x8, addend: 0x0, symName: __ZN6twitch10JsonDoubleD1Ev, symObjAddr: 0x18F594, symBinAddr: 0x1879A0, symSize: 0x4 }
  - { offset: 0xD4700E, size: 0x8, addend: 0x0, symName: __ZN6twitch10JsonDoubleD0Ev, symObjAddr: 0x18F598, symBinAddr: 0x1879A4, symSize: 0x4 }
  - { offset: 0xD47073, size: 0x8, addend: 0x0, symName: __ZN6twitch10JsonDouble5writeERNS_10JsonWriterERNSt3__112basic_stringIcNS3_11char_traitsIcEENS3_9allocatorIcEEEE, symObjAddr: 0x18F59C, symBinAddr: 0x1879A8, symSize: 0x68 }
  - { offset: 0xD47108, size: 0x8, addend: 0x0, symName: __ZNK6twitch5ValueILNS_4Json4TypeE1EiE4typeEv, symObjAddr: 0x18F604, symBinAddr: 0x187A10, symSize: 0x8 }
  - { offset: 0xD4712B, size: 0x8, addend: 0x0, symName: __ZNK6twitch7JsonInt6equalsEPKNS_9JsonValueE, symObjAddr: 0x18F60C, symBinAddr: 0x187A18, symSize: 0x38 }
  - { offset: 0xD4716E, size: 0x8, addend: 0x0, symName: __ZNK6twitch7JsonInt4lessEPKNS_9JsonValueE, symObjAddr: 0x18F644, symBinAddr: 0x187A50, symSize: 0x38 }
  - { offset: 0xD471B1, size: 0x8, addend: 0x0, symName: __ZNK6twitch5ValueILNS_4Json4TypeE1EiE4dumpERNSt3__112basic_stringIcNS4_11char_traitsIcEENS4_9allocatorIcEEEE, symObjAddr: 0x18F67C, symBinAddr: 0x187A88, symSize: 0x84 }
  - { offset: 0xD472BF, size: 0x8, addend: 0x0, symName: __ZNK6twitch7JsonInt12number_valueEv, symObjAddr: 0x18F700, symBinAddr: 0x187B0C, symSize: 0xC }
  - { offset: 0xD472E4, size: 0x8, addend: 0x0, symName: __ZNK6twitch7JsonInt9int_valueEv, symObjAddr: 0x18F70C, symBinAddr: 0x187B18, symSize: 0x8 }
  - { offset: 0xD4730B, size: 0x8, addend: 0x0, symName: __ZN6twitch7JsonIntD1Ev, symObjAddr: 0x18F714, symBinAddr: 0x187B20, symSize: 0x4 }
  - { offset: 0xD47336, size: 0x8, addend: 0x0, symName: __ZN6twitch7JsonIntD0Ev, symObjAddr: 0x18F718, symBinAddr: 0x187B24, symSize: 0x4 }
  - { offset: 0xD4739B, size: 0x8, addend: 0x0, symName: __ZN6twitch7JsonInt5writeERNS_10JsonWriterERNSt3__112basic_stringIcNS3_11char_traitsIcEENS3_9allocatorIcEEEE, symObjAddr: 0x18F71C, symBinAddr: 0x187B28, symSize: 0xB8 }
  - { offset: 0xD4747F, size: 0x8, addend: 0x0, symName: __ZNK6twitch5ValueILNS_4Json4TypeE3ENSt3__112basic_stringIcNS3_11char_traitsIcEENS3_9allocatorIcEEEEE4typeEv, symObjAddr: 0x18F7D4, symBinAddr: 0x187BE0, symSize: 0x8 }
  - { offset: 0xD47514, size: 0x8, addend: 0x0, symName: __ZNK6twitch5ValueILNS_4Json4TypeE3ENSt3__112basic_stringIcNS3_11char_traitsIcEENS3_9allocatorIcEEEEE6equalsEPKNS_9JsonValueE, symObjAddr: 0x18F7DC, symBinAddr: 0x187BE8, symSize: 0xA0 }
  - { offset: 0xD47669, size: 0x8, addend: 0x0, symName: __ZNK6twitch5ValueILNS_4Json4TypeE3ENSt3__112basic_stringIcNS3_11char_traitsIcEENS3_9allocatorIcEEEEE4lessEPKNS_9JsonValueE, symObjAddr: 0x18F87C, symBinAddr: 0x187C88, symSize: 0x20 }
  - { offset: 0xD476AE, size: 0x8, addend: 0x0, symName: __ZNK6twitch5ValueILNS_4Json4TypeE3ENSt3__112basic_stringIcNS3_11char_traitsIcEENS3_9allocatorIcEEEEE4dumpERS9_, symObjAddr: 0x18F89C, symBinAddr: 0x187CA8, symSize: 0x8 }
  - { offset: 0xD476F1, size: 0x8, addend: 0x0, symName: __ZNK6twitch10JsonString12string_valueEv, symObjAddr: 0x18F8A4, symBinAddr: 0x187CB0, symSize: 0x8 }
  - { offset: 0xD47751, size: 0x8, addend: 0x0, symName: __ZN6twitch10JsonStringD1Ev, symObjAddr: 0x18F8AC, symBinAddr: 0x187CB8, symSize: 0x3C }
  - { offset: 0xD47907, size: 0x8, addend: 0x0, symName: __ZN6twitch10JsonStringD0Ev, symObjAddr: 0x18F8E8, symBinAddr: 0x187CF4, symSize: 0x3C }
  - { offset: 0xD47B89, size: 0x8, addend: 0x0, symName: __ZN6twitch10JsonString5writeERNS_10JsonWriterERNSt3__112basic_stringIcNS3_11char_traitsIcEENS3_9allocatorIcEEEE, symObjAddr: 0x18F924, symBinAddr: 0x187D30, symSize: 0xBC }
  - { offset: 0xD47D4A, size: 0x8, addend: 0x0, symName: __ZN6twitch5ValueILNS_4Json4TypeE3ENSt3__112basic_stringIcNS3_11char_traitsIcEENS3_9allocatorIcEEEEED1Ev, symObjAddr: 0x18F9E0, symBinAddr: 0x187DEC, symSize: 0x4 }
  - { offset: 0xD47D73, size: 0x8, addend: 0x0, symName: __ZN6twitch5ValueILNS_4Json4TypeE3ENSt3__112basic_stringIcNS3_11char_traitsIcEENS3_9allocatorIcEEEEED0Ev, symObjAddr: 0x18F9E4, symBinAddr: 0x187DF0, symSize: 0x4 }
  - { offset: 0xD47DE2, size: 0x8, addend: 0x0, symName: __ZNK6twitch5ValueILNS_4Json4TypeE4ENSt3__16vectorIS1_NS3_9allocatorIS1_EEEEE4typeEv, symObjAddr: 0x18FC2C, symBinAddr: 0x188038, symSize: 0x8 }
  - { offset: 0xD47E51, size: 0x8, addend: 0x0, symName: __ZNK6twitch5ValueILNS_4Json4TypeE4ENSt3__16vectorIS1_NS3_9allocatorIS1_EEEEE6equalsEPKNS_9JsonValueE, symObjAddr: 0x18FC34, symBinAddr: 0x188040, symSize: 0x70 }
  - { offset: 0xD47FC9, size: 0x8, addend: 0x0, symName: __ZNK6twitch4JsoneqERKS0_, symObjAddr: 0x190060, symBinAddr: 0x18846C, symSize: 0x78 }
  - { offset: 0xD48111, size: 0x8, addend: 0x0, symName: __ZNK6twitch5ValueILNS_4Json4TypeE4ENSt3__16vectorIS1_NS3_9allocatorIS1_EEEEE4lessEPKNS_9JsonValueE, symObjAddr: 0x18FCA4, symBinAddr: 0x1880B0, symSize: 0x88 }
  - { offset: 0xD482F4, size: 0x8, addend: 0x0, symName: __ZNK6twitch5ValueILNS_4Json4TypeE4ENSt3__16vectorIS1_NS3_9allocatorIS1_EEEEE4dumpERNS3_12basic_stringIcNS3_11char_traitsIcEENS5_IcEEEE, symObjAddr: 0x18FD2C, symBinAddr: 0x188138, symSize: 0x98 }
  - { offset: 0xD4850A, size: 0x8, addend: 0x0, symName: __ZNK6twitch9JsonArray11array_itemsEv, symObjAddr: 0x18FDC4, symBinAddr: 0x1881D0, symSize: 0x8 }
  - { offset: 0xD48556, size: 0x8, addend: 0x0, symName: __ZNK6twitch9JsonArrayixEm, symObjAddr: 0x18FDCC, symBinAddr: 0x1881D8, symSize: 0x34 }
  - { offset: 0xD48617, size: 0x8, addend: 0x0, symName: __ZN6twitch9JsonArrayD1Ev, symObjAddr: 0x18FE00, symBinAddr: 0x18820C, symSize: 0x44 }
  - { offset: 0xD48732, size: 0x8, addend: 0x0, symName: __ZN6twitch9JsonArrayD0Ev, symObjAddr: 0x18FE44, symBinAddr: 0x188250, symSize: 0x44 }
  - { offset: 0xD48894, size: 0x8, addend: 0x0, symName: __ZN6twitch9JsonArray5writeERNS_10JsonWriterERNSt3__112basic_stringIcNS3_11char_traitsIcEENS3_9allocatorIcEEEE, symObjAddr: 0x18FE88, symBinAddr: 0x188294, symSize: 0xF4 }
  - { offset: 0xD48A15, size: 0x8, addend: 0x0, symName: __ZN6twitch5ValueILNS_4Json4TypeE4ENSt3__16vectorIS1_NS3_9allocatorIS1_EEEEED1Ev, symObjAddr: 0x18FF7C, symBinAddr: 0x188388, symSize: 0x4 }
  - { offset: 0xD48A3E, size: 0x8, addend: 0x0, symName: __ZN6twitch5ValueILNS_4Json4TypeE4ENSt3__16vectorIS1_NS3_9allocatorIS1_EEEEED0Ev, symObjAddr: 0x18FF80, symBinAddr: 0x18838C, symSize: 0x4 }
  - { offset: 0xD48A67, size: 0x8, addend: 0x0, symName: __ZNK6twitch4JsonltERKS0_, symObjAddr: 0x18FFC0, symBinAddr: 0x1883CC, symSize: 0xA0 }
  - { offset: 0xD48B84, size: 0x8, addend: 0x0, symName: __ZNK6twitch5ValueILNS_4Json4TypeE5ENSt3__13mapINS3_12basic_stringIcNS3_11char_traitsIcEENS3_9allocatorIcEEEES1_NS3_4lessISA_EENS8_INS3_4pairIKSA_S1_EEEEEEE4typeEv, symObjAddr: 0x1900D8, symBinAddr: 0x1884E4, symSize: 0x8 }
  - { offset: 0xD48C9B, size: 0x8, addend: 0x0, symName: __ZNK6twitch5ValueILNS_4Json4TypeE5ENSt3__13mapINS3_12basic_stringIcNS3_11char_traitsIcEENS3_9allocatorIcEEEES1_NS3_4lessISA_EENS8_INS3_4pairIKSA_S1_EEEEEEE6equalsEPKNS_9JsonValueE, symObjAddr: 0x1900E0, symBinAddr: 0x1884EC, symSize: 0x144 }
  - { offset: 0xD49170, size: 0x8, addend: 0x0, symName: __ZNK6twitch5ValueILNS_4Json4TypeE5ENSt3__13mapINS3_12basic_stringIcNS3_11char_traitsIcEENS3_9allocatorIcEEEES1_NS3_4lessISA_EENS8_INS3_4pairIKSA_S1_EEEEEEE4lessEPKNS_9JsonValueE, symObjAddr: 0x190224, symBinAddr: 0x188630, symSize: 0xEC }
  - { offset: 0xD49557, size: 0x8, addend: 0x0, symName: __ZNK6twitch5ValueILNS_4Json4TypeE5ENSt3__13mapINS3_12basic_stringIcNS3_11char_traitsIcEENS3_9allocatorIcEEEES1_NS3_4lessISA_EENS8_INS3_4pairIKSA_S1_EEEEEEE4dumpERSA_, symObjAddr: 0x190310, symBinAddr: 0x18871C, symSize: 0xF8 }
  - { offset: 0xD498D7, size: 0x8, addend: 0x0, symName: __ZNK6twitch10JsonObject12object_itemsEv, symObjAddr: 0x190408, symBinAddr: 0x188814, symSize: 0x8 }
  - { offset: 0xD49921, size: 0x8, addend: 0x0, symName: __ZNK6twitch10JsonObjectixERKNSt3__112basic_stringIcNS1_11char_traitsIcEENS1_9allocatorIcEEEE, symObjAddr: 0x190410, symBinAddr: 0x18881C, symSize: 0x44 }
  - { offset: 0xD49A34, size: 0x8, addend: 0x0, symName: __ZN6twitch10JsonObjectD1Ev, symObjAddr: 0x190454, symBinAddr: 0x188860, symSize: 0x34 }
  - { offset: 0xD49B64, size: 0x8, addend: 0x0, symName: __ZN6twitch10JsonObjectD0Ev, symObjAddr: 0x190488, symBinAddr: 0x188894, symSize: 0x34 }
  - { offset: 0xD49CDB, size: 0x8, addend: 0x0, symName: __ZN6twitch10JsonObject5writeERNS_10JsonWriterERNSt3__112basic_stringIcNS3_11char_traitsIcEENS3_9allocatorIcEEEE, symObjAddr: 0x1904BC, symBinAddr: 0x1888C8, symSize: 0x168 }
  - { offset: 0xD4A108, size: 0x8, addend: 0x0, symName: __ZN6twitch5ValueILNS_4Json4TypeE5ENSt3__13mapINS3_12basic_stringIcNS3_11char_traitsIcEENS3_9allocatorIcEEEES1_NS3_4lessISA_EENS8_INS3_4pairIKSA_S1_EEEEEEED1Ev, symObjAddr: 0x190624, symBinAddr: 0x188A30, symSize: 0x4 }
  - { offset: 0xD4A131, size: 0x8, addend: 0x0, symName: __ZN6twitch5ValueILNS_4Json4TypeE5ENSt3__13mapINS3_12basic_stringIcNS3_11char_traitsIcEENS3_9allocatorIcEEEES1_NS3_4lessISA_EENS8_INS3_4pairIKSA_S1_EEEEEEED0Ev, symObjAddr: 0x190628, symBinAddr: 0x188A34, symSize: 0x4 }
  - { offset: 0xD4A176, size: 0x8, addend: 0x0, symName: __ZNSt3__120__shared_ptr_emplaceIN6twitch10JsonDoubleENS_9allocatorIS2_EEED1Ev, symObjAddr: 0x190678, symBinAddr: 0x188A84, symSize: 0x10 }
  - { offset: 0xD4A19A, size: 0x8, addend: 0x0, symName: __ZNSt3__120__shared_ptr_emplaceIN6twitch10JsonDoubleENS_9allocatorIS2_EEED1Ev, symObjAddr: 0x190678, symBinAddr: 0x188A84, symSize: 0x10 }
  - { offset: 0xD4A1D1, size: 0x8, addend: 0x0, symName: __ZNSt3__120__shared_ptr_emplaceIN6twitch10JsonDoubleENS_9allocatorIS2_EEED0Ev, symObjAddr: 0x190688, symBinAddr: 0x188A94, symSize: 0x20 }
  - { offset: 0xD4A238, size: 0x8, addend: 0x0, symName: __ZNSt3__120__shared_ptr_emplaceIN6twitch10JsonDoubleENS_9allocatorIS2_EEE16__on_zero_sharedEv, symObjAddr: 0x1906A8, symBinAddr: 0x188AB4, symSize: 0x4 }
  - { offset: 0xD4A2B8, size: 0x8, addend: 0x0, symName: __ZNSt3__120__shared_ptr_emplaceIN6twitch10JsonDoubleENS_9allocatorIS2_EEE21__on_zero_shared_weakEv, symObjAddr: 0x1906AC, symBinAddr: 0x188AB8, symSize: 0x4 }
  - { offset: 0xD4A2ED, size: 0x8, addend: 0x0, symName: __ZNSt3__120__shared_ptr_emplaceIN6twitch10JsonDoubleENS_9allocatorIS2_EEE21__on_zero_shared_weakEv, symObjAddr: 0x1906AC, symBinAddr: 0x188AB8, symSize: 0x4 }
  - { offset: 0xD4A312, size: 0x8, addend: 0x0, symName: __ZNSt3__120__shared_ptr_emplaceIN6twitch10JsonDoubleENS_9allocatorIS2_EEE21__on_zero_shared_weakEv, symObjAddr: 0x1906AC, symBinAddr: 0x188AB8, symSize: 0x4 }
  - { offset: 0xD4A337, size: 0x8, addend: 0x0, symName: __ZNSt3__120__shared_ptr_emplaceIN6twitch10JsonDoubleENS_9allocatorIS2_EEE21__on_zero_shared_weakEv, symObjAddr: 0x1906AC, symBinAddr: 0x188AB8, symSize: 0x4 }
  - { offset: 0xD4A367, size: 0x8, addend: 0x0, symName: __ZNSt3__120__shared_ptr_emplaceIN6twitch10JsonDoubleENS_9allocatorIS2_EEE21__on_zero_shared_weakEv, symObjAddr: 0x1906AC, symBinAddr: 0x188AB8, symSize: 0x4 }
  - { offset: 0xD4A391, size: 0x8, addend: 0x0, symName: __ZNSt3__120__shared_ptr_emplaceIN6twitch10JsonDoubleENS_9allocatorIS2_EEE21__on_zero_shared_weakEv, symObjAddr: 0x1906AC, symBinAddr: 0x188AB8, symSize: 0x4 }
  - { offset: 0xD4A517, size: 0x8, addend: 0x0, symName: __ZNSt3__120__shared_ptr_emplaceIN6twitch7JsonIntENS_9allocatorIS2_EEED1Ev, symObjAddr: 0x190714, symBinAddr: 0x188ABC, symSize: 0x10 }
  - { offset: 0xD4A53B, size: 0x8, addend: 0x0, symName: __ZNSt3__120__shared_ptr_emplaceIN6twitch7JsonIntENS_9allocatorIS2_EEED1Ev, symObjAddr: 0x190714, symBinAddr: 0x188ABC, symSize: 0x10 }
  - { offset: 0xD4A572, size: 0x8, addend: 0x0, symName: __ZNSt3__120__shared_ptr_emplaceIN6twitch7JsonIntENS_9allocatorIS2_EEED0Ev, symObjAddr: 0x190724, symBinAddr: 0x188ACC, symSize: 0x20 }
  - { offset: 0xD4A5D9, size: 0x8, addend: 0x0, symName: __ZNSt3__120__shared_ptr_emplaceIN6twitch7JsonIntENS_9allocatorIS2_EEE16__on_zero_sharedEv, symObjAddr: 0x190744, symBinAddr: 0x188AEC, symSize: 0x4 }
  - { offset: 0xD4A659, size: 0x8, addend: 0x0, symName: __ZNSt3__120__shared_ptr_emplaceIN6twitch7JsonIntENS_9allocatorIS2_EEE21__on_zero_shared_weakEv, symObjAddr: 0x190748, symBinAddr: 0x188AF0, symSize: 0x4 }
  - { offset: 0xD4A68E, size: 0x8, addend: 0x0, symName: __ZNSt3__120__shared_ptr_emplaceIN6twitch7JsonIntENS_9allocatorIS2_EEE21__on_zero_shared_weakEv, symObjAddr: 0x190748, symBinAddr: 0x188AF0, symSize: 0x4 }
  - { offset: 0xD4A6B3, size: 0x8, addend: 0x0, symName: __ZNSt3__120__shared_ptr_emplaceIN6twitch7JsonIntENS_9allocatorIS2_EEE21__on_zero_shared_weakEv, symObjAddr: 0x190748, symBinAddr: 0x188AF0, symSize: 0x4 }
  - { offset: 0xD4A6D8, size: 0x8, addend: 0x0, symName: __ZNSt3__120__shared_ptr_emplaceIN6twitch7JsonIntENS_9allocatorIS2_EEE21__on_zero_shared_weakEv, symObjAddr: 0x190748, symBinAddr: 0x188AF0, symSize: 0x4 }
  - { offset: 0xD4A708, size: 0x8, addend: 0x0, symName: __ZNSt3__120__shared_ptr_emplaceIN6twitch7JsonIntENS_9allocatorIS2_EEE21__on_zero_shared_weakEv, symObjAddr: 0x190748, symBinAddr: 0x188AF0, symSize: 0x4 }
  - { offset: 0xD4A732, size: 0x8, addend: 0x0, symName: __ZNSt3__120__shared_ptr_emplaceIN6twitch7JsonIntENS_9allocatorIS2_EEE21__on_zero_shared_weakEv, symObjAddr: 0x190748, symBinAddr: 0x188AF0, symSize: 0x4 }
  - { offset: 0xD4A77B, size: 0x8, addend: 0x0, symName: __ZNSt3__120__shared_ptr_emplaceIN6twitch10JsonStringENS_9allocatorIS2_EEED1Ev, symObjAddr: 0x19074C, symBinAddr: 0x188AF4, symSize: 0x10 }
  - { offset: 0xD4A79F, size: 0x8, addend: 0x0, symName: __ZNSt3__120__shared_ptr_emplaceIN6twitch10JsonStringENS_9allocatorIS2_EEED1Ev, symObjAddr: 0x19074C, symBinAddr: 0x188AF4, symSize: 0x10 }
  - { offset: 0xD4A7D6, size: 0x8, addend: 0x0, symName: __ZNSt3__120__shared_ptr_emplaceIN6twitch10JsonStringENS_9allocatorIS2_EEED0Ev, symObjAddr: 0x19075C, symBinAddr: 0x188B04, symSize: 0x20 }
  - { offset: 0xD4A8A5, size: 0x8, addend: 0x0, symName: __ZNSt3__120__shared_ptr_emplaceIN6twitch10JsonStringENS_9allocatorIS2_EEE16__on_zero_sharedEv, symObjAddr: 0x19077C, symBinAddr: 0x188B24, symSize: 0x20 }
  - { offset: 0xD4AAC9, size: 0x8, addend: 0x0, symName: __ZNSt3__120__shared_ptr_emplaceIN6twitch10JsonStringENS_9allocatorIS2_EEE21__on_zero_shared_weakEv, symObjAddr: 0x19079C, symBinAddr: 0x188B44, symSize: 0x4 }
  - { offset: 0xD4AAFE, size: 0x8, addend: 0x0, symName: __ZNSt3__120__shared_ptr_emplaceIN6twitch10JsonStringENS_9allocatorIS2_EEE21__on_zero_shared_weakEv, symObjAddr: 0x19079C, symBinAddr: 0x188B44, symSize: 0x4 }
  - { offset: 0xD4AB23, size: 0x8, addend: 0x0, symName: __ZNSt3__120__shared_ptr_emplaceIN6twitch10JsonStringENS_9allocatorIS2_EEE21__on_zero_shared_weakEv, symObjAddr: 0x19079C, symBinAddr: 0x188B44, symSize: 0x4 }
  - { offset: 0xD4AB48, size: 0x8, addend: 0x0, symName: __ZNSt3__120__shared_ptr_emplaceIN6twitch10JsonStringENS_9allocatorIS2_EEE21__on_zero_shared_weakEv, symObjAddr: 0x19079C, symBinAddr: 0x188B44, symSize: 0x4 }
  - { offset: 0xD4AB78, size: 0x8, addend: 0x0, symName: __ZNSt3__120__shared_ptr_emplaceIN6twitch10JsonStringENS_9allocatorIS2_EEE21__on_zero_shared_weakEv, symObjAddr: 0x19079C, symBinAddr: 0x188B44, symSize: 0x4 }
  - { offset: 0xD4ABA2, size: 0x8, addend: 0x0, symName: __ZNSt3__120__shared_ptr_emplaceIN6twitch10JsonStringENS_9allocatorIS2_EEE21__on_zero_shared_weakEv, symObjAddr: 0x19079C, symBinAddr: 0x188B44, symSize: 0x4 }
  - { offset: 0xD4C113, size: 0x8, addend: 0x0, symName: __ZN6twitch4Json4readERNS_10JsonReaderERNSt3__112basic_stringIcNS3_11char_traitsIcEENS3_9allocatorIcEEEE, symObjAddr: 0x1907A0, symBinAddr: 0x188B48, symSize: 0xA7C }
  - { offset: 0xD4FCBA, size: 0x8, addend: 0x0, symName: __ZNSt3__120__shared_ptr_emplaceIN6twitch9JsonArrayENS_9allocatorIS2_EEED1Ev, symObjAddr: 0x19121C, symBinAddr: 0x1895C4, symSize: 0x10 }
  - { offset: 0xD4FDBD, size: 0x8, addend: 0x0, symName: __ZNSt3__120__shared_ptr_emplaceIN6twitch9JsonArrayENS_9allocatorIS2_EEED1Ev, symObjAddr: 0x19121C, symBinAddr: 0x1895C4, symSize: 0x10 }
  - { offset: 0xD4FDE1, size: 0x8, addend: 0x0, symName: __ZNSt3__120__shared_ptr_emplaceIN6twitch9JsonArrayENS_9allocatorIS2_EEED1Ev, symObjAddr: 0x19121C, symBinAddr: 0x1895C4, symSize: 0x10 }
  - { offset: 0xD4FE18, size: 0x8, addend: 0x0, symName: __ZNSt3__120__shared_ptr_emplaceIN6twitch9JsonArrayENS_9allocatorIS2_EEED0Ev, symObjAddr: 0x19122C, symBinAddr: 0x1895D4, symSize: 0x20 }
  - { offset: 0xD4FEE7, size: 0x8, addend: 0x0, symName: __ZNSt3__120__shared_ptr_emplaceIN6twitch9JsonArrayENS_9allocatorIS2_EEE16__on_zero_sharedEv, symObjAddr: 0x19124C, symBinAddr: 0x1895F4, symSize: 0x34 }
  - { offset: 0xD500CD, size: 0x8, addend: 0x0, symName: __ZNSt3__120__shared_ptr_emplaceIN6twitch9JsonArrayENS_9allocatorIS2_EEE21__on_zero_shared_weakEv, symObjAddr: 0x191280, symBinAddr: 0x189628, symSize: 0x4 }
  - { offset: 0xD50102, size: 0x8, addend: 0x0, symName: __ZNSt3__120__shared_ptr_emplaceIN6twitch9JsonArrayENS_9allocatorIS2_EEE21__on_zero_shared_weakEv, symObjAddr: 0x191280, symBinAddr: 0x189628, symSize: 0x4 }
  - { offset: 0xD50127, size: 0x8, addend: 0x0, symName: __ZNSt3__120__shared_ptr_emplaceIN6twitch9JsonArrayENS_9allocatorIS2_EEE21__on_zero_shared_weakEv, symObjAddr: 0x191280, symBinAddr: 0x189628, symSize: 0x4 }
  - { offset: 0xD5014C, size: 0x8, addend: 0x0, symName: __ZNSt3__120__shared_ptr_emplaceIN6twitch9JsonArrayENS_9allocatorIS2_EEE21__on_zero_shared_weakEv, symObjAddr: 0x191280, symBinAddr: 0x189628, symSize: 0x4 }
  - { offset: 0xD5017C, size: 0x8, addend: 0x0, symName: __ZNSt3__120__shared_ptr_emplaceIN6twitch9JsonArrayENS_9allocatorIS2_EEE21__on_zero_shared_weakEv, symObjAddr: 0x191280, symBinAddr: 0x189628, symSize: 0x4 }
  - { offset: 0xD501A6, size: 0x8, addend: 0x0, symName: __ZNSt3__120__shared_ptr_emplaceIN6twitch9JsonArrayENS_9allocatorIS2_EEE21__on_zero_shared_weakEv, symObjAddr: 0x191280, symBinAddr: 0x189628, symSize: 0x4 }
  - { offset: 0xD501EF, size: 0x8, addend: 0x0, symName: __ZNSt3__120__shared_ptr_emplaceIN6twitch10JsonObjectENS_9allocatorIS2_EEED1Ev, symObjAddr: 0x1912E8, symBinAddr: 0x18962C, symSize: 0x10 }
  - { offset: 0xD50213, size: 0x8, addend: 0x0, symName: __ZNSt3__120__shared_ptr_emplaceIN6twitch10JsonObjectENS_9allocatorIS2_EEED1Ev, symObjAddr: 0x1912E8, symBinAddr: 0x18962C, symSize: 0x10 }
  - { offset: 0xD5024A, size: 0x8, addend: 0x0, symName: __ZNSt3__120__shared_ptr_emplaceIN6twitch10JsonObjectENS_9allocatorIS2_EEED0Ev, symObjAddr: 0x1912F8, symBinAddr: 0x18963C, symSize: 0x20 }
  - { offset: 0xD50319, size: 0x8, addend: 0x0, symName: __ZNSt3__120__shared_ptr_emplaceIN6twitch10JsonObjectENS_9allocatorIS2_EEE16__on_zero_sharedEv, symObjAddr: 0x191318, symBinAddr: 0x18965C, symSize: 0x14 }
  - { offset: 0xD50343, size: 0x8, addend: 0x0, symName: __ZNSt3__120__shared_ptr_emplaceIN6twitch10JsonObjectENS_9allocatorIS2_EEE16__on_zero_sharedEv, symObjAddr: 0x191318, symBinAddr: 0x18965C, symSize: 0x14 }
  - { offset: 0xD50363, size: 0x8, addend: 0x0, symName: __ZNSt3__120__shared_ptr_emplaceIN6twitch10JsonObjectENS_9allocatorIS2_EEE16__on_zero_sharedEv, symObjAddr: 0x191318, symBinAddr: 0x18965C, symSize: 0x14 }
  - { offset: 0xD50383, size: 0x8, addend: 0x0, symName: __ZNSt3__120__shared_ptr_emplaceIN6twitch10JsonObjectENS_9allocatorIS2_EEE16__on_zero_sharedEv, symObjAddr: 0x191318, symBinAddr: 0x18965C, symSize: 0x14 }
  - { offset: 0xD503A3, size: 0x8, addend: 0x0, symName: __ZNSt3__120__shared_ptr_emplaceIN6twitch10JsonObjectENS_9allocatorIS2_EEE16__on_zero_sharedEv, symObjAddr: 0x191318, symBinAddr: 0x18965C, symSize: 0x14 }
  - { offset: 0xD503C2, size: 0x8, addend: 0x0, symName: __ZNSt3__120__shared_ptr_emplaceIN6twitch10JsonObjectENS_9allocatorIS2_EEE16__on_zero_sharedEv, symObjAddr: 0x191318, symBinAddr: 0x18965C, symSize: 0x14 }
  - { offset: 0xD503E2, size: 0x8, addend: 0x0, symName: __ZNSt3__120__shared_ptr_emplaceIN6twitch10JsonObjectENS_9allocatorIS2_EEE16__on_zero_sharedEv, symObjAddr: 0x191318, symBinAddr: 0x18965C, symSize: 0x14 }
  - { offset: 0xD50514, size: 0x8, addend: 0x0, symName: __ZNSt3__120__shared_ptr_emplaceIN6twitch10JsonObjectENS_9allocatorIS2_EEE21__on_zero_shared_weakEv, symObjAddr: 0x19132C, symBinAddr: 0x189670, symSize: 0x4 }
  - { offset: 0xD50549, size: 0x8, addend: 0x0, symName: __ZNSt3__120__shared_ptr_emplaceIN6twitch10JsonObjectENS_9allocatorIS2_EEE21__on_zero_shared_weakEv, symObjAddr: 0x19132C, symBinAddr: 0x189670, symSize: 0x4 }
  - { offset: 0xD5056E, size: 0x8, addend: 0x0, symName: __ZNSt3__120__shared_ptr_emplaceIN6twitch10JsonObjectENS_9allocatorIS2_EEE21__on_zero_shared_weakEv, symObjAddr: 0x19132C, symBinAddr: 0x189670, symSize: 0x4 }
  - { offset: 0xD50593, size: 0x8, addend: 0x0, symName: __ZNSt3__120__shared_ptr_emplaceIN6twitch10JsonObjectENS_9allocatorIS2_EEE21__on_zero_shared_weakEv, symObjAddr: 0x19132C, symBinAddr: 0x189670, symSize: 0x4 }
  - { offset: 0xD505C3, size: 0x8, addend: 0x0, symName: __ZNSt3__120__shared_ptr_emplaceIN6twitch10JsonObjectENS_9allocatorIS2_EEE21__on_zero_shared_weakEv, symObjAddr: 0x19132C, symBinAddr: 0x189670, symSize: 0x4 }
  - { offset: 0xD505ED, size: 0x8, addend: 0x0, symName: __ZNSt3__120__shared_ptr_emplaceIN6twitch10JsonObjectENS_9allocatorIS2_EEE21__on_zero_shared_weakEv, symObjAddr: 0x19132C, symBinAddr: 0x189670, symSize: 0x4 }
  - { offset: 0xD507D8, size: 0x8, addend: 0x0, symName: __ZN6twitch4JsonC1ERKNSt3__112basic_stringIcNS1_11char_traitsIcEENS1_9allocatorIcEEEE, symObjAddr: 0x191330, symBinAddr: 0x189674, symSize: 0x80 }
  - { offset: 0xD50EB8, size: 0x8, addend: 0x0, symName: __ZN6twitch4JsonC1ERKNSt3__13mapINS1_12basic_stringIcNS1_11char_traitsIcEENS1_9allocatorIcEEEES0_NS1_4lessIS8_EENS6_INS1_4pairIKS8_S0_EEEEEE, symObjAddr: 0x1913B0, symBinAddr: 0x1896F4, symSize: 0x84 }
  - { offset: 0xD51399, size: 0x8, addend: 0x0, symName: __ZN6twitch4Json5parseERKNSt3__112basic_stringIcNS1_11char_traitsIcEENS1_9allocatorIcEEEERS7_, symObjAddr: 0x1914B8, symBinAddr: 0x1897FC, symSize: 0x1CC }
  - { offset: 0xD51A9D, size: 0x8, addend: 0x0, symName: __ZN6twitch12_GLOBAL__N_110JsonParser10parse_jsonEi, symObjAddr: 0x191684, symBinAddr: 0x1899C8, symSize: 0xC04 }
  - { offset: 0xD55676, size: 0x8, addend: 0x0, symName: __ZN6twitch12_GLOBAL__N_110JsonParser18consume_whitespaceEv, symObjAddr: 0x192288, symBinAddr: 0x18A5CC, symSize: 0x70 }
  - { offset: 0xD55681, size: 0x8, addend: 0x0, symName: __ZN6twitch12_GLOBAL__N_110JsonParser18consume_whitespaceEv, symObjAddr: 0x192288, symBinAddr: 0x18A5CC, symSize: 0x70 }
  - { offset: 0xD55787, size: 0x8, addend: 0x0, symName: __ZN6twitch12_GLOBAL__N_110JsonParser4failEONSt3__112basic_stringIcNS2_11char_traitsIcEENS2_9allocatorIcEEEE, symObjAddr: 0x1922F8, symBinAddr: 0x18A63C, symSize: 0x9C }
  - { offset: 0xD55B90, size: 0x8, addend: 0x0, symName: __ZN6twitch12_GLOBAL__N_110JsonParser14get_next_tokenEv, symObjAddr: 0x192394, symBinAddr: 0x18A6D8, symSize: 0xD8 }
  - { offset: 0xD55F96, size: 0x8, addend: 0x0, symName: __ZN6twitch12_GLOBAL__N_110JsonParser6expectERKNSt3__112basic_stringIcNS2_11char_traitsIcEENS2_9allocatorIcEEEENS_4JsonE, symObjAddr: 0x19246C, symBinAddr: 0x18A7B0, symSize: 0x1DC }
  - { offset: 0xD56A2D, size: 0x8, addend: 0x0, symName: __ZN6twitch12_GLOBAL__N_110JsonParser12parse_stringEv, symObjAddr: 0x192648, symBinAddr: 0x18A98C, symSize: 0x5A4 }
  - { offset: 0xD56A38, size: 0x8, addend: 0x0, symName: __ZN6twitch12_GLOBAL__N_110JsonParser12parse_stringEv, symObjAddr: 0x192648, symBinAddr: 0x18A98C, symSize: 0x5A4 }
  - { offset: 0xD58171, size: 0x8, addend: 0x0, symName: __ZN6twitch12_GLOBAL__N_110JsonParser11encode_utf8ElRNSt3__112basic_stringIcNS2_11char_traitsIcEENS2_9allocatorIcEEEE, symObjAddr: 0x192C80, symBinAddr: 0x18AFC4, symSize: 0xC4 }
  - { offset: 0xA18A27, size: 0x8, addend: 0x0, symName: _sk_new, symObjAddr: 0x108D0C, symBinAddr: 0x10405C, symSize: 0x94 }
  - { offset: 0xA18BA5, size: 0x8, addend: 0x0, symName: _sk_new, symObjAddr: 0x108D0C, symBinAddr: 0x10405C, symSize: 0x94 }
  - { offset: 0xA18D9C, size: 0x8, addend: 0x0, symName: _sk_pop_free_ex, symObjAddr: 0x108E00, symBinAddr: 0x1040F0, symSize: 0xA0 }
  - { offset: 0xA18F64, size: 0x8, addend: 0x0, symName: _sk_insert, symObjAddr: 0x108EA0, symBinAddr: 0x104190, symSize: 0xDC }
  - { offset: 0xA19028, size: 0x8, addend: 0x0, symName: _sk_delete, symObjAddr: 0x108F7C, symBinAddr: 0x10426C, symSize: 0x80 }
  - { offset: 0xA1909F, size: 0x8, addend: 0x0, symName: _sk_find, symObjAddr: 0x108FFC, symBinAddr: 0x1042EC, symSize: 0x184 }
  - { offset: 0xA1920A, size: 0x8, addend: 0x0, symName: _sk_dup, symObjAddr: 0x109180, symBinAddr: 0x104470, symSize: 0x80 }
  - { offset: 0xA192BD, size: 0x8, addend: 0x0, symName: _sk_sort, symObjAddr: 0x109200, symBinAddr: 0x1044F0, symSize: 0x50 }
  - { offset: 0xA1FF38, size: 0x8, addend: 0x0, symName: _RSA_PSS_PARAMS_it, symObjAddr: 0x1E7270, symBinAddr: 0x1F4A18, symSize: 0x0 }
  - { offset: 0xA20048, size: 0x8, addend: 0x0, symName: _RSA_PSS_PARAMS_seq_tt, symObjAddr: 0x1E71D0, symBinAddr: 0x1F4978, symSize: 0x0 }
  - { offset: 0xA6190F, size: 0x8, addend: 0x0, symName: _i2v_AUTHORITY_INFO_ACCESS, symObjAddr: 0x11744C, symBinAddr: 0x11273C, symSize: 0x2E4 }
  - { offset: 0xA61928, size: 0x8, addend: 0x0, symName: _v3_info, symObjAddr: 0x1E9A78, symBinAddr: 0x1F7220, symSize: 0x0 }
  - { offset: 0xA63025, size: 0x8, addend: 0x0, symName: _v3_sinfo, symObjAddr: 0x1E9AE0, symBinAddr: 0x1F7288, symSize: 0x0 }
  - { offset: 0xA6303A, size: 0x8, addend: 0x0, symName: _ACCESS_DESCRIPTION_it, symObjAddr: 0x1E9090, symBinAddr: 0x1F6838, symSize: 0x0 }
  - { offset: 0xA6304F, size: 0x8, addend: 0x0, symName: _AUTHORITY_INFO_ACCESS_it, symObjAddr: 0x1E9008, symBinAddr: 0x1F67B0, symSize: 0x0 }
  - { offset: 0xA63065, size: 0x8, addend: 0x0, symName: _ACCESS_DESCRIPTION_seq_tt, symObjAddr: 0x1E9040, symBinAddr: 0x1F67E8, symSize: 0x0 }
  - { offset: 0xA6308E, size: 0x8, addend: 0x0, symName: _AUTHORITY_INFO_ACCESS_item_tt, symObjAddr: 0x1E90C8, symBinAddr: 0x1F6870, symSize: 0x0 }
  - { offset: 0xA63395, size: 0x8, addend: 0x0, symName: _i2v_AUTHORITY_INFO_ACCESS, symObjAddr: 0x11744C, symBinAddr: 0x11273C, symSize: 0x2E4 }
  - { offset: 0xA639AD, size: 0x8, addend: 0x0, symName: _v2i_AUTHORITY_INFO_ACCESS, symObjAddr: 0x117730, symBinAddr: 0x112A20, symSize: 0x28C }
  - { offset: 0x9D6293, size: 0x8, addend: 0x0, symName: _asn1_generalizedtime_to_tm, symObjAddr: 0xF17E8, symBinAddr: 0xECB38, symSize: 0x2CC }
  - { offset: 0x9D62A1, size: 0x8, addend: 0x0, symName: _asn1_generalizedtime_to_tm, symObjAddr: 0xF17E8, symBinAddr: 0xECB38, symSize: 0x2CC }
  - { offset: 0x9D62C7, size: 0x8, addend: 0x0, symName: _asn1_generalizedtime_to_tm.min, symObjAddr: 0x1982F8, symBinAddr: 0x1AD678, symSize: 0x0 }
  - { offset: 0x9D62DD, size: 0x8, addend: 0x0, symName: _asn1_generalizedtime_to_tm.max, symObjAddr: 0x19831C, symBinAddr: 0x1AD69C, symSize: 0x0 }
  - { offset: 0xA6F7E6, size: 0x8, addend: 0x0, symName: _i2v_POLICY_MAPPINGS, symObjAddr: 0x119004, symBinAddr: 0x1142F4, symSize: 0xBC }
  - { offset: 0xA6F7FF, size: 0x8, addend: 0x0, symName: _v3_policy_mappings, symObjAddr: 0x1EA270, symBinAddr: 0x1F7A18, symSize: 0x0 }
  - { offset: 0xA70EFC, size: 0x8, addend: 0x0, symName: _POLICY_MAPPING_it, symObjAddr: 0x1EA328, symBinAddr: 0x1F7AD0, symSize: 0x0 }
  - { offset: 0xA70F11, size: 0x8, addend: 0x0, symName: _POLICY_MAPPINGS_it, symObjAddr: 0x1EA238, symBinAddr: 0x1F79E0, symSize: 0x0 }
  - { offset: 0xA70F27, size: 0x8, addend: 0x0, symName: _POLICY_MAPPING_seq_tt, symObjAddr: 0x1EA2D8, symBinAddr: 0x1F7A80, symSize: 0x0 }
  - { offset: 0xA70F50, size: 0x8, addend: 0x0, symName: _POLICY_MAPPINGS_item_tt, symObjAddr: 0x1EA360, symBinAddr: 0x1F7B08, symSize: 0x0 }
  - { offset: 0xA71068, size: 0x8, addend: 0x0, symName: _i2v_POLICY_MAPPINGS, symObjAddr: 0x119004, symBinAddr: 0x1142F4, symSize: 0xBC }
  - { offset: 0xA712D1, size: 0x8, addend: 0x0, symName: _v2i_POLICY_MAPPINGS, symObjAddr: 0x1190C0, symBinAddr: 0x1143B0, symSize: 0x30C }
  - { offset: 0xCA2A63, size: 0x8, addend: 0x0, symName: __ZN6twitch4rtmp9RtmpState23handleIncomingChunkSizeENS0_11ChunkHeaderEPKh, symObjAddr: 0x17080C, symBinAddr: 0x16922C, symSize: 0x1C }
  - { offset: 0xCA2BB1, size: 0x8, addend: 0x0, symName: __ZN6twitch4rtmp9RtmpState21handleIncomingControlENS0_11ChunkHeaderEPKh, symObjAddr: 0x170848, symBinAddr: 0x169268, symSize: 0x2A0 }
  - { offset: 0xCA4E6B, size: 0x8, addend: 0x0, symName: __ZN6twitch4rtmp9RtmpState23handleIncomingChunkSizeENS0_11ChunkHeaderEPKh, symObjAddr: 0x17080C, symBinAddr: 0x16922C, symSize: 0x1C }
  - { offset: 0xCA4F00, size: 0x8, addend: 0x0, symName: __ZN6twitch4rtmp9RtmpState22handleIncomingAbortMsgENS0_11ChunkHeaderEPKh, symObjAddr: 0x170828, symBinAddr: 0x169248, symSize: 0x10 }
  - { offset: 0xCA4F38, size: 0x8, addend: 0x0, symName: __ZN6twitch4rtmp9RtmpState22handleIncomingAbortMsgENS0_11ChunkHeaderEPKh, symObjAddr: 0x170828, symBinAddr: 0x169248, symSize: 0x10 }
  - { offset: 0xCA4F63, size: 0x8, addend: 0x0, symName: __ZN6twitch4rtmp9RtmpState23handleIncomingBytesReadENS0_11ChunkHeaderEPKh, symObjAddr: 0x170838, symBinAddr: 0x169258, symSize: 0x10 }
  - { offset: 0xCA4F9B, size: 0x8, addend: 0x0, symName: __ZN6twitch4rtmp9RtmpState23handleIncomingBytesReadENS0_11ChunkHeaderEPKh, symObjAddr: 0x170838, symBinAddr: 0x169258, symSize: 0x10 }
  - { offset: 0xCA5245, size: 0x8, addend: 0x0, symName: __ZN6twitch4rtmp9RtmpState24handleIncomingWinacksizeENS0_11ChunkHeaderEPKh, symObjAddr: 0x170AE8, symBinAddr: 0x169508, symSize: 0x1C }
  - { offset: 0xCA52D8, size: 0x8, addend: 0x0, symName: __ZN6twitch4rtmp9RtmpState20handleIncomingPeerBWENS0_11ChunkHeaderEPKh, symObjAddr: 0x170B04, symBinAddr: 0x169524, symSize: 0x1C }
  - { offset: 0xCA536B, size: 0x8, addend: 0x0, symName: __ZN6twitch4rtmp9RtmpState24handleIncomingEdgeOriginENS0_11ChunkHeaderEPKh, symObjAddr: 0x170B20, symBinAddr: 0x169540, symSize: 0x10 }
  - { offset: 0xCA53A3, size: 0x8, addend: 0x0, symName: __ZN6twitch4rtmp9RtmpState24handleIncomingEdgeOriginENS0_11ChunkHeaderEPKh, symObjAddr: 0x170B20, symBinAddr: 0x169540, symSize: 0x10 }
  - { offset: 0xCA53CE, size: 0x8, addend: 0x0, symName: __ZN6twitch4rtmp9RtmpState19handleIncomingAudioENS0_11ChunkHeaderEPKh, symObjAddr: 0x170B30, symBinAddr: 0x169550, symSize: 0x10 }
  - { offset: 0xCA5406, size: 0x8, addend: 0x0, symName: __ZN6twitch4rtmp9RtmpState19handleIncomingAudioENS0_11ChunkHeaderEPKh, symObjAddr: 0x170B30, symBinAddr: 0x169550, symSize: 0x10 }
  - { offset: 0xCA5432, size: 0x8, addend: 0x0, symName: __ZN6twitch4rtmp9RtmpState19handleIncomingVideoENS0_11ChunkHeaderEPKh, symObjAddr: 0x170B40, symBinAddr: 0x169560, symSize: 0x10 }
  - { offset: 0xCA546D, size: 0x8, addend: 0x0, symName: __ZN6twitch4rtmp9RtmpState19handleIncomingVideoENS0_11ChunkHeaderEPKh, symObjAddr: 0x170B40, symBinAddr: 0x169560, symSize: 0x10 }
  - { offset: 0xCA5499, size: 0x8, addend: 0x0, symName: __ZN6twitch4rtmp9RtmpState22handleIncomingAmf3DataENS0_11ChunkHeaderEPKh, symObjAddr: 0x170B50, symBinAddr: 0x169570, symSize: 0x10 }
  - { offset: 0xCA54D4, size: 0x8, addend: 0x0, symName: __ZN6twitch4rtmp9RtmpState22handleIncomingAmf3DataENS0_11ChunkHeaderEPKh, symObjAddr: 0x170B50, symBinAddr: 0x169570, symSize: 0x10 }
  - { offset: 0xCA5500, size: 0x8, addend: 0x0, symName: __ZN6twitch4rtmp9RtmpState30handleIncomingAmf3SharedObjectENS0_11ChunkHeaderEPh, symObjAddr: 0x170B60, symBinAddr: 0x169580, symSize: 0x10 }
  - { offset: 0xCA553B, size: 0x8, addend: 0x0, symName: __ZN6twitch4rtmp9RtmpState30handleIncomingAmf3SharedObjectENS0_11ChunkHeaderEPh, symObjAddr: 0x170B60, symBinAddr: 0x169580, symSize: 0x10 }
  - { offset: 0xCA5567, size: 0x8, addend: 0x0, symName: __ZN6twitch4rtmp9RtmpState18handleIncomingAmf3ENS0_11ChunkHeaderEPKh, symObjAddr: 0x170B70, symBinAddr: 0x169590, symSize: 0x10 }
  - { offset: 0xCA55A2, size: 0x8, addend: 0x0, symName: __ZN6twitch4rtmp9RtmpState18handleIncomingAmf3ENS0_11ChunkHeaderEPKh, symObjAddr: 0x170B70, symBinAddr: 0x169590, symSize: 0x10 }
  - { offset: 0xCA55CE, size: 0x8, addend: 0x0, symName: __ZN6twitch4rtmp9RtmpState22handleIncomingAmf0DataENS0_11ChunkHeaderEPKh, symObjAddr: 0x170B80, symBinAddr: 0x1695A0, symSize: 0x10 }
  - { offset: 0xCA5609, size: 0x8, addend: 0x0, symName: __ZN6twitch4rtmp9RtmpState22handleIncomingAmf0DataENS0_11ChunkHeaderEPKh, symObjAddr: 0x170B80, symBinAddr: 0x1695A0, symSize: 0x10 }
  - { offset: 0xCA5635, size: 0x8, addend: 0x0, symName: __ZN6twitch4rtmp9RtmpState30handleIncomingAmf0SharedObjectENS0_11ChunkHeaderEPKh, symObjAddr: 0x170B90, symBinAddr: 0x1695B0, symSize: 0x10 }
  - { offset: 0xCA5670, size: 0x8, addend: 0x0, symName: __ZN6twitch4rtmp9RtmpState30handleIncomingAmf0SharedObjectENS0_11ChunkHeaderEPKh, symObjAddr: 0x170B90, symBinAddr: 0x1695B0, symSize: 0x10 }
  - { offset: 0xCA569C, size: 0x8, addend: 0x0, symName: __ZN6twitch4rtmp9RtmpState18handleIncomingAmf0ENS0_11ChunkHeaderEPKh, symObjAddr: 0x170BA0, symBinAddr: 0x1695C0, symSize: 0x10 }
  - { offset: 0xCA56D7, size: 0x8, addend: 0x0, symName: __ZN6twitch4rtmp9RtmpState18handleIncomingAmf0ENS0_11ChunkHeaderEPKh, symObjAddr: 0x170BA0, symBinAddr: 0x1695C0, symSize: 0x10 }
  - { offset: 0xCA5703, size: 0x8, addend: 0x0, symName: __ZN6twitch4rtmp9RtmpState23handleIncomingAggregateENS0_11ChunkHeaderEPKh, symObjAddr: 0x170BB0, symBinAddr: 0x1695D0, symSize: 0x10 }
  - { offset: 0xCA573E, size: 0x8, addend: 0x0, symName: __ZN6twitch4rtmp9RtmpState23handleIncomingAggregateENS0_11ChunkHeaderEPKh, symObjAddr: 0x170BB0, symBinAddr: 0x1695D0, symSize: 0x10 }
  - { offset: 0xCA576A, size: 0x8, addend: 0x0, symName: __ZN6twitch4rtmp9RtmpState15onEnterInternalEv, symObjAddr: 0x170BC0, symBinAddr: 0x1695E0, symSize: 0x4 }
  - { offset: 0xCA58E6, size: 0x8, addend: 0x0, symName: __ZN6twitch4rtmp9RtmpState20pollForInputInternalEv, symObjAddr: 0x170BC4, symBinAddr: 0x1695E4, symSize: 0x6EC }
  - { offset: 0xCA652C, size: 0x8, addend: 0x0, symName: __ZN6twitch4rtmp9RtmpState15appendChunkDataEPKhmRNS0_18RtmpMessageDetailsE, symObjAddr: 0x1712B0, symBinAddr: 0x169CD0, symSize: 0x4DC }
  - { offset: 0x3E0EDF, size: 0x8, addend: 0x0, symName: '-[IVSBroadcastUserDataUnregisteredSEIMessage initWithCxxPointer:]', symObjAddr: 0x5D514, symBinAddr: 0x5ECA0, symSize: 0xBC }
  - { offset: 0x3E1DFD, size: 0x8, addend: 0x0, symName: '-[IVSBroadcastUserDataUnregisteredSEIMessage initWithCxxPointer:]', symObjAddr: 0x5D514, symBinAddr: 0x5ECA0, symSize: 0xBC }
  - { offset: 0x3E1F3D, size: 0x8, addend: 0x0, symName: '-[IVSBroadcastUserDataUnregisteredSEIMessage cxxValue]', symObjAddr: 0x5D5D0, symBinAddr: 0x5ED5C, symSize: 0x8 }
  - { offset: 0x3E1F77, size: 0x8, addend: 0x0, symName: '-[IVSBroadcastUserDataUnregisteredSEIMessage cxxValue]', symObjAddr: 0x5D5D0, symBinAddr: 0x5ED5C, symSize: 0x8 }
  - { offset: 0x3E2051, size: 0x8, addend: 0x0, symName: '-[IVSBroadcastUserDataUnregisteredSEIMessage UUID]', symObjAddr: 0x5D5D8, symBinAddr: 0x5ED64, symSize: 0x858 }
  - { offset: 0x3E522E, size: 0x8, addend: 0x0, symName: '-[IVSBroadcastUserDataUnregisteredSEIMessage timestamp]', symObjAddr: 0x5DE30, symBinAddr: 0x5F5BC, symSize: 0x6C }
  - { offset: 0x3E523D, size: 0x8, addend: 0x0, symName: '-[IVSBroadcastUserDataUnregisteredSEIMessage timestamp]', symObjAddr: 0x5DE30, symBinAddr: 0x5F5BC, symSize: 0x6C }
  - { offset: 0x3E52AE, size: 0x8, addend: 0x0, symName: '-[IVSBroadcastUserDataUnregisteredSEIMessage data]', symObjAddr: 0x5DE9C, symBinAddr: 0x5F628, symSize: 0x98 }
  - { offset: 0x3E5325, size: 0x8, addend: 0x0, symName: '-[IVSBroadcastUserDataUnregisteredSEIMessage .cxx_destruct]', symObjAddr: 0x5DF34, symBinAddr: 0x5F6C0, symSize: 0x40 }
  - { offset: 0x93F457, size: 0x8, addend: 0x0, symName: __ZNK6twitch3ios11AudioSender6getTagEv, symObjAddr: 0xDE210, symBinAddr: 0xD9F44, symSize: 0x2C }
  - { offset: 0x93F46B, size: 0x8, addend: 0x0, symName: __ZNSt3__19__any_imp17__unique_typeinfoINS_6vectorINS_4pairINS_8weak_ptrIN6twitch8ReceiverINS5_9PCMSampleENS5_5ErrorEEEEES8_EENS_9allocatorISB_EEEEE4__idE, symObjAddr: 0x198040, symBinAddr: 0x1AD3C0, symSize: 0x0 }
  - { offset: 0x946484, size: 0x8, addend: 0x0, symName: __ZNSt3__19__any_imp17__unique_typeinfoINS_6vectorINS_4pairINS_8weak_ptrIN6twitch8ReceiverINS5_11ErrorSampleENS5_5ErrorEEEEES8_EENS_9allocatorISB_EEEEE4__idE, symObjAddr: 0x1980AC, symBinAddr: 0x1AD42C, symSize: 0x0 }
  - { offset: 0x94698E, size: 0x8, addend: 0x0, symName: __ZNK6twitch3ios11AudioSender6getTagEv, symObjAddr: 0xDE210, symBinAddr: 0xD9F44, symSize: 0x2C }
  - { offset: 0x9469E7, size: 0x8, addend: 0x0, symName: __ZNK6twitch3ios11AudioSender6getTagEv, symObjAddr: 0xDE210, symBinAddr: 0xD9F44, symSize: 0x2C }
  - { offset: 0x946F7B, size: 0x8, addend: 0x0, symName: __ZN6twitch11MultiSenderINS_9PCMSampleENS_5ErrorEE9setOutputERKNSt3__110shared_ptrINS_8ReceiverIS1_S2_EEEE, symObjAddr: 0xDE23C, symBinAddr: 0xD9F70, symSize: 0x1B8 }
  - { offset: 0x947745, size: 0x8, addend: 0x0, symName: __ZN6twitch3ios11AudioSenderD1Ev, symObjAddr: 0xDE3F4, symBinAddr: 0xDA128, symSize: 0xA8 }
  - { offset: 0x94796B, size: 0x8, addend: 0x0, symName: __ZN6twitch3ios11AudioSenderD1Ev, symObjAddr: 0xDE3F4, symBinAddr: 0xDA128, symSize: 0xA8 }
  - { offset: 0x947C78, size: 0x8, addend: 0x0, symName: __ZN6twitch3ios11AudioSenderD0Ev, symObjAddr: 0xDE49C, symBinAddr: 0xDA1D0, symSize: 0xA8 }
  - { offset: 0x947F83, size: 0x8, addend: 0x0, symName: __ZN6twitch3ios11AudioSender7receiveERKNS_9PCMSampleE, symObjAddr: 0xDE544, symBinAddr: 0xDA278, symSize: 0x10 }
  - { offset: 0x947FBE, size: 0x8, addend: 0x0, symName: __ZN6twitch11MultiSenderINS_9PCMSampleENS_5ErrorEE4sendIS2_Li0EEES2_RKS1_, symObjAddr: 0xDF730, symBinAddr: 0xDB254, symSize: 0x710 }
  - { offset: 0x94B158, size: 0x8, addend: 0x0, symName: __ZN6twitch3ios11AudioSender7receiveERKNS_11ErrorSampleE, symObjAddr: 0xDE554, symBinAddr: 0xDA288, symSize: 0x10 }
  - { offset: 0x94B193, size: 0x8, addend: 0x0, symName: __ZN6twitch11MultiSenderINS_11ErrorSampleENS_5ErrorEE4sendIS2_Li0EEES2_RKS1_, symObjAddr: 0xDEC5C, symBinAddr: 0xDA990, symSize: 0x710 }
  - { offset: 0x94E798, size: 0x8, addend: 0x0, symName: __ZN6twitch11MultiSenderINS_11ErrorSampleENS_5ErrorEE9setOutputERKNSt3__110shared_ptrINS_8ReceiverIS1_S2_EEEE, symObjAddr: 0xDE564, symBinAddr: 0xDA298, symSize: 0x1B8 }
  - { offset: 0x94EF62, size: 0x8, addend: 0x0, symName: __ZThn40_N6twitch3ios11AudioSenderD1Ev, symObjAddr: 0xDE71C, symBinAddr: 0xDA450, symSize: 0xA4 }
  - { offset: 0x94EF6F, size: 0x8, addend: 0x0, symName: __ZThn40_N6twitch3ios11AudioSenderD1Ev, symObjAddr: 0xDE71C, symBinAddr: 0xDA450, symSize: 0xA4 }
  - { offset: 0x94F280, size: 0x8, addend: 0x0, symName: __ZThn40_N6twitch3ios11AudioSenderD0Ev, symObjAddr: 0xDE7C0, symBinAddr: 0xDA4F4, symSize: 0xAC }
  - { offset: 0x94F5CE, size: 0x8, addend: 0x0, symName: __ZThn80_N6twitch3ios11AudioSender7receiveERKNS_9PCMSampleE, symObjAddr: 0xDE86C, symBinAddr: 0xDA5A0, symSize: 0x10 }
  - { offset: 0x94F618, size: 0x8, addend: 0x0, symName: __ZThn80_N6twitch3ios11AudioSenderD1Ev, symObjAddr: 0xDE87C, symBinAddr: 0xDA5B0, symSize: 0xA4 }
  - { offset: 0x94F909, size: 0x8, addend: 0x0, symName: __ZThn80_N6twitch3ios11AudioSenderD0Ev, symObjAddr: 0xDE920, symBinAddr: 0xDA654, symSize: 0xAC }
  - { offset: 0x94FC50, size: 0x8, addend: 0x0, symName: __ZThn88_N6twitch3ios11AudioSender7receiveERKNS_11ErrorSampleE, symObjAddr: 0xDE9CC, symBinAddr: 0xDA700, symSize: 0x10 }
  - { offset: 0x94FC9C, size: 0x8, addend: 0x0, symName: __ZThn88_N6twitch3ios11AudioSenderD1Ev, symObjAddr: 0xDE9DC, symBinAddr: 0xDA710, symSize: 0xA4 }
  - { offset: 0x94FF8D, size: 0x8, addend: 0x0, symName: __ZThn88_N6twitch3ios11AudioSenderD0Ev, symObjAddr: 0xDEA80, symBinAddr: 0xDA7B4, symSize: 0xAC }
  - { offset: 0x9502B0, size: 0x8, addend: 0x0, symName: __ZN6twitch11MultiSenderINS_9PCMSampleENS_5ErrorEED1Ev, symObjAddr: 0xDEB2C, symBinAddr: 0xDA860, symSize: 0x4C }
  - { offset: 0x9503A8, size: 0x8, addend: 0x0, symName: __ZN6twitch11MultiSenderINS_9PCMSampleENS_5ErrorEED0Ev, symObjAddr: 0xDEB78, symBinAddr: 0xDA8AC, symSize: 0x4C }
  - { offset: 0x9504AC, size: 0x8, addend: 0x0, symName: __ZN6twitch11MultiSenderINS_11ErrorSampleENS_5ErrorEED1Ev, symObjAddr: 0xDEBC4, symBinAddr: 0xDA8F8, symSize: 0x4C }
  - { offset: 0x9505A4, size: 0x8, addend: 0x0, symName: __ZN6twitch11MultiSenderINS_11ErrorSampleENS_5ErrorEED0Ev, symObjAddr: 0xDEC10, symBinAddr: 0xDA944, symSize: 0x4C }
  - { offset: 0x951443, size: 0x8, addend: 0x0, symName: __ZN6twitch16MultiSenderErrorINS_11ErrorSampleENS_5ErrorEE14receiverErrorsEv, symObjAddr: 0xDF36C, symBinAddr: 0xDB0A0, symSize: 0x3C }
  - { offset: 0x951989, size: 0x8, addend: 0x0, symName: __ZNSt3__19__any_imp13_SmallHandlerINS_6vectorINS_4pairINS_8weak_ptrIN6twitch8ReceiverINS5_11ErrorSampleENS5_5ErrorEEEEES8_EENS_9allocatorISB_EEEEE8__handleB8nn180100ENS0_7_ActionEPKNS_3anyEPSH_PKSt9type_infoPKv, symObjAddr: 0xDF548, symBinAddr: 0xDB0DC, symSize: 0x178 }
  - { offset: 0x952AF2, size: 0x8, addend: 0x0, symName: __ZN6twitch16MultiSenderErrorINS_9PCMSampleENS_5ErrorEE14receiverErrorsEv, symObjAddr: 0xDFE40, symBinAddr: 0xDB964, symSize: 0x3C }
  - { offset: 0x953036, size: 0x8, addend: 0x0, symName: __ZNSt3__19__any_imp13_SmallHandlerINS_6vectorINS_4pairINS_8weak_ptrIN6twitch8ReceiverINS5_9PCMSampleENS5_5ErrorEEEEES8_EENS_9allocatorISB_EEEEE8__handleB8nn180100ENS0_7_ActionEPKNS_3anyEPSH_PKSt9type_infoPKv, symObjAddr: 0xE001C, symBinAddr: 0xDB9A0, symSize: 0x178 }
  - { offset: 0xBE5ED3, size: 0x8, addend: 0x0, symName: __ZN9resampler13SincResamplerD1Ev, symObjAddr: 0x15A9B4, symBinAddr: 0x1542E4, symSize: 0x4 }
  - { offset: 0xBE6DA6, size: 0x8, addend: 0x0, symName: __ZN9resampler13SincResamplerD1Ev, symObjAddr: 0x15A9B4, symBinAddr: 0x1542E4, symSize: 0x4 }
  - { offset: 0xBE6DCA, size: 0x8, addend: 0x0, symName: __ZN9resampler13SincResamplerD1Ev, symObjAddr: 0x15A9B4, symBinAddr: 0x1542E4, symSize: 0x4 }
  - { offset: 0xBE6DD5, size: 0x8, addend: 0x0, symName: __ZN9resampler13SincResamplerD2Ev, symObjAddr: 0x15AB4C, symBinAddr: 0x15447C, symSize: 0x3C }
  - { offset: 0xBE6F65, size: 0x8, addend: 0x0, symName: __ZN9resampler13SincResamplerD0Ev, symObjAddr: 0x15A9B8, symBinAddr: 0x1542E8, symSize: 0x14 }
  - { offset: 0xBE7039, size: 0x8, addend: 0x0, symName: __ZN9resampler13SincResampler9readFrameEPf, symObjAddr: 0x15A9CC, symBinAddr: 0x1542FC, symSize: 0x180 }
  - { offset: 0xBE76A3, size: 0x8, addend: 0x0, symName: __ZN9resampler13SincResamplerC2ERKNS_21MultiChannelResampler7BuilderE, symObjAddr: 0x15AB88, symBinAddr: 0x1544B8, symSize: 0xA8 }
  - { offset: 0x70292D, size: 0x8, addend: 0x0, symName: __ZN6twitch15AbrDecisionSinkD1Ev, symObjAddr: 0xA8E58, symBinAddr: 0xA75F4, symSize: 0x68 }
  - { offset: 0x7039B5, size: 0x8, addend: 0x0, symName: __ZN6twitch15AbrDecisionSinkD1Ev, symObjAddr: 0xA8E58, symBinAddr: 0xA75F4, symSize: 0x68 }
  - { offset: 0x703A62, size: 0x8, addend: 0x0, symName: __ZN6twitch15AbrDecisionSinkD0Ev, symObjAddr: 0xA8EC0, symBinAddr: 0xA765C, symSize: 0x6C }
  - { offset: 0x70464A, size: 0x8, addend: 0x0, symName: __ZN6twitch15AbrDecisionSink7receiveERKNS_13ControlSampleE, symObjAddr: 0xA8F2C, symBinAddr: 0xA76C8, symSize: 0x14B0 }
  - { offset: 0x70B92D, size: 0x8, addend: 0x0, symName: __ZThn24_N6twitch15AbrDecisionSinkD1Ev, symObjAddr: 0xAA3DC, symBinAddr: 0xA8B78, symSize: 0x68 }
  - { offset: 0x70B9E7, size: 0x8, addend: 0x0, symName: __ZThn24_N6twitch15AbrDecisionSinkD0Ev, symObjAddr: 0xAA444, symBinAddr: 0xA8BE0, symSize: 0x6C }
  - { offset: 0x70BAA5, size: 0x8, addend: 0x0, symName: __ZThn48_N6twitch15AbrDecisionSink7receiveERKNS_13ControlSampleE, symObjAddr: 0xAA4B0, symBinAddr: 0xA8C4C, symSize: 0x8 }
  - { offset: 0x70BACA, size: 0x8, addend: 0x0, symName: __ZThn48_N6twitch15AbrDecisionSinkD1Ev, symObjAddr: 0xAA4B8, symBinAddr: 0xA8C54, symSize: 0x64 }
  - { offset: 0x70BB68, size: 0x8, addend: 0x0, symName: __ZThn48_N6twitch15AbrDecisionSinkD0Ev, symObjAddr: 0xAA51C, symBinAddr: 0xA8CB8, symSize: 0x68 }
  - { offset: 0xA6DC58, size: 0x8, addend: 0x0, symName: _i2v_POLICY_CONSTRAINTS, symObjAddr: 0x118E20, symBinAddr: 0x114110, symSize: 0x54 }
  - { offset: 0xA6DC71, size: 0x8, addend: 0x0, symName: _v3_policy_constraints, symObjAddr: 0x1EA148, symBinAddr: 0x1F78F0, symSize: 0x0 }
  - { offset: 0xA6F36E, size: 0x8, addend: 0x0, symName: _POLICY_CONSTRAINTS_it, symObjAddr: 0x1EA110, symBinAddr: 0x1F78B8, symSize: 0x0 }
  - { offset: 0xA6F384, size: 0x8, addend: 0x0, symName: _POLICY_CONSTRAINTS_seq_tt, symObjAddr: 0x1EA1B0, symBinAddr: 0x1F7958, symSize: 0x0 }
  - { offset: 0xA6F448, size: 0x8, addend: 0x0, symName: _i2v_POLICY_CONSTRAINTS, symObjAddr: 0x118E20, symBinAddr: 0x114110, symSize: 0x54 }
  - { offset: 0xA6F50A, size: 0x8, addend: 0x0, symName: _v2i_POLICY_CONSTRAINTS, symObjAddr: 0x118E74, symBinAddr: 0x114164, symSize: 0x190 }
  - { offset: 0xF2FD3, size: 0x8, addend: 0x0, symName: '-[IVSBackgroundImageSourceImpl initWithDescriptor:renderContext:targetFramerate:onComplete:]', symObjAddr: 0xF524, symBinAddr: 0x12CE4, symSize: 0xF4 }
  - { offset: 0xF68D7, size: 0x8, addend: 0x0, symName: '-[IVSBackgroundImageSourceImpl initWithDescriptor:renderContext:targetFramerate:onComplete:]', symObjAddr: 0xF524, symBinAddr: 0x12CE4, symSize: 0xF4 }
  - { offset: 0xF6961, size: 0x8, addend: 0x0, symName: '-[IVSBackgroundImageSourceImpl sourceRemoved]', symObjAddr: 0xF618, symBinAddr: 0x12DD8, symSize: 0x4C }
  - { offset: 0xF6D11, size: 0x8, addend: 0x0, symName: '-[IVSBackgroundImageSourceImpl finish]', symObjAddr: 0xF664, symBinAddr: 0x12E24, symSize: 0x1D0 }
  - { offset: 0xF7850, size: 0x8, addend: 0x0, symName: __ZN6twitch13PictureSampleC2Ev, symObjAddr: 0xFB4C, symBinAddr: 0x1330C, symSize: 0xD8 }
  - { offset: 0xF7FB3, size: 0x8, addend: 0x0, symName: __ZNSt3__16vectorINS_10shared_ptrIN6twitch17ImageFrameMessageEEENS_9allocatorIS4_EEE16__destroy_vectorclB8nn180100Ev, symObjAddr: 0xFC24, symBinAddr: 0x133E4, symSize: 0x70 }
  - { offset: 0xF8140, size: 0x8, addend: 0x0, symName: '-[IVSBackgroundImageSourceImpl addPixelBuffer:]', symObjAddr: 0xF834, symBinAddr: 0x12FF4, symSize: 0xEC }
  - { offset: 0xF8254, size: 0x8, addend: 0x0, symName: '-[IVSBackgroundImageSourceImpl invokeOnCompleteOnce:]', symObjAddr: 0xF920, symBinAddr: 0x130E0, symSize: 0xA4 }
  - { offset: 0xF82DD, size: 0x8, addend: 0x0, symName: '-[IVSBackgroundImageSourceImpl onComplete]', symObjAddr: 0xF9C4, symBinAddr: 0x13184, symSize: 0x10 }
  - { offset: 0xF8315, size: 0x8, addend: 0x0, symName: '-[IVSBackgroundImageSourceImpl onCompleteOnce]', symObjAddr: 0xF9D4, symBinAddr: 0x13194, symSize: 0x10 }
  - { offset: 0xF834D, size: 0x8, addend: 0x0, symName: '-[IVSBackgroundImageSourceImpl lastPTS]', symObjAddr: 0xF9E4, symBinAddr: 0x131A4, symSize: 0x20 }
  - { offset: 0xF8383, size: 0x8, addend: 0x0, symName: '-[IVSBackgroundImageSourceImpl setLastPTS:]', symObjAddr: 0xFA04, symBinAddr: 0x131C4, symSize: 0x20 }
  - { offset: 0xF83C2, size: 0x8, addend: 0x0, symName: '-[IVSBackgroundImageSourceImpl frameDuration]', symObjAddr: 0xFA24, symBinAddr: 0x131E4, symSize: 0x20 }
  - { offset: 0xF83F8, size: 0x8, addend: 0x0, symName: '-[IVSBackgroundImageSourceImpl setFrameDuration:]', symObjAddr: 0xFA44, symBinAddr: 0x13204, symSize: 0x20 }
  - { offset: 0xF8437, size: 0x8, addend: 0x0, symName: '-[IVSBackgroundImageSourceImpl .cxx_destruct]', symObjAddr: 0xFA64, symBinAddr: 0x13224, symSize: 0x14 }
  - { offset: 0xF846B, size: 0x8, addend: 0x0, symName: '___53-[IVSBackgroundImageSourceImpl invokeOnCompleteOnce:]_block_invoke', symObjAddr: 0xFA78, symBinAddr: 0x13238, symSize: 0x6C }
  - { offset: 0xF84CC, size: 0x8, addend: 0x0, symName: ___copy_helper_block_a8_32s40s, symObjAddr: 0xFAE4, symBinAddr: 0x132A4, symSize: 0x28 }
  - { offset: 0xF84F0, size: 0x8, addend: 0x0, symName: '___53-[IVSBackgroundImageSourceImpl invokeOnCompleteOnce:]_block_invoke_2', symObjAddr: 0xFB0C, symBinAddr: 0x132CC, symSize: 0x40 }
  - { offset: 0xF8C87, size: 0x8, addend: 0x0, symName: __ZNK6twitch13PictureSample13getTrackingIDEv, symObjAddr: 0xFCEC, symBinAddr: 0x13454, symSize: 0x2C }
  - { offset: 0xF8CE1, size: 0x8, addend: 0x0, symName: __ZNK6twitch13PictureSample13getTrackingIDEv, symObjAddr: 0xFCEC, symBinAddr: 0x13454, symSize: 0x2C }
  - { offset: 0x9E205A, size: 0x8, addend: 0x0, symName: _BIO_free, symObjAddr: 0xF69C0, symBinAddr: 0xF1D10, symSize: 0x6C }
  - { offset: 0x9E22F5, size: 0x8, addend: 0x0, symName: _BIO_free, symObjAddr: 0xF69C0, symBinAddr: 0xF1D10, symSize: 0x6C }
  - { offset: 0x9E240A, size: 0x8, addend: 0x0, symName: _BIO_read, symObjAddr: 0xF6A2C, symBinAddr: 0xF1D7C, symSize: 0x9C }
  - { offset: 0x9E2481, size: 0x8, addend: 0x0, symName: _BIO_write, symObjAddr: 0xF6AC8, symBinAddr: 0xF1E18, symSize: 0x9C }
  - { offset: 0x9E24F6, size: 0x8, addend: 0x0, symName: _BIO_ctrl, symObjAddr: 0xF6B64, symBinAddr: 0xF1EB4, symSize: 0x50 }
  - { offset: 0x9E2837, size: 0x8, addend: 0x0, symName: _bio_fd_should_retry, symObjAddr: 0xF6BB4, symBinAddr: 0xF1F04, symSize: 0x5C }
  - { offset: 0x9E2AA3, size: 0x8, addend: 0x0, symName: _bio_fd_should_retry, symObjAddr: 0xF6BB4, symBinAddr: 0xF1F04, symSize: 0x5C }
  - { offset: 0x4E164F, size: 0x8, addend: 0x0, symName: __ZN6twitch25BroadcastRetryCoordinator7receiveERKNS_20BroadcastStateSampleE, symObjAddr: 0x78CB0, symBinAddr: 0x793A0, symSize: 0x288 }
  - { offset: 0x4E3BEF, size: 0x8, addend: 0x0, symName: __ZN6twitch25BroadcastRetryCoordinator13scheduleRetryERKNSt3__112basic_stringIcNS1_11char_traitsIcEENS1_9allocatorIcEEEE, symObjAddr: 0x79178, symBinAddr: 0x79868, symSize: 0x1C0 }
  - { offset: 0x4E4E74, size: 0x8, addend: 0x0, symName: __ZN6twitch25BroadcastRetryCoordinator7receiveERKNS_20BroadcastStateSampleE, symObjAddr: 0x78CB0, symBinAddr: 0x793A0, symSize: 0x288 }
  - { offset: 0x4E55B9, size: 0x8, addend: 0x0, symName: __ZNSt3__13anyaSB8nn180100ERKS0_, symObjAddr: 0x7901C, symBinAddr: 0x7970C, symSize: 0x15C }
  - { offset: 0x4E5A4F, size: 0x8, addend: 0x0, symName: __ZN6twitch25BroadcastRetryCoordinatorD1Ev, symObjAddr: 0x78F38, symBinAddr: 0x79628, symSize: 0x4 }
  - { offset: 0x4E5A73, size: 0x8, addend: 0x0, symName: __ZN6twitch25BroadcastRetryCoordinatorD1Ev, symObjAddr: 0x78F38, symBinAddr: 0x79628, symSize: 0x4 }
  - { offset: 0x4E5A7E, size: 0x8, addend: 0x0, symName: __ZN6twitch25BroadcastRetryCoordinatorD2Ev, symObjAddr: 0x78F50, symBinAddr: 0x79640, symSize: 0xCC }
  - { offset: 0x4E61BE, size: 0x8, addend: 0x0, symName: __ZN6twitch25BroadcastRetryCoordinatorD0Ev, symObjAddr: 0x78F3C, symBinAddr: 0x7962C, symSize: 0x14 }
  - { offset: 0x4E6B16, size: 0x8, addend: 0x0, symName: '__ZNSt3__110__function6__funcIZN6twitch25BroadcastRetryCoordinator13scheduleRetryERKNS_12basic_stringIcNS_11char_traitsIcEENS_9allocatorIcEEEEE3$_0NS7_ISC_EEFvvEED1Ev', symObjAddr: 0x79338, symBinAddr: 0x79A28, symSize: 0x3C }
  - { offset: 0x4E6D93, size: 0x8, addend: 0x0, symName: '__ZNSt3__110__function6__funcIZN6twitch25BroadcastRetryCoordinator13scheduleRetryERKNS_12basic_stringIcNS_11char_traitsIcEENS_9allocatorIcEEEEE3$_0NS7_ISC_EEFvvEED0Ev', symObjAddr: 0x79374, symBinAddr: 0x79A64, symSize: 0x3C }
  - { offset: 0x4E721F, size: 0x8, addend: 0x0, symName: '__ZNKSt3__110__function6__funcIZN6twitch25BroadcastRetryCoordinator13scheduleRetryERKNS_12basic_stringIcNS_11char_traitsIcEENS_9allocatorIcEEEEE3$_0NS7_ISC_EEFvvEE7__cloneEv', symObjAddr: 0x793B0, symBinAddr: 0x79AA0, symSize: 0x64 }
  - { offset: 0x4E7603, size: 0x8, addend: 0x0, symName: '__ZNKSt3__110__function6__funcIZN6twitch25BroadcastRetryCoordinator13scheduleRetryERKNS_12basic_stringIcNS_11char_traitsIcEENS_9allocatorIcEEEEE3$_0NS7_ISC_EEFvvEE7__cloneEPNS0_6__baseISE_EE', symObjAddr: 0x79414, symBinAddr: 0x79B04, symSize: 0x40 }
  - { offset: 0x4E783F, size: 0x8, addend: 0x0, symName: '__ZNSt3__110__function6__funcIZN6twitch25BroadcastRetryCoordinator13scheduleRetryERKNS_12basic_stringIcNS_11char_traitsIcEENS_9allocatorIcEEEEE3$_0NS7_ISC_EEFvvEE7destroyEv', symObjAddr: 0x79454, symBinAddr: 0x79B44, symSize: 0x14 }
  - { offset: 0x4E7925, size: 0x8, addend: 0x0, symName: '__ZNSt3__110__function6__funcIZN6twitch25BroadcastRetryCoordinator13scheduleRetryERKNS_12basic_stringIcNS_11char_traitsIcEENS_9allocatorIcEEEEE3$_0NS7_ISC_EEFvvEE7destroyEv', symObjAddr: 0x79454, symBinAddr: 0x79B44, symSize: 0x14 }
  - { offset: 0x4E7A3F, size: 0x8, addend: 0x0, symName: '__ZNSt3__110__function6__funcIZN6twitch25BroadcastRetryCoordinator13scheduleRetryERKNS_12basic_stringIcNS_11char_traitsIcEENS_9allocatorIcEEEEE3$_0NS7_ISC_EEFvvEE18destroy_deallocateEv', symObjAddr: 0x79468, symBinAddr: 0x79B58, symSize: 0x30 }
  - { offset: 0x4E7D94, size: 0x8, addend: 0x0, symName: '__ZNSt3__110__function6__funcIZN6twitch25BroadcastRetryCoordinator13scheduleRetryERKNS_12basic_stringIcNS_11char_traitsIcEENS_9allocatorIcEEEEE3$_0NS7_ISC_EEFvvEEclEv', symObjAddr: 0x79498, symBinAddr: 0x79B88, symSize: 0x74 }
  - { offset: 0x4E80E7, size: 0x8, addend: 0x0, symName: __ZN6twitch25BroadcastRetryCoordinator15setRetryHandlerERKNSt3__18functionIFvNS0_5StateERKNS1_12basic_stringIcNS1_11char_traitsIcEENS1_9allocatorIcEEEEEEE, symObjAddr: 0x7950C, symBinAddr: 0x79BFC, symSize: 0x254 }
  - { offset: 0x5DB627, size: 0x8, addend: 0x0, symName: __ZNSt3__120__shared_ptr_emplaceIN6twitch10AudioMixerENS_9allocatorIS2_EEED1Ev, symObjAddr: 0x8CE9C, symBinAddr: 0x8C250, symSize: 0x10 }
  - { offset: 0x5DDE8F, size: 0x8, addend: 0x0, symName: __ZNSt3__112__destroy_atB8nn180100IN6twitch9PCMSampleELi0EEEvPT_, symObjAddr: 0x8D144, symBinAddr: 0x8C4A8, symSize: 0x68 }
  - { offset: 0x5DE6AD, size: 0x8, addend: 0x0, symName: __ZNSt3__112construct_atB8nn180100IN6twitch9PCMSampleEJRKS2_EPS2_EEPT_S7_DpOT0_, symObjAddr: 0x8E0B0, symBinAddr: 0x8D308, symSize: 0x10C }
  - { offset: 0x5DE984, size: 0x8, addend: 0x0, symName: __ZNSt3__119__allocate_at_leastB8nn180100INS_9allocatorIN6twitch9PCMSampleEEEEENS_19__allocation_resultINS_16allocator_traitsIT_E7pointerEEERS7_m, symObjAddr: 0x8E1BC, symBinAddr: 0x8D414, symSize: 0x48 }
  - { offset: 0x5DFACC, size: 0x8, addend: 0x0, symName: __ZN6twitch10AudioMixer4stopEv, symObjAddr: 0x8CF6C, symBinAddr: 0x8C320, symSize: 0xB4 }
  - { offset: 0x5E22CA, size: 0x8, addend: 0x0, symName: __ZNSt3__120__shared_ptr_emplaceIN6twitch10AudioMixerENS_9allocatorIS2_EEED1Ev, symObjAddr: 0x8CE9C, symBinAddr: 0x8C250, symSize: 0x10 }
  - { offset: 0x5E22EE, size: 0x8, addend: 0x0, symName: __ZNSt3__120__shared_ptr_emplaceIN6twitch10AudioMixerENS_9allocatorIS2_EEED1Ev, symObjAddr: 0x8CE9C, symBinAddr: 0x8C250, symSize: 0x10 }
  - { offset: 0x5E2325, size: 0x8, addend: 0x0, symName: __ZNSt3__120__shared_ptr_emplaceIN6twitch10AudioMixerENS_9allocatorIS2_EEED0Ev, symObjAddr: 0x8CEAC, symBinAddr: 0x8C260, symSize: 0x20 }
  - { offset: 0x5E240E, size: 0x8, addend: 0x0, symName: __ZNSt3__120__shared_ptr_emplaceIN6twitch10AudioMixerENS_9allocatorIS2_EEE16__on_zero_sharedEv, symObjAddr: 0x8CECC, symBinAddr: 0x8C280, symSize: 0x8 }
  - { offset: 0x5E2438, size: 0x8, addend: 0x0, symName: __ZNSt3__120__shared_ptr_emplaceIN6twitch10AudioMixerENS_9allocatorIS2_EEE16__on_zero_sharedEv, symObjAddr: 0x8CECC, symBinAddr: 0x8C280, symSize: 0x8 }
  - { offset: 0x5E2458, size: 0x8, addend: 0x0, symName: __ZNSt3__120__shared_ptr_emplaceIN6twitch10AudioMixerENS_9allocatorIS2_EEE16__on_zero_sharedEv, symObjAddr: 0x8CECC, symBinAddr: 0x8C280, symSize: 0x8 }
  - { offset: 0x5E24DF, size: 0x8, addend: 0x0, symName: __ZN6twitch10AudioMixerD2Ev, symObjAddr: 0x8CED8, symBinAddr: 0x8C28C, symSize: 0x94 }
  - { offset: 0x5E28CE, size: 0x8, addend: 0x0, symName: __ZNSt3__120__shared_ptr_emplaceIN6twitch10AudioMixerENS_9allocatorIS2_EEE21__on_zero_shared_weakEv, symObjAddr: 0x8CED4, symBinAddr: 0x8C288, symSize: 0x4 }
  - { offset: 0x5E2903, size: 0x8, addend: 0x0, symName: __ZNSt3__120__shared_ptr_emplaceIN6twitch10AudioMixerENS_9allocatorIS2_EEE21__on_zero_shared_weakEv, symObjAddr: 0x8CED4, symBinAddr: 0x8C288, symSize: 0x4 }
  - { offset: 0x5E2928, size: 0x8, addend: 0x0, symName: __ZNSt3__120__shared_ptr_emplaceIN6twitch10AudioMixerENS_9allocatorIS2_EEE21__on_zero_shared_weakEv, symObjAddr: 0x8CED4, symBinAddr: 0x8C288, symSize: 0x4 }
  - { offset: 0x5E294D, size: 0x8, addend: 0x0, symName: __ZNSt3__120__shared_ptr_emplaceIN6twitch10AudioMixerENS_9allocatorIS2_EEE21__on_zero_shared_weakEv, symObjAddr: 0x8CED4, symBinAddr: 0x8C288, symSize: 0x4 }
  - { offset: 0x5E297C, size: 0x8, addend: 0x0, symName: __ZNSt3__120__shared_ptr_emplaceIN6twitch10AudioMixerENS_9allocatorIS2_EEE21__on_zero_shared_weakEv, symObjAddr: 0x8CED4, symBinAddr: 0x8C288, symSize: 0x4 }
  - { offset: 0x5E29A5, size: 0x8, addend: 0x0, symName: __ZNSt3__120__shared_ptr_emplaceIN6twitch10AudioMixerENS_9allocatorIS2_EEE21__on_zero_shared_weakEv, symObjAddr: 0x8CED4, symBinAddr: 0x8C288, symSize: 0x4 }
  - { offset: 0x5E2ADA, size: 0x8, addend: 0x0, symName: __ZNSt3__16vectorIN6twitch9PCMSampleENS_9allocatorIS2_EEE16__destroy_vectorclB8nn180100Ev, symObjAddr: 0x8D020, symBinAddr: 0x8C3D4, symSize: 0x70 }
  - { offset: 0x5E2C1F, size: 0x8, addend: 0x0, symName: __ZNSt3__112__hash_tableINS_17__hash_value_typeINS_12basic_stringIcNS_11char_traitsIcEENS_9allocatorIcEEEEN6twitch9MediaTimeEEENS_22__unordered_map_hasherIS7_SA_NS_4hashIS7_EENS_8equal_toIS7_EELb1EEENS_21__unordered_map_equalIS7_SA_SF_SD_Lb1EEENS5_ISA_EEED2Ev, symObjAddr: 0x8D090, symBinAddr: 0x8C444, symSize: 0x64 }
  - { offset: 0x5E36D3, size: 0x8, addend: 0x0, symName: __ZNSt3__110__function6__funcIZN6twitch10AudioMixer4stopEvEUlvE_NS_9allocatorIS4_EEFvvEED1Ev, symObjAddr: 0x8D1AC, symBinAddr: 0x8C510, symSize: 0x4 }
  - { offset: 0x5E36FE, size: 0x8, addend: 0x0, symName: __ZNSt3__110__function6__funcIZN6twitch10AudioMixer4stopEvEUlvE_NS_9allocatorIS4_EEFvvEED0Ev, symObjAddr: 0x8D1B0, symBinAddr: 0x8C514, symSize: 0x4 }
  - { offset: 0x5E3912, size: 0x8, addend: 0x0, symName: __ZNKSt3__110__function6__funcIZN6twitch10AudioMixer4stopEvEUlvE_NS_9allocatorIS4_EEFvvEE7__cloneEv, symObjAddr: 0x8D1B4, symBinAddr: 0x8C518, symSize: 0x34 }
  - { offset: 0x5E3C2D, size: 0x8, addend: 0x0, symName: __ZNKSt3__110__function6__funcIZN6twitch10AudioMixer4stopEvEUlvE_NS_9allocatorIS4_EEFvvEE7__cloneEPNS0_6__baseIS7_EE, symObjAddr: 0x8D1E8, symBinAddr: 0x8C54C, symSize: 0x14 }
  - { offset: 0x5E3C66, size: 0x8, addend: 0x0, symName: __ZNKSt3__110__function6__funcIZN6twitch10AudioMixer4stopEvEUlvE_NS_9allocatorIS4_EEFvvEE7__cloneEPNS0_6__baseIS7_EE, symObjAddr: 0x8D1E8, symBinAddr: 0x8C54C, symSize: 0x14 }
  - { offset: 0x5E3C98, size: 0x8, addend: 0x0, symName: __ZNKSt3__110__function6__funcIZN6twitch10AudioMixer4stopEvEUlvE_NS_9allocatorIS4_EEFvvEE7__cloneEPNS0_6__baseIS7_EE, symObjAddr: 0x8D1E8, symBinAddr: 0x8C54C, symSize: 0x14 }
  - { offset: 0x5E3CCA, size: 0x8, addend: 0x0, symName: __ZNKSt3__110__function6__funcIZN6twitch10AudioMixer4stopEvEUlvE_NS_9allocatorIS4_EEFvvEE7__cloneEPNS0_6__baseIS7_EE, symObjAddr: 0x8D1E8, symBinAddr: 0x8C54C, symSize: 0x14 }
  - { offset: 0x5E3CE0, size: 0x8, addend: 0x0, symName: __ZNKSt3__110__function6__funcIZN6twitch10AudioMixer4stopEvEUlvE_NS_9allocatorIS4_EEFvvEE7__cloneEPNS0_6__baseIS7_EE, symObjAddr: 0x8D1E8, symBinAddr: 0x8C54C, symSize: 0x14 }
  - { offset: 0x5E3CF5, size: 0x8, addend: 0x0, symName: __ZNKSt3__110__function6__funcIZN6twitch10AudioMixer4stopEvEUlvE_NS_9allocatorIS4_EEFvvEE7__cloneEPNS0_6__baseIS7_EE, symObjAddr: 0x8D1E8, symBinAddr: 0x8C54C, symSize: 0x14 }
  - { offset: 0x5E3D0A, size: 0x8, addend: 0x0, symName: __ZNKSt3__110__function6__funcIZN6twitch10AudioMixer4stopEvEUlvE_NS_9allocatorIS4_EEFvvEE7__cloneEPNS0_6__baseIS7_EE, symObjAddr: 0x8D1E8, symBinAddr: 0x8C54C, symSize: 0x14 }
  - { offset: 0x5E3D1F, size: 0x8, addend: 0x0, symName: __ZNKSt3__110__function6__funcIZN6twitch10AudioMixer4stopEvEUlvE_NS_9allocatorIS4_EEFvvEE7__cloneEPNS0_6__baseIS7_EE, symObjAddr: 0x8D1E8, symBinAddr: 0x8C54C, symSize: 0x14 }
  - { offset: 0x5E3D37, size: 0x8, addend: 0x0, symName: __ZNSt3__110__function6__funcIZN6twitch10AudioMixer4stopEvEUlvE_NS_9allocatorIS4_EEFvvEE7destroyEv, symObjAddr: 0x8D1FC, symBinAddr: 0x8C560, symSize: 0x4 }
  - { offset: 0x5E3D8A, size: 0x8, addend: 0x0, symName: __ZNSt3__110__function6__funcIZN6twitch10AudioMixer4stopEvEUlvE_NS_9allocatorIS4_EEFvvEE18destroy_deallocateEv, symObjAddr: 0x8D200, symBinAddr: 0x8C564, symSize: 0x4 }
  - { offset: 0x5E3DC1, size: 0x8, addend: 0x0, symName: __ZNSt3__110__function6__funcIZN6twitch10AudioMixer4stopEvEUlvE_NS_9allocatorIS4_EEFvvEE18destroy_deallocateEv, symObjAddr: 0x8D200, symBinAddr: 0x8C564, symSize: 0x4 }
  - { offset: 0x5E3DE6, size: 0x8, addend: 0x0, symName: __ZNSt3__110__function6__funcIZN6twitch10AudioMixer4stopEvEUlvE_NS_9allocatorIS4_EEFvvEE18destroy_deallocateEv, symObjAddr: 0x8D200, symBinAddr: 0x8C564, symSize: 0x4 }
  - { offset: 0x5E3E15, size: 0x8, addend: 0x0, symName: __ZNSt3__110__function6__funcIZN6twitch10AudioMixer4stopEvEUlvE_NS_9allocatorIS4_EEFvvEE18destroy_deallocateEv, symObjAddr: 0x8D200, symBinAddr: 0x8C564, symSize: 0x4 }
  - { offset: 0x5E3E3E, size: 0x8, addend: 0x0, symName: __ZNSt3__110__function6__funcIZN6twitch10AudioMixer4stopEvEUlvE_NS_9allocatorIS4_EEFvvEE18destroy_deallocateEv, symObjAddr: 0x8D200, symBinAddr: 0x8C564, symSize: 0x4 }
  - { offset: 0x5E3F16, size: 0x8, addend: 0x0, symName: __ZNSt3__110__function6__funcIZN6twitch10AudioMixer4stopEvEUlvE_NS_9allocatorIS4_EEFvvEEclEv, symObjAddr: 0x8D204, symBinAddr: 0x8C568, symSize: 0x10 }
  - { offset: 0x5E4041, size: 0x8, addend: 0x0, symName: __ZN6twitch7ISenderINS_11ErrorSampleENS_5ErrorEED1Ev, symObjAddr: 0x8D214, symBinAddr: 0x8C578, symSize: 0x4 }
  - { offset: 0x5E4068, size: 0x8, addend: 0x0, symName: __ZN6twitch7ISenderINS_11ErrorSampleENS_5ErrorEED0Ev, symObjAddr: 0x8D218, symBinAddr: 0x8C57C, symSize: 0x4 }
  - { offset: 0x5E4158, size: 0x8, addend: 0x0, symName: __ZN6twitch6SenderINS_11ErrorSampleENS_5ErrorEE9setOutputERKNSt3__110shared_ptrINS_8ReceiverIS1_S2_EEEE, symObjAddr: 0x8D21C, symBinAddr: 0x8C580, symSize: 0x34 }
  - { offset: 0x5E4190, size: 0x8, addend: 0x0, symName: __ZN6twitch6SenderINS_11ErrorSampleENS_5ErrorEE9setOutputERKNSt3__110shared_ptrINS_8ReceiverIS1_S2_EEEE, symObjAddr: 0x8D21C, symBinAddr: 0x8C580, symSize: 0x34 }
  - { offset: 0x5E41B7, size: 0x8, addend: 0x0, symName: __ZN6twitch6SenderINS_11ErrorSampleENS_5ErrorEE9setOutputERKNSt3__110shared_ptrINS_8ReceiverIS1_S2_EEEE, symObjAddr: 0x8D21C, symBinAddr: 0x8C580, symSize: 0x34 }
  - { offset: 0x5E41D5, size: 0x8, addend: 0x0, symName: __ZN6twitch6SenderINS_11ErrorSampleENS_5ErrorEE9setOutputERKNSt3__110shared_ptrINS_8ReceiverIS1_S2_EEEE, symObjAddr: 0x8D21C, symBinAddr: 0x8C580, symSize: 0x34 }
  - { offset: 0x5E42D5, size: 0x8, addend: 0x0, symName: __ZN6twitch6SenderINS_11ErrorSampleENS_5ErrorEE11unsetOutputERKNSt3__110shared_ptrINS_8ReceiverIS1_S2_EEEE, symObjAddr: 0x8D250, symBinAddr: 0x8C5B4, symSize: 0x18 }
  - { offset: 0x5E43BC, size: 0x8, addend: 0x0, symName: __ZN6twitch6SenderINS_11ErrorSampleENS_5ErrorEED1Ev, symObjAddr: 0x8D268, symBinAddr: 0x8C5CC, symSize: 0xC }
  - { offset: 0x5E4405, size: 0x8, addend: 0x0, symName: __ZN6twitch6SenderINS_11ErrorSampleENS_5ErrorEED0Ev, symObjAddr: 0x8D274, symBinAddr: 0x8C5D8, symSize: 0x1C }
  - { offset: 0x5E4754, size: 0x8, addend: 0x0, symName: __ZN6twitch10AudioMixer7receiveERKNS_9PCMSampleE, symObjAddr: 0x8D290, symBinAddr: 0x8C5F4, symSize: 0x4C8 }
  - { offset: 0x5E5028, size: 0x8, addend: 0x0, symName: __ZNSt3__112__hash_tableINS_17__hash_value_typeINS_12basic_stringIcNS_11char_traitsIcEENS_9allocatorIcEEEEN6twitch9MediaTimeEEENS_22__unordered_map_hasherIS7_SA_NS_4hashIS7_EENS_8equal_toIS7_EELb1EEENS_21__unordered_map_equalIS7_SA_SF_SD_Lb1EEENS5_ISA_EEE14__erase_uniqueIS7_EEmRKT_, symObjAddr: 0x8D814, symBinAddr: 0x8CB78, symSize: 0x16C }
  - { offset: 0x5E570C, size: 0x8, addend: 0x0, symName: __ZNSt3__112__hash_tableINS_17__hash_value_typeINS_12basic_stringIcNS_11char_traitsIcEENS_9allocatorIcEEEEN6twitch9MediaTimeEEENS_22__unordered_map_hasherIS7_SA_NS_4hashIS7_EENS_8equal_toIS7_EELb1EEENS_21__unordered_map_equalIS7_SA_SF_SD_Lb1EEENS5_ISA_EEE25__emplace_unique_key_argsIS7_JRKNS_21piecewise_construct_tENS_5tupleIJRKS7_EEENSP_IJEEEEEENS_4pairINS_15__hash_iteratorIPNS_11__hash_nodeISA_PvEEEEbEERKT_DpOT0_, symObjAddr: 0x8DA8C, symBinAddr: 0x8CCE4, symSize: 0x42C }
  - { offset: 0x5E641B, size: 0x8, addend: 0x0, symName: __ZNSt3__16vectorIN6twitch9PCMSampleENS_9allocatorIS2_EEE9push_backB8nn180100ERKS2_, symObjAddr: 0x8DEB8, symBinAddr: 0x8D110, symSize: 0x1F8 }
  - { offset: 0x5E6444, size: 0x8, addend: 0x0, symName: __ZNSt3__16vectorIN6twitch9PCMSampleENS_9allocatorIS2_EEE9push_backB8nn180100ERKS2_, symObjAddr: 0x8DEB8, symBinAddr: 0x8D110, symSize: 0x1F8 }
  - { offset: 0x5E6B54, size: 0x8, addend: 0x0, symName: __ZNSt3__112construct_atB8nn180100IN6twitch9PCMSampleEJRKS2_EPS2_EEPT_S7_DpOT0_, symObjAddr: 0x8E0B0, symBinAddr: 0x8D308, symSize: 0x10C }
  - { offset: 0x5E6B65, size: 0x8, addend: 0x0, symName: __ZN6twitch10AudioMixerD1Ev, symObjAddr: 0x8D758, symBinAddr: 0x8CABC, symSize: 0x4 }
  - { offset: 0x5E6B89, size: 0x8, addend: 0x0, symName: __ZN6twitch10AudioMixerD1Ev, symObjAddr: 0x8D758, symBinAddr: 0x8CABC, symSize: 0x4 }
  - { offset: 0x5E6B94, size: 0x8, addend: 0x0, symName: __ZN6twitch10AudioMixerD0Ev, symObjAddr: 0x8D75C, symBinAddr: 0x8CAC0, symSize: 0x14 }
  - { offset: 0x5E6BE1, size: 0x8, addend: 0x0, symName: __ZNK6twitch10AudioMixer6getTagEv, symObjAddr: 0x8D770, symBinAddr: 0x8CAD4, symSize: 0x2C }
  - { offset: 0x5E6C36, size: 0x8, addend: 0x0, symName: __ZNK6twitch10AudioMixer6getTagEv, symObjAddr: 0x8D770, symBinAddr: 0x8CAD4, symSize: 0x2C }
  - { offset: 0x5E6C8D, size: 0x8, addend: 0x0, symName: __ZTv0_n24_NK6twitch10AudioMixer6getTagEv, symObjAddr: 0x8D79C, symBinAddr: 0x8CB00, symSize: 0x38 }
  - { offset: 0x5E6D26, size: 0x8, addend: 0x0, symName: __ZThn8_N6twitch10AudioMixerD1Ev, symObjAddr: 0x8D7D4, symBinAddr: 0x8CB38, symSize: 0x8 }
  - { offset: 0x5E6D82, size: 0x8, addend: 0x0, symName: __ZThn8_N6twitch10AudioMixerD0Ev, symObjAddr: 0x8D7DC, symBinAddr: 0x8CB40, symSize: 0x18 }
  - { offset: 0x5E6DE2, size: 0x8, addend: 0x0, symName: __ZThn32_N6twitch10AudioMixerD1Ev, symObjAddr: 0x8D7F4, symBinAddr: 0x8CB58, symSize: 0x8 }
  - { offset: 0x5E6E24, size: 0x8, addend: 0x0, symName: __ZThn32_N6twitch10AudioMixerD0Ev, symObjAddr: 0x8D7FC, symBinAddr: 0x8CB60, symSize: 0x18 }
  - { offset: 0xB2DC69, size: 0x8, addend: 0x0, symName: __ZNK6twitch9MediaTime7compareERKS0_, symObjAddr: 0x146F00, symBinAddr: 0x1410D8, symSize: 0x14C }
  - { offset: 0xB2EE39, size: 0x8, addend: 0x0, symName: __ZNK6twitch9MediaTime7compareERKS0_, symObjAddr: 0x146F00, symBinAddr: 0x1410D8, symSize: 0x14C }
  - { offset: 0xB2F050, size: 0x8, addend: 0x0, symName: __ZNK6twitch9MediaTime7scaleToEj, symObjAddr: 0x14704C, symBinAddr: 0x141224, symSize: 0x60 }
  - { offset: 0xB2F080, size: 0x8, addend: 0x0, symName: __ZNK6twitch9MediaTime7scaleToEj, symObjAddr: 0x14704C, symBinAddr: 0x141224, symSize: 0x60 }
  - { offset: 0x5EECC6, size: 0x8, addend: 0x0, symName: __ZN6twitch8RtmpSink7receiveERKNS_11CodedSampleE, symObjAddr: 0x8E2C4, symBinAddr: 0x8D4D8, symSize: 0x7A0 }
  - { offset: 0x5F54E3, size: 0x8, addend: 0x0, symName: __ZNSt3__115allocate_sharedB8nn180100INS_7promiseIN6twitch5ErrorEEENS_9allocatorIS4_EEJEvEENS_10shared_ptrIT_EERKT0_DpOT1_, symObjAddr: 0x8FC74, symBinAddr: 0x8EC6C, symSize: 0x84 }
  - { offset: 0x5F8504, size: 0x8, addend: 0x0, symName: __ZN6twitch8RtmpSink7connectERKNSt3__112basic_stringIcNS1_11char_traitsIcEENS1_9allocatorIcEEEES9_S9_RKNS1_8functionIFvvEEE, symObjAddr: 0x8EA7C, symBinAddr: 0x8DC90, symSize: 0x54C }
  - { offset: 0x5FAF42, size: 0x8, addend: 0x0, symName: __ZN6twitch8RtmpSink13bitrateUpdateEv, symObjAddr: 0x90550, symBinAddr: 0x8F548, symSize: 0x80C }
  - { offset: 0x5FF809, size: 0x8, addend: 0x0, symName: __ZN6twitch8RtmpSink7receiveERKNS_11CodedSampleE, symObjAddr: 0x8E2C4, symBinAddr: 0x8D4D8, symSize: 0x7A0 }
  - { offset: 0x602ECD, size: 0x8, addend: 0x0, symName: __ZNK6twitch9MediaType7isAudioEv, symObjAddr: 0x91984, symBinAddr: 0x907B0, symSize: 0x90 }
  - { offset: 0x603431, size: 0x8, addend: 0x0, symName: __ZN6twitch8RtmpSink11handleAudioERKNS_11CodedSampleE, symObjAddr: 0x91A14, symBinAddr: 0x90840, symSize: 0xAAC }
  - { offset: 0x6087B8, size: 0x8, addend: 0x0, symName: __ZN6twitch8RtmpSink11handleVideoERKNS_11CodedSampleE, symObjAddr: 0x924C0, symBinAddr: 0x912EC, symSize: 0x5B8 }
  - { offset: 0x60A57B, size: 0x8, addend: 0x0, symName: __ZN6twitch8RtmpSink19handleTimedMetadataERKNS_11CodedSampleE, symObjAddr: 0x92A78, symBinAddr: 0x918A4, symSize: 0x444 }
  - { offset: 0x60C0E1, size: 0x8, addend: 0x0, symName: __ZN6twitch8RtmpSinkD1Ev, symObjAddr: 0x8EA64, symBinAddr: 0x8DC78, symSize: 0x4 }
  - { offset: 0x60C105, size: 0x8, addend: 0x0, symName: __ZN6twitch8RtmpSinkD1Ev, symObjAddr: 0x8EA64, symBinAddr: 0x8DC78, symSize: 0x4 }
  - { offset: 0x60C110, size: 0x8, addend: 0x0, symName: __ZN6twitch8RtmpSinkD2Ev, symObjAddr: 0x8F610, symBinAddr: 0x8E824, symSize: 0x148 }
  - { offset: 0x60CA8F, size: 0x8, addend: 0x0, symName: __ZN6twitch8RtmpSinkD0Ev, symObjAddr: 0x8EA68, symBinAddr: 0x8DC7C, symSize: 0x14 }
  - { offset: 0x60D9B4, size: 0x8, addend: 0x0, symName: __ZN6twitch13BroadcastSink18isThirdPartyServerENSt3__112basic_stringIcNS1_11char_traitsIcEENS1_9allocatorIcEEEE, symObjAddr: 0x8FCF8, symBinAddr: 0x8ECF0, symSize: 0xFC }
  - { offset: 0x60DC25, size: 0x8, addend: 0x0, symName: __ZN6twitch8RtmpSink8setStateENS_20BroadcastStateSample5StateENSt3__18optionalINS1_22ThirdPartyServerStatusEEE, symObjAddr: 0x8F800, symBinAddr: 0x8E9C4, symSize: 0x26C }
  - { offset: 0x60F0C0, size: 0x8, addend: 0x0, symName: __ZNSt3__113__assoc_stateIN6twitch5ErrorEE9set_valueIRKS2_EEvOT_, symObjAddr: 0x8FDF4, symBinAddr: 0x8EDEC, symSize: 0x88 }
  - { offset: 0x60F28D, size: 0x8, addend: 0x0, symName: '__ZNSt3__110__function6__funcIZN6twitch8RtmpSink7connectERKNS_12basic_stringIcNS_11char_traitsIcEENS_9allocatorIcEEEESB_SB_RKNS_8functionIFvvEEEE3$_2NS7_ISH_EEFvSB_SB_EED1Ev', symObjAddr: 0x8FE7C, symBinAddr: 0x8EE74, symSize: 0x5C }
  - { offset: 0x60F5DB, size: 0x8, addend: 0x0, symName: __ZN6twitch8RtmpSink4stopEb, symObjAddr: 0x8EFC8, symBinAddr: 0x8E1DC, symSize: 0x468 }
  - { offset: 0x6118BF, size: 0x8, addend: 0x0, symName: __ZN6twitch8RtmpSink6cancelEv, symObjAddr: 0x8F430, symBinAddr: 0x8E644, symSize: 0x48 }
  - { offset: 0x611AE6, size: 0x8, addend: 0x0, symName: __ZN6twitch8RtmpSink14setOfflineHintEb, symObjAddr: 0x8F478, symBinAddr: 0x8E68C, symSize: 0x68 }
  - { offset: 0x611E57, size: 0x8, addend: 0x0, symName: __ZN6twitch13BroadcastSink18processMuxerResultENS_11PacketMuxer6ResultENS_9MediaTypeE, symObjAddr: 0x8F4E0, symBinAddr: 0x8E6F4, symSize: 0x4 }
  - { offset: 0x611E8A, size: 0x8, addend: 0x0, symName: __ZNK6twitch13BroadcastSink6getTagEv, symObjAddr: 0x8F4E4, symBinAddr: 0x8E6F8, symSize: 0x2C }
  - { offset: 0x611EDF, size: 0x8, addend: 0x0, symName: __ZNK6twitch13BroadcastSink6getTagEv, symObjAddr: 0x8F4E4, symBinAddr: 0x8E6F8, symSize: 0x2C }
  - { offset: 0x611F34, size: 0x8, addend: 0x0, symName: __ZTv0_n24_NK6twitch13BroadcastSink6getTagEv, symObjAddr: 0x8F510, symBinAddr: 0x8E724, symSize: 0x34 }
  - { offset: 0x611FCD, size: 0x8, addend: 0x0, symName: __ZThn8_N6twitch8RtmpSinkD1Ev, symObjAddr: 0x8F544, symBinAddr: 0x8E758, symSize: 0x8 }
  - { offset: 0x61202B, size: 0x8, addend: 0x0, symName: __ZThn8_N6twitch8RtmpSinkD0Ev, symObjAddr: 0x8F54C, symBinAddr: 0x8E760, symSize: 0x18 }
  - { offset: 0x6121AE, size: 0x8, addend: 0x0, symName: __ZN6twitch6SenderINS_20BroadcastStateSampleENS_5ErrorEE9setOutputERKNSt3__110shared_ptrINS_8ReceiverIS1_S2_EEEE, symObjAddr: 0x8F564, symBinAddr: 0x8E778, symSize: 0x34 }
  - { offset: 0x6121E6, size: 0x8, addend: 0x0, symName: __ZN6twitch6SenderINS_20BroadcastStateSampleENS_5ErrorEE9setOutputERKNSt3__110shared_ptrINS_8ReceiverIS1_S2_EEEE, symObjAddr: 0x8F564, symBinAddr: 0x8E778, symSize: 0x34 }
  - { offset: 0x61220D, size: 0x8, addend: 0x0, symName: __ZN6twitch6SenderINS_20BroadcastStateSampleENS_5ErrorEE9setOutputERKNSt3__110shared_ptrINS_8ReceiverIS1_S2_EEEE, symObjAddr: 0x8F564, symBinAddr: 0x8E778, symSize: 0x34 }
  - { offset: 0x61222B, size: 0x8, addend: 0x0, symName: __ZN6twitch6SenderINS_20BroadcastStateSampleENS_5ErrorEE9setOutputERKNSt3__110shared_ptrINS_8ReceiverIS1_S2_EEEE, symObjAddr: 0x8F564, symBinAddr: 0x8E778, symSize: 0x34 }
  - { offset: 0x61232B, size: 0x8, addend: 0x0, symName: __ZN6twitch6SenderINS_20BroadcastStateSampleENS_5ErrorEE11unsetOutputERKNSt3__110shared_ptrINS_8ReceiverIS1_S2_EEEE, symObjAddr: 0x8F598, symBinAddr: 0x8E7AC, symSize: 0x18 }
  - { offset: 0x612412, size: 0x8, addend: 0x0, symName: __ZThn32_N6twitch8RtmpSinkD1Ev, symObjAddr: 0x8F5B0, symBinAddr: 0x8E7C4, symSize: 0x8 }
  - { offset: 0x612454, size: 0x8, addend: 0x0, symName: __ZThn32_N6twitch8RtmpSinkD0Ev, symObjAddr: 0x8F5B8, symBinAddr: 0x8E7CC, symSize: 0x18 }
  - { offset: 0x6124B4, size: 0x8, addend: 0x0, symName: __ZThn56_N6twitch8RtmpSinkD1Ev, symObjAddr: 0x8F5D0, symBinAddr: 0x8E7E4, symSize: 0x8 }
  - { offset: 0x6124F6, size: 0x8, addend: 0x0, symName: __ZThn56_N6twitch8RtmpSinkD0Ev, symObjAddr: 0x8F5D8, symBinAddr: 0x8E7EC, symSize: 0x18 }
  - { offset: 0x612556, size: 0x8, addend: 0x0, symName: __ZThn80_N6twitch8RtmpSinkD1Ev, symObjAddr: 0x8F5F0, symBinAddr: 0x8E804, symSize: 0x8 }
  - { offset: 0x612598, size: 0x8, addend: 0x0, symName: __ZThn80_N6twitch8RtmpSinkD0Ev, symObjAddr: 0x8F5F8, symBinAddr: 0x8E80C, symSize: 0x18 }
  - { offset: 0x612842, size: 0x8, addend: 0x0, symName: __ZN6twitch7ISenderINS_20BroadcastStateSampleENS_5ErrorEED1Ev, symObjAddr: 0x8F7A8, symBinAddr: 0x8E96C, symSize: 0x4 }
  - { offset: 0x612869, size: 0x8, addend: 0x0, symName: __ZN6twitch7ISenderINS_20BroadcastStateSampleENS_5ErrorEED0Ev, symObjAddr: 0x8F7AC, symBinAddr: 0x8E970, symSize: 0x4 }
  - { offset: 0x612890, size: 0x8, addend: 0x0, symName: __ZN6twitch6SenderINS_20BroadcastStateSampleENS_5ErrorEED1Ev, symObjAddr: 0x8F7B0, symBinAddr: 0x8E974, symSize: 0xC }
  - { offset: 0x6128DF, size: 0x8, addend: 0x0, symName: __ZN6twitch6SenderINS_20BroadcastStateSampleENS_5ErrorEED0Ev, symObjAddr: 0x8F7BC, symBinAddr: 0x8E980, symSize: 0x1C }
  - { offset: 0x612934, size: 0x8, addend: 0x0, symName: __ZN6twitch13BroadcastSinkD1Ev, symObjAddr: 0x8F7D8, symBinAddr: 0x8E99C, symSize: 0x4 }
  - { offset: 0x612953, size: 0x8, addend: 0x0, symName: __ZN6twitch13BroadcastSinkD0Ev, symObjAddr: 0x8F7DC, symBinAddr: 0x8E9A0, symSize: 0x4 }
  - { offset: 0x61298E, size: 0x8, addend: 0x0, symName: __ZThn8_N6twitch13BroadcastSinkD1Ev, symObjAddr: 0x8F7E0, symBinAddr: 0x8E9A4, symSize: 0x4 }
  - { offset: 0x6129A8, size: 0x8, addend: 0x0, symName: __ZThn8_N6twitch13BroadcastSinkD1Ev, symObjAddr: 0x8F7E0, symBinAddr: 0x8E9A4, symSize: 0x4 }
  - { offset: 0x6129D5, size: 0x8, addend: 0x0, symName: __ZThn8_N6twitch13BroadcastSinkD0Ev, symObjAddr: 0x8F7E4, symBinAddr: 0x8E9A8, symSize: 0x4 }
  - { offset: 0x6129EF, size: 0x8, addend: 0x0, symName: __ZThn8_N6twitch13BroadcastSinkD0Ev, symObjAddr: 0x8F7E4, symBinAddr: 0x8E9A8, symSize: 0x4 }
  - { offset: 0x612A00, size: 0x8, addend: 0x0, symName: __ZThn32_N6twitch13BroadcastSinkD1Ev, symObjAddr: 0x8F7E8, symBinAddr: 0x8E9AC, symSize: 0x4 }
  - { offset: 0x612A1A, size: 0x8, addend: 0x0, symName: __ZThn32_N6twitch13BroadcastSinkD1Ev, symObjAddr: 0x8F7E8, symBinAddr: 0x8E9AC, symSize: 0x4 }
  - { offset: 0x612A2B, size: 0x8, addend: 0x0, symName: __ZThn32_N6twitch13BroadcastSinkD0Ev, symObjAddr: 0x8F7EC, symBinAddr: 0x8E9B0, symSize: 0x4 }
  - { offset: 0x612A45, size: 0x8, addend: 0x0, symName: __ZThn32_N6twitch13BroadcastSinkD0Ev, symObjAddr: 0x8F7EC, symBinAddr: 0x8E9B0, symSize: 0x4 }
  - { offset: 0x612A56, size: 0x8, addend: 0x0, symName: __ZThn56_N6twitch13BroadcastSinkD1Ev, symObjAddr: 0x8F7F0, symBinAddr: 0x8E9B4, symSize: 0x4 }
  - { offset: 0x612A70, size: 0x8, addend: 0x0, symName: __ZThn56_N6twitch13BroadcastSinkD1Ev, symObjAddr: 0x8F7F0, symBinAddr: 0x8E9B4, symSize: 0x4 }
  - { offset: 0x612A81, size: 0x8, addend: 0x0, symName: __ZThn56_N6twitch13BroadcastSinkD0Ev, symObjAddr: 0x8F7F4, symBinAddr: 0x8E9B8, symSize: 0x4 }
  - { offset: 0x612A9B, size: 0x8, addend: 0x0, symName: __ZThn56_N6twitch13BroadcastSinkD0Ev, symObjAddr: 0x8F7F4, symBinAddr: 0x8E9B8, symSize: 0x4 }
  - { offset: 0x612AAC, size: 0x8, addend: 0x0, symName: __ZThn80_N6twitch13BroadcastSinkD1Ev, symObjAddr: 0x8F7F8, symBinAddr: 0x8E9BC, symSize: 0x4 }
  - { offset: 0x612AC6, size: 0x8, addend: 0x0, symName: __ZThn80_N6twitch13BroadcastSinkD1Ev, symObjAddr: 0x8F7F8, symBinAddr: 0x8E9BC, symSize: 0x4 }
  - { offset: 0x612AD7, size: 0x8, addend: 0x0, symName: __ZThn80_N6twitch13BroadcastSinkD0Ev, symObjAddr: 0x8F7FC, symBinAddr: 0x8E9C0, symSize: 0x4 }
  - { offset: 0x612AF1, size: 0x8, addend: 0x0, symName: __ZThn80_N6twitch13BroadcastSinkD0Ev, symObjAddr: 0x8F7FC, symBinAddr: 0x8E9C0, symSize: 0x4 }
  - { offset: 0x6130CA, size: 0x8, addend: 0x0, symName: __ZNSt3__120__shared_ptr_emplaceINS_7promiseIvEENS_9allocatorIS2_EEED1Ev, symObjAddr: 0x8FC38, symBinAddr: 0x8EC30, symSize: 0x10 }
  - { offset: 0x6130EE, size: 0x8, addend: 0x0, symName: __ZNSt3__120__shared_ptr_emplaceINS_7promiseIvEENS_9allocatorIS2_EEED1Ev, symObjAddr: 0x8FC38, symBinAddr: 0x8EC30, symSize: 0x10 }
  - { offset: 0x613125, size: 0x8, addend: 0x0, symName: __ZNSt3__120__shared_ptr_emplaceINS_7promiseIvEENS_9allocatorIS2_EEED0Ev, symObjAddr: 0x8FC48, symBinAddr: 0x8EC40, symSize: 0x20 }
  - { offset: 0x6131F4, size: 0x8, addend: 0x0, symName: __ZNSt3__120__shared_ptr_emplaceINS_7promiseIvEENS_9allocatorIS2_EEE16__on_zero_sharedEv, symObjAddr: 0x8FC68, symBinAddr: 0x8EC60, symSize: 0x8 }
  - { offset: 0x61321E, size: 0x8, addend: 0x0, symName: __ZNSt3__120__shared_ptr_emplaceINS_7promiseIvEENS_9allocatorIS2_EEE16__on_zero_sharedEv, symObjAddr: 0x8FC68, symBinAddr: 0x8EC60, symSize: 0x8 }
  - { offset: 0x61323E, size: 0x8, addend: 0x0, symName: __ZNSt3__120__shared_ptr_emplaceINS_7promiseIvEENS_9allocatorIS2_EEE16__on_zero_sharedEv, symObjAddr: 0x8FC68, symBinAddr: 0x8EC60, symSize: 0x8 }
  - { offset: 0x6132F6, size: 0x8, addend: 0x0, symName: __ZNSt3__120__shared_ptr_emplaceINS_7promiseIvEENS_9allocatorIS2_EEE21__on_zero_shared_weakEv, symObjAddr: 0x8FC70, symBinAddr: 0x8EC68, symSize: 0x4 }
  - { offset: 0x61332B, size: 0x8, addend: 0x0, symName: __ZNSt3__120__shared_ptr_emplaceINS_7promiseIvEENS_9allocatorIS2_EEE21__on_zero_shared_weakEv, symObjAddr: 0x8FC70, symBinAddr: 0x8EC68, symSize: 0x4 }
  - { offset: 0x613350, size: 0x8, addend: 0x0, symName: __ZNSt3__120__shared_ptr_emplaceINS_7promiseIvEENS_9allocatorIS2_EEE21__on_zero_shared_weakEv, symObjAddr: 0x8FC70, symBinAddr: 0x8EC68, symSize: 0x4 }
  - { offset: 0x613375, size: 0x8, addend: 0x0, symName: __ZNSt3__120__shared_ptr_emplaceINS_7promiseIvEENS_9allocatorIS2_EEE21__on_zero_shared_weakEv, symObjAddr: 0x8FC70, symBinAddr: 0x8EC68, symSize: 0x4 }
  - { offset: 0x6133A4, size: 0x8, addend: 0x0, symName: __ZNSt3__120__shared_ptr_emplaceINS_7promiseIvEENS_9allocatorIS2_EEE21__on_zero_shared_weakEv, symObjAddr: 0x8FC70, symBinAddr: 0x8EC68, symSize: 0x4 }
  - { offset: 0x6133CD, size: 0x8, addend: 0x0, symName: __ZNSt3__120__shared_ptr_emplaceINS_7promiseIvEENS_9allocatorIS2_EEE21__on_zero_shared_weakEv, symObjAddr: 0x8FC70, symBinAddr: 0x8EC68, symSize: 0x4 }
  - { offset: 0x61390E, size: 0x8, addend: 0x0, symName: '__ZNSt3__110__function6__funcIZN6twitch8RtmpSink7connectERKNS_12basic_stringIcNS_11char_traitsIcEENS_9allocatorIcEEEESB_SB_RKNS_8functionIFvvEEEE3$_2NS7_ISH_EEFvSB_SB_EED1Ev', symObjAddr: 0x8FE7C, symBinAddr: 0x8EE74, symSize: 0x5C }
  - { offset: 0x613ADA, size: 0x8, addend: 0x0, symName: '__ZNSt3__110__function6__funcIZN6twitch8RtmpSink7connectERKNS_12basic_stringIcNS_11char_traitsIcEENS_9allocatorIcEEEESB_SB_RKNS_8functionIFvvEEEE3$_2NS7_ISH_EEFvSB_SB_EED0Ev', symObjAddr: 0x8FED8, symBinAddr: 0x8EED0, symSize: 0x5C }
  - { offset: 0x613EB5, size: 0x8, addend: 0x0, symName: '__ZNKSt3__110__function6__funcIZN6twitch8RtmpSink7connectERKNS_12basic_stringIcNS_11char_traitsIcEENS_9allocatorIcEEEESB_SB_RKNS_8functionIFvvEEEE3$_2NS7_ISH_EEFvSB_SB_EE7__cloneEv', symObjAddr: 0x8FF34, symBinAddr: 0x8EF2C, symSize: 0x54 }
  - { offset: 0x6142D8, size: 0x8, addend: 0x0, symName: '__ZNKSt3__110__function6__funcIZN6twitch8RtmpSink7connectERKNS_12basic_stringIcNS_11char_traitsIcEENS_9allocatorIcEEEESB_SB_RKNS_8functionIFvvEEEE3$_2NS7_ISH_EEFvSB_SB_EE7__cloneEPNS0_6__baseISJ_EE', symObjAddr: 0x8FF88, symBinAddr: 0x8EF80, symSize: 0x2C }
  - { offset: 0x614315, size: 0x8, addend: 0x0, symName: '__ZNKSt3__110__function6__funcIZN6twitch8RtmpSink7connectERKNS_12basic_stringIcNS_11char_traitsIcEENS_9allocatorIcEEEESB_SB_RKNS_8functionIFvvEEEE3$_2NS7_ISH_EEFvSB_SB_EE7__cloneEPNS0_6__baseISJ_EE', symObjAddr: 0x8FF88, symBinAddr: 0x8EF80, symSize: 0x2C }
  - { offset: 0x614349, size: 0x8, addend: 0x0, symName: '__ZNKSt3__110__function6__funcIZN6twitch8RtmpSink7connectERKNS_12basic_stringIcNS_11char_traitsIcEENS_9allocatorIcEEEESB_SB_RKNS_8functionIFvvEEEE3$_2NS7_ISH_EEFvSB_SB_EE7__cloneEPNS0_6__baseISJ_EE', symObjAddr: 0x8FF88, symBinAddr: 0x8EF80, symSize: 0x2C }
  - { offset: 0x614563, size: 0x8, addend: 0x0, symName: '__ZNSt3__110__function6__funcIZN6twitch8RtmpSink7connectERKNS_12basic_stringIcNS_11char_traitsIcEENS_9allocatorIcEEEESB_SB_RKNS_8functionIFvvEEEE3$_2NS7_ISH_EEFvSB_SB_EE7destroyEv', symObjAddr: 0x8FFB4, symBinAddr: 0x8EFAC, symSize: 0x34 }
  - { offset: 0x61458F, size: 0x8, addend: 0x0, symName: '__ZNSt3__110__function6__funcIZN6twitch8RtmpSink7connectERKNS_12basic_stringIcNS_11char_traitsIcEENS_9allocatorIcEEEESB_SB_RKNS_8functionIFvvEEEE3$_2NS7_ISH_EEFvSB_SB_EE7destroyEv', symObjAddr: 0x8FFB4, symBinAddr: 0x8EFAC, symSize: 0x34 }
  - { offset: 0x6145AF, size: 0x8, addend: 0x0, symName: '__ZNSt3__110__function6__funcIZN6twitch8RtmpSink7connectERKNS_12basic_stringIcNS_11char_traitsIcEENS_9allocatorIcEEEESB_SB_RKNS_8functionIFvvEEEE3$_2NS7_ISH_EEFvSB_SB_EE7destroyEv', symObjAddr: 0x8FFB4, symBinAddr: 0x8EFAC, symSize: 0x34 }
  - { offset: 0x6145CE, size: 0x8, addend: 0x0, symName: '__ZNSt3__110__function6__funcIZN6twitch8RtmpSink7connectERKNS_12basic_stringIcNS_11char_traitsIcEENS_9allocatorIcEEEESB_SB_RKNS_8functionIFvvEEEE3$_2NS7_ISH_EEFvSB_SB_EE7destroyEv', symObjAddr: 0x8FFB4, symBinAddr: 0x8EFAC, symSize: 0x34 }
  - { offset: 0x6145ED, size: 0x8, addend: 0x0, symName: '__ZNSt3__110__function6__funcIZN6twitch8RtmpSink7connectERKNS_12basic_stringIcNS_11char_traitsIcEENS_9allocatorIcEEEESB_SB_RKNS_8functionIFvvEEEE3$_2NS7_ISH_EEFvSB_SB_EE7destroyEv', symObjAddr: 0x8FFB4, symBinAddr: 0x8EFAC, symSize: 0x34 }
  - { offset: 0x61460C, size: 0x8, addend: 0x0, symName: '__ZNSt3__110__function6__funcIZN6twitch8RtmpSink7connectERKNS_12basic_stringIcNS_11char_traitsIcEENS_9allocatorIcEEEESB_SB_RKNS_8functionIFvvEEEE3$_2NS7_ISH_EEFvSB_SB_EE7destroyEv', symObjAddr: 0x8FFB4, symBinAddr: 0x8EFAC, symSize: 0x34 }
  - { offset: 0x61462B, size: 0x8, addend: 0x0, symName: '__ZNSt3__110__function6__funcIZN6twitch8RtmpSink7connectERKNS_12basic_stringIcNS_11char_traitsIcEENS_9allocatorIcEEEESB_SB_RKNS_8functionIFvvEEEE3$_2NS7_ISH_EEFvSB_SB_EE7destroyEv', symObjAddr: 0x8FFB4, symBinAddr: 0x8EFAC, symSize: 0x34 }
  - { offset: 0x61470A, size: 0x8, addend: 0x0, symName: '__ZNSt3__110__function6__funcIZN6twitch8RtmpSink7connectERKNS_12basic_stringIcNS_11char_traitsIcEENS_9allocatorIcEEEESB_SB_RKNS_8functionIFvvEEEE3$_2NS7_ISH_EEFvSB_SB_EE18destroy_deallocateEv', symObjAddr: 0x8FFE8, symBinAddr: 0x8EFE0, symSize: 0x50 }
  - { offset: 0x615007, size: 0x8, addend: 0x0, symName: '__ZNSt3__110__function6__funcIZN6twitch8RtmpSink7connectERKNS_12basic_stringIcNS_11char_traitsIcEENS_9allocatorIcEEEESB_SB_RKNS_8functionIFvvEEEE3$_2NS7_ISH_EEFvSB_SB_EEclESB_SB_', symObjAddr: 0x90038, symBinAddr: 0x8F030, symSize: 0x4B8 }
  - { offset: 0x617132, size: 0x8, addend: 0x0, symName: '__ZNSt3__110__function6__funcIZZN6twitch8RtmpSink7connectERKNS_12basic_stringIcNS_11char_traitsIcEENS_9allocatorIcEEEESB_SB_RKNS_8functionIFvvEEEENK3$_2clESB_SB_EUlvE_NS7_ISI_EESD_ED1Ev', symObjAddr: 0x904F0, symBinAddr: 0x8F4E8, symSize: 0x4 }
  - { offset: 0x61715D, size: 0x8, addend: 0x0, symName: '__ZNSt3__110__function6__funcIZZN6twitch8RtmpSink7connectERKNS_12basic_stringIcNS_11char_traitsIcEENS_9allocatorIcEEEESB_SB_RKNS_8functionIFvvEEEENK3$_2clESB_SB_EUlvE_NS7_ISI_EESD_ED0Ev', symObjAddr: 0x904F4, symBinAddr: 0x8F4EC, symSize: 0x4 }
  - { offset: 0x617371, size: 0x8, addend: 0x0, symName: '__ZNKSt3__110__function6__funcIZZN6twitch8RtmpSink7connectERKNS_12basic_stringIcNS_11char_traitsIcEENS_9allocatorIcEEEESB_SB_RKNS_8functionIFvvEEEENK3$_2clESB_SB_EUlvE_NS7_ISI_EESD_E7__cloneEv', symObjAddr: 0x904F8, symBinAddr: 0x8F4F0, symSize: 0x34 }
  - { offset: 0x61768C, size: 0x8, addend: 0x0, symName: '__ZNKSt3__110__function6__funcIZZN6twitch8RtmpSink7connectERKNS_12basic_stringIcNS_11char_traitsIcEENS_9allocatorIcEEEESB_SB_RKNS_8functionIFvvEEEENK3$_2clESB_SB_EUlvE_NS7_ISI_EESD_E7__cloneEPNS0_6__baseISD_EE', symObjAddr: 0x9052C, symBinAddr: 0x8F524, symSize: 0x14 }
  - { offset: 0x6176C5, size: 0x8, addend: 0x0, symName: '__ZNKSt3__110__function6__funcIZZN6twitch8RtmpSink7connectERKNS_12basic_stringIcNS_11char_traitsIcEENS_9allocatorIcEEEESB_SB_RKNS_8functionIFvvEEEENK3$_2clESB_SB_EUlvE_NS7_ISI_EESD_E7__cloneEPNS0_6__baseISD_EE', symObjAddr: 0x9052C, symBinAddr: 0x8F524, symSize: 0x14 }
  - { offset: 0x6176F7, size: 0x8, addend: 0x0, symName: '__ZNKSt3__110__function6__funcIZZN6twitch8RtmpSink7connectERKNS_12basic_stringIcNS_11char_traitsIcEENS_9allocatorIcEEEESB_SB_RKNS_8functionIFvvEEEENK3$_2clESB_SB_EUlvE_NS7_ISI_EESD_E7__cloneEPNS0_6__baseISD_EE', symObjAddr: 0x9052C, symBinAddr: 0x8F524, symSize: 0x14 }
  - { offset: 0x617729, size: 0x8, addend: 0x0, symName: '__ZNKSt3__110__function6__funcIZZN6twitch8RtmpSink7connectERKNS_12basic_stringIcNS_11char_traitsIcEENS_9allocatorIcEEEESB_SB_RKNS_8functionIFvvEEEENK3$_2clESB_SB_EUlvE_NS7_ISI_EESD_E7__cloneEPNS0_6__baseISD_EE', symObjAddr: 0x9052C, symBinAddr: 0x8F524, symSize: 0x14 }
  - { offset: 0x61773F, size: 0x8, addend: 0x0, symName: '__ZNKSt3__110__function6__funcIZZN6twitch8RtmpSink7connectERKNS_12basic_stringIcNS_11char_traitsIcEENS_9allocatorIcEEEESB_SB_RKNS_8functionIFvvEEEENK3$_2clESB_SB_EUlvE_NS7_ISI_EESD_E7__cloneEPNS0_6__baseISD_EE', symObjAddr: 0x9052C, symBinAddr: 0x8F524, symSize: 0x14 }
  - { offset: 0x617754, size: 0x8, addend: 0x0, symName: '__ZNKSt3__110__function6__funcIZZN6twitch8RtmpSink7connectERKNS_12basic_stringIcNS_11char_traitsIcEENS_9allocatorIcEEEESB_SB_RKNS_8functionIFvvEEEENK3$_2clESB_SB_EUlvE_NS7_ISI_EESD_E7__cloneEPNS0_6__baseISD_EE', symObjAddr: 0x9052C, symBinAddr: 0x8F524, symSize: 0x14 }
  - { offset: 0x617769, size: 0x8, addend: 0x0, symName: '__ZNKSt3__110__function6__funcIZZN6twitch8RtmpSink7connectERKNS_12basic_stringIcNS_11char_traitsIcEENS_9allocatorIcEEEESB_SB_RKNS_8functionIFvvEEEENK3$_2clESB_SB_EUlvE_NS7_ISI_EESD_E7__cloneEPNS0_6__baseISD_EE', symObjAddr: 0x9052C, symBinAddr: 0x8F524, symSize: 0x14 }
  - { offset: 0x61777E, size: 0x8, addend: 0x0, symName: '__ZNKSt3__110__function6__funcIZZN6twitch8RtmpSink7connectERKNS_12basic_stringIcNS_11char_traitsIcEENS_9allocatorIcEEEESB_SB_RKNS_8functionIFvvEEEENK3$_2clESB_SB_EUlvE_NS7_ISI_EESD_E7__cloneEPNS0_6__baseISD_EE', symObjAddr: 0x9052C, symBinAddr: 0x8F524, symSize: 0x14 }
  - { offset: 0x617796, size: 0x8, addend: 0x0, symName: '__ZNSt3__110__function6__funcIZZN6twitch8RtmpSink7connectERKNS_12basic_stringIcNS_11char_traitsIcEENS_9allocatorIcEEEESB_SB_RKNS_8functionIFvvEEEENK3$_2clESB_SB_EUlvE_NS7_ISI_EESD_E7destroyEv', symObjAddr: 0x90540, symBinAddr: 0x8F538, symSize: 0x4 }
  - { offset: 0x6177E9, size: 0x8, addend: 0x0, symName: '__ZNSt3__110__function6__funcIZZN6twitch8RtmpSink7connectERKNS_12basic_stringIcNS_11char_traitsIcEENS_9allocatorIcEEEESB_SB_RKNS_8functionIFvvEEEENK3$_2clESB_SB_EUlvE_NS7_ISI_EESD_E18destroy_deallocateEv', symObjAddr: 0x90544, symBinAddr: 0x8F53C, symSize: 0x4 }
  - { offset: 0x617820, size: 0x8, addend: 0x0, symName: '__ZNSt3__110__function6__funcIZZN6twitch8RtmpSink7connectERKNS_12basic_stringIcNS_11char_traitsIcEENS_9allocatorIcEEEESB_SB_RKNS_8functionIFvvEEEENK3$_2clESB_SB_EUlvE_NS7_ISI_EESD_E18destroy_deallocateEv', symObjAddr: 0x90544, symBinAddr: 0x8F53C, symSize: 0x4 }
  - { offset: 0x617845, size: 0x8, addend: 0x0, symName: '__ZNSt3__110__function6__funcIZZN6twitch8RtmpSink7connectERKNS_12basic_stringIcNS_11char_traitsIcEENS_9allocatorIcEEEESB_SB_RKNS_8functionIFvvEEEENK3$_2clESB_SB_EUlvE_NS7_ISI_EESD_E18destroy_deallocateEv', symObjAddr: 0x90544, symBinAddr: 0x8F53C, symSize: 0x4 }
  - { offset: 0x617874, size: 0x8, addend: 0x0, symName: '__ZNSt3__110__function6__funcIZZN6twitch8RtmpSink7connectERKNS_12basic_stringIcNS_11char_traitsIcEENS_9allocatorIcEEEESB_SB_RKNS_8functionIFvvEEEENK3$_2clESB_SB_EUlvE_NS7_ISI_EESD_E18destroy_deallocateEv', symObjAddr: 0x90544, symBinAddr: 0x8F53C, symSize: 0x4 }
  - { offset: 0x61789D, size: 0x8, addend: 0x0, symName: '__ZNSt3__110__function6__funcIZZN6twitch8RtmpSink7connectERKNS_12basic_stringIcNS_11char_traitsIcEENS_9allocatorIcEEEESB_SB_RKNS_8functionIFvvEEEENK3$_2clESB_SB_EUlvE_NS7_ISI_EESD_E18destroy_deallocateEv', symObjAddr: 0x90544, symBinAddr: 0x8F53C, symSize: 0x4 }
  - { offset: 0x617925, size: 0x8, addend: 0x0, symName: '__ZNSt3__110__function6__funcIZZN6twitch8RtmpSink7connectERKNS_12basic_stringIcNS_11char_traitsIcEENS_9allocatorIcEEEESB_SB_RKNS_8functionIFvvEEEENK3$_2clESB_SB_EUlvE_NS7_ISI_EESD_EclEv', symObjAddr: 0x90548, symBinAddr: 0x8F540, symSize: 0x8 }
  - { offset: 0x6180C0, size: 0x8, addend: 0x0, symName: __ZNSt3__120__shared_ptr_emplaceIN6twitch13ControlSampleENS_9allocatorIS2_EEED1Ev, symObjAddr: 0x90D5C, symBinAddr: 0x8FD54, symSize: 0x10 }
  - { offset: 0x6180E4, size: 0x8, addend: 0x0, symName: __ZNSt3__120__shared_ptr_emplaceIN6twitch13ControlSampleENS_9allocatorIS2_EEED1Ev, symObjAddr: 0x90D5C, symBinAddr: 0x8FD54, symSize: 0x10 }
  - { offset: 0x61811B, size: 0x8, addend: 0x0, symName: __ZNSt3__120__shared_ptr_emplaceIN6twitch13ControlSampleENS_9allocatorIS2_EEED0Ev, symObjAddr: 0x90D6C, symBinAddr: 0x8FD64, symSize: 0x20 }
  - { offset: 0x6181EA, size: 0x8, addend: 0x0, symName: __ZNSt3__120__shared_ptr_emplaceIN6twitch13ControlSampleENS_9allocatorIS2_EEE16__on_zero_sharedEv, symObjAddr: 0x90D8C, symBinAddr: 0x8FD84, symSize: 0x3C }
  - { offset: 0x6184ED, size: 0x8, addend: 0x0, symName: __ZNSt3__120__shared_ptr_emplaceIN6twitch13ControlSampleENS_9allocatorIS2_EEE21__on_zero_shared_weakEv, symObjAddr: 0x90DC8, symBinAddr: 0x8FDC0, symSize: 0x4 }
  - { offset: 0x618522, size: 0x8, addend: 0x0, symName: __ZNSt3__120__shared_ptr_emplaceIN6twitch13ControlSampleENS_9allocatorIS2_EEE21__on_zero_shared_weakEv, symObjAddr: 0x90DC8, symBinAddr: 0x8FDC0, symSize: 0x4 }
  - { offset: 0x618547, size: 0x8, addend: 0x0, symName: __ZNSt3__120__shared_ptr_emplaceIN6twitch13ControlSampleENS_9allocatorIS2_EEE21__on_zero_shared_weakEv, symObjAddr: 0x90DC8, symBinAddr: 0x8FDC0, symSize: 0x4 }
  - { offset: 0x61856C, size: 0x8, addend: 0x0, symName: __ZNSt3__120__shared_ptr_emplaceIN6twitch13ControlSampleENS_9allocatorIS2_EEE21__on_zero_shared_weakEv, symObjAddr: 0x90DC8, symBinAddr: 0x8FDC0, symSize: 0x4 }
  - { offset: 0x61859C, size: 0x8, addend: 0x0, symName: __ZNSt3__120__shared_ptr_emplaceIN6twitch13ControlSampleENS_9allocatorIS2_EEE21__on_zero_shared_weakEv, symObjAddr: 0x90DC8, symBinAddr: 0x8FDC0, symSize: 0x4 }
  - { offset: 0x6185C6, size: 0x8, addend: 0x0, symName: __ZNSt3__120__shared_ptr_emplaceIN6twitch13ControlSampleENS_9allocatorIS2_EEE21__on_zero_shared_weakEv, symObjAddr: 0x90DC8, symBinAddr: 0x8FDC0, symSize: 0x4 }
  - { offset: 0x6185F3, size: 0x8, addend: 0x0, symName: '__ZNSt3__110__function6__funcIZN6twitch8RtmpSink13bitrateUpdateEvE3$_0NS_9allocatorIS4_EEFvvEED1Ev', symObjAddr: 0x90DCC, symBinAddr: 0x8FDC4, symSize: 0x4 }
  - { offset: 0x61861E, size: 0x8, addend: 0x0, symName: '__ZNSt3__110__function6__funcIZN6twitch8RtmpSink13bitrateUpdateEvE3$_0NS_9allocatorIS4_EEFvvEED0Ev', symObjAddr: 0x90DD0, symBinAddr: 0x8FDC8, symSize: 0x4 }
  - { offset: 0x618832, size: 0x8, addend: 0x0, symName: '__ZNKSt3__110__function6__funcIZN6twitch8RtmpSink13bitrateUpdateEvE3$_0NS_9allocatorIS4_EEFvvEE7__cloneEv', symObjAddr: 0x90DD4, symBinAddr: 0x8FDCC, symSize: 0x34 }
  - { offset: 0x618B4D, size: 0x8, addend: 0x0, symName: '__ZNKSt3__110__function6__funcIZN6twitch8RtmpSink13bitrateUpdateEvE3$_0NS_9allocatorIS4_EEFvvEE7__cloneEPNS0_6__baseIS7_EE', symObjAddr: 0x90E08, symBinAddr: 0x8FE00, symSize: 0x14 }
  - { offset: 0x618B86, size: 0x8, addend: 0x0, symName: '__ZNKSt3__110__function6__funcIZN6twitch8RtmpSink13bitrateUpdateEvE3$_0NS_9allocatorIS4_EEFvvEE7__cloneEPNS0_6__baseIS7_EE', symObjAddr: 0x90E08, symBinAddr: 0x8FE00, symSize: 0x14 }
  - { offset: 0x618BB8, size: 0x8, addend: 0x0, symName: '__ZNKSt3__110__function6__funcIZN6twitch8RtmpSink13bitrateUpdateEvE3$_0NS_9allocatorIS4_EEFvvEE7__cloneEPNS0_6__baseIS7_EE', symObjAddr: 0x90E08, symBinAddr: 0x8FE00, symSize: 0x14 }
  - { offset: 0x618BEA, size: 0x8, addend: 0x0, symName: '__ZNKSt3__110__function6__funcIZN6twitch8RtmpSink13bitrateUpdateEvE3$_0NS_9allocatorIS4_EEFvvEE7__cloneEPNS0_6__baseIS7_EE', symObjAddr: 0x90E08, symBinAddr: 0x8FE00, symSize: 0x14 }
  - { offset: 0x618C00, size: 0x8, addend: 0x0, symName: '__ZNKSt3__110__function6__funcIZN6twitch8RtmpSink13bitrateUpdateEvE3$_0NS_9allocatorIS4_EEFvvEE7__cloneEPNS0_6__baseIS7_EE', symObjAddr: 0x90E08, symBinAddr: 0x8FE00, symSize: 0x14 }
  - { offset: 0x618C15, size: 0x8, addend: 0x0, symName: '__ZNKSt3__110__function6__funcIZN6twitch8RtmpSink13bitrateUpdateEvE3$_0NS_9allocatorIS4_EEFvvEE7__cloneEPNS0_6__baseIS7_EE', symObjAddr: 0x90E08, symBinAddr: 0x8FE00, symSize: 0x14 }
  - { offset: 0x618C2A, size: 0x8, addend: 0x0, symName: '__ZNKSt3__110__function6__funcIZN6twitch8RtmpSink13bitrateUpdateEvE3$_0NS_9allocatorIS4_EEFvvEE7__cloneEPNS0_6__baseIS7_EE', symObjAddr: 0x90E08, symBinAddr: 0x8FE00, symSize: 0x14 }
  - { offset: 0x618C3F, size: 0x8, addend: 0x0, symName: '__ZNKSt3__110__function6__funcIZN6twitch8RtmpSink13bitrateUpdateEvE3$_0NS_9allocatorIS4_EEFvvEE7__cloneEPNS0_6__baseIS7_EE', symObjAddr: 0x90E08, symBinAddr: 0x8FE00, symSize: 0x14 }
  - { offset: 0x618C57, size: 0x8, addend: 0x0, symName: '__ZNSt3__110__function6__funcIZN6twitch8RtmpSink13bitrateUpdateEvE3$_0NS_9allocatorIS4_EEFvvEE7destroyEv', symObjAddr: 0x90E1C, symBinAddr: 0x8FE14, symSize: 0x4 }
  - { offset: 0x618CAA, size: 0x8, addend: 0x0, symName: '__ZNSt3__110__function6__funcIZN6twitch8RtmpSink13bitrateUpdateEvE3$_0NS_9allocatorIS4_EEFvvEE18destroy_deallocateEv', symObjAddr: 0x90E20, symBinAddr: 0x8FE18, symSize: 0x4 }
  - { offset: 0x618CE1, size: 0x8, addend: 0x0, symName: '__ZNSt3__110__function6__funcIZN6twitch8RtmpSink13bitrateUpdateEvE3$_0NS_9allocatorIS4_EEFvvEE18destroy_deallocateEv', symObjAddr: 0x90E20, symBinAddr: 0x8FE18, symSize: 0x4 }
  - { offset: 0x618D06, size: 0x8, addend: 0x0, symName: '__ZNSt3__110__function6__funcIZN6twitch8RtmpSink13bitrateUpdateEvE3$_0NS_9allocatorIS4_EEFvvEE18destroy_deallocateEv', symObjAddr: 0x90E20, symBinAddr: 0x8FE18, symSize: 0x4 }
  - { offset: 0x618D35, size: 0x8, addend: 0x0, symName: '__ZNSt3__110__function6__funcIZN6twitch8RtmpSink13bitrateUpdateEvE3$_0NS_9allocatorIS4_EEFvvEE18destroy_deallocateEv', symObjAddr: 0x90E20, symBinAddr: 0x8FE18, symSize: 0x4 }
  - { offset: 0x618D5E, size: 0x8, addend: 0x0, symName: '__ZNSt3__110__function6__funcIZN6twitch8RtmpSink13bitrateUpdateEvE3$_0NS_9allocatorIS4_EEFvvEE18destroy_deallocateEv', symObjAddr: 0x90E20, symBinAddr: 0x8FE18, symSize: 0x4 }
  - { offset: 0x618DE6, size: 0x8, addend: 0x0, symName: '__ZNSt3__110__function6__funcIZN6twitch8RtmpSink13bitrateUpdateEvE3$_0NS_9allocatorIS4_EEFvvEEclEv', symObjAddr: 0x90E24, symBinAddr: 0x8FE1C, symSize: 0x8 }
  - { offset: 0x618F1F, size: 0x8, addend: 0x0, symName: '__ZNSt3__110__function6__funcIZN6twitch8RtmpSink7connectERKNS_12basic_stringIcNS_11char_traitsIcEENS_9allocatorIcEEEESB_SB_RKNS_8functionIFvvEEEE3$_0NS7_ISH_EEFNS2_5ErrorESB_ibRNS_10shared_ptrINS2_6SocketEEEEED1Ev', symObjAddr: 0x90E2C, symBinAddr: 0x8FE24, symSize: 0x3C }
  - { offset: 0x61919C, size: 0x8, addend: 0x0, symName: '__ZNSt3__110__function6__funcIZN6twitch8RtmpSink7connectERKNS_12basic_stringIcNS_11char_traitsIcEENS_9allocatorIcEEEESB_SB_RKNS_8functionIFvvEEEE3$_0NS7_ISH_EEFNS2_5ErrorESB_ibRNS_10shared_ptrINS2_6SocketEEEEED0Ev', symObjAddr: 0x90E68, symBinAddr: 0x8FE60, symSize: 0x3C }
  - { offset: 0x6195E6, size: 0x8, addend: 0x0, symName: '__ZNKSt3__110__function6__funcIZN6twitch8RtmpSink7connectERKNS_12basic_stringIcNS_11char_traitsIcEENS_9allocatorIcEEEESB_SB_RKNS_8functionIFvvEEEE3$_0NS7_ISH_EEFNS2_5ErrorESB_ibRNS_10shared_ptrINS2_6SocketEEEEE7__cloneEv', symObjAddr: 0x90EA4, symBinAddr: 0x8FE9C, symSize: 0x64 }
  - { offset: 0x6199CA, size: 0x8, addend: 0x0, symName: '__ZNKSt3__110__function6__funcIZN6twitch8RtmpSink7connectERKNS_12basic_stringIcNS_11char_traitsIcEENS_9allocatorIcEEEESB_SB_RKNS_8functionIFvvEEEE3$_0NS7_ISH_EEFNS2_5ErrorESB_ibRNS_10shared_ptrINS2_6SocketEEEEE7__cloneEPNS0_6__baseISO_EE', symObjAddr: 0x90F08, symBinAddr: 0x8FF00, symSize: 0x40 }
  - { offset: 0x619C06, size: 0x8, addend: 0x0, symName: '__ZNSt3__110__function6__funcIZN6twitch8RtmpSink7connectERKNS_12basic_stringIcNS_11char_traitsIcEENS_9allocatorIcEEEESB_SB_RKNS_8functionIFvvEEEE3$_0NS7_ISH_EEFNS2_5ErrorESB_ibRNS_10shared_ptrINS2_6SocketEEEEE7destroyEv', symObjAddr: 0x90F48, symBinAddr: 0x8FF40, symSize: 0x14 }
  - { offset: 0x619CEC, size: 0x8, addend: 0x0, symName: '__ZNSt3__110__function6__funcIZN6twitch8RtmpSink7connectERKNS_12basic_stringIcNS_11char_traitsIcEENS_9allocatorIcEEEESB_SB_RKNS_8functionIFvvEEEE3$_0NS7_ISH_EEFNS2_5ErrorESB_ibRNS_10shared_ptrINS2_6SocketEEEEE7destroyEv', symObjAddr: 0x90F48, symBinAddr: 0x8FF40, symSize: 0x14 }
  - { offset: 0x619E06, size: 0x8, addend: 0x0, symName: '__ZNSt3__110__function6__funcIZN6twitch8RtmpSink7connectERKNS_12basic_stringIcNS_11char_traitsIcEENS_9allocatorIcEEEESB_SB_RKNS_8functionIFvvEEEE3$_0NS7_ISH_EEFNS2_5ErrorESB_ibRNS_10shared_ptrINS2_6SocketEEEEE18destroy_deallocateEv', symObjAddr: 0x90F5C, symBinAddr: 0x8FF54, symSize: 0x30 }
  - { offset: 0x61A2DC, size: 0x8, addend: 0x0, symName: '__ZNSt3__110__function6__funcIZN6twitch8RtmpSink7connectERKNS_12basic_stringIcNS_11char_traitsIcEENS_9allocatorIcEEEESB_SB_RKNS_8functionIFvvEEEE3$_0NS7_ISH_EEFNS2_5ErrorESB_ibRNS_10shared_ptrINS2_6SocketEEEEEclESB_OiObSN_', symObjAddr: 0x90F8C, symBinAddr: 0x8FF84, symSize: 0x268 }
  - { offset: 0x61B1D6, size: 0x8, addend: 0x0, symName: '__ZNSt3__110__function6__funcIZN6twitch8RtmpSink7connectERKNS_12basic_stringIcNS_11char_traitsIcEENS_9allocatorIcEEEESB_SB_RKNS_8functionIFvvEEEE3$_1NS7_ISH_EEFvNS2_4rtmp11RtmpContext5StateENS2_5ErrorEEED1Ev', symObjAddr: 0x911F4, symBinAddr: 0x901EC, symSize: 0x4 }
  - { offset: 0x61B201, size: 0x8, addend: 0x0, symName: '__ZNSt3__110__function6__funcIZN6twitch8RtmpSink7connectERKNS_12basic_stringIcNS_11char_traitsIcEENS_9allocatorIcEEEESB_SB_RKNS_8functionIFvvEEEE3$_1NS7_ISH_EEFvNS2_4rtmp11RtmpContext5StateENS2_5ErrorEEED0Ev', symObjAddr: 0x911F8, symBinAddr: 0x901F0, symSize: 0x4 }
  - { offset: 0x61B415, size: 0x8, addend: 0x0, symName: '__ZNKSt3__110__function6__funcIZN6twitch8RtmpSink7connectERKNS_12basic_stringIcNS_11char_traitsIcEENS_9allocatorIcEEEESB_SB_RKNS_8functionIFvvEEEE3$_1NS7_ISH_EEFvNS2_4rtmp11RtmpContext5StateENS2_5ErrorEEE7__cloneEv', symObjAddr: 0x911FC, symBinAddr: 0x901F4, symSize: 0x34 }
  - { offset: 0x61B730, size: 0x8, addend: 0x0, symName: '__ZNKSt3__110__function6__funcIZN6twitch8RtmpSink7connectERKNS_12basic_stringIcNS_11char_traitsIcEENS_9allocatorIcEEEESB_SB_RKNS_8functionIFvvEEEE3$_1NS7_ISH_EEFvNS2_4rtmp11RtmpContext5StateENS2_5ErrorEEE7__cloneEPNS0_6__baseISN_EE', symObjAddr: 0x91230, symBinAddr: 0x90228, symSize: 0x14 }
  - { offset: 0x61B769, size: 0x8, addend: 0x0, symName: '__ZNKSt3__110__function6__funcIZN6twitch8RtmpSink7connectERKNS_12basic_stringIcNS_11char_traitsIcEENS_9allocatorIcEEEESB_SB_RKNS_8functionIFvvEEEE3$_1NS7_ISH_EEFvNS2_4rtmp11RtmpContext5StateENS2_5ErrorEEE7__cloneEPNS0_6__baseISN_EE', symObjAddr: 0x91230, symBinAddr: 0x90228, symSize: 0x14 }
  - { offset: 0x61B79B, size: 0x8, addend: 0x0, symName: '__ZNKSt3__110__function6__funcIZN6twitch8RtmpSink7connectERKNS_12basic_stringIcNS_11char_traitsIcEENS_9allocatorIcEEEESB_SB_RKNS_8functionIFvvEEEE3$_1NS7_ISH_EEFvNS2_4rtmp11RtmpContext5StateENS2_5ErrorEEE7__cloneEPNS0_6__baseISN_EE', symObjAddr: 0x91230, symBinAddr: 0x90228, symSize: 0x14 }
  - { offset: 0x61B7CD, size: 0x8, addend: 0x0, symName: '__ZNKSt3__110__function6__funcIZN6twitch8RtmpSink7connectERKNS_12basic_stringIcNS_11char_traitsIcEENS_9allocatorIcEEEESB_SB_RKNS_8functionIFvvEEEE3$_1NS7_ISH_EEFvNS2_4rtmp11RtmpContext5StateENS2_5ErrorEEE7__cloneEPNS0_6__baseISN_EE', symObjAddr: 0x91230, symBinAddr: 0x90228, symSize: 0x14 }
  - { offset: 0x61B7E3, size: 0x8, addend: 0x0, symName: '__ZNKSt3__110__function6__funcIZN6twitch8RtmpSink7connectERKNS_12basic_stringIcNS_11char_traitsIcEENS_9allocatorIcEEEESB_SB_RKNS_8functionIFvvEEEE3$_1NS7_ISH_EEFvNS2_4rtmp11RtmpContext5StateENS2_5ErrorEEE7__cloneEPNS0_6__baseISN_EE', symObjAddr: 0x91230, symBinAddr: 0x90228, symSize: 0x14 }
  - { offset: 0x61B7F8, size: 0x8, addend: 0x0, symName: '__ZNKSt3__110__function6__funcIZN6twitch8RtmpSink7connectERKNS_12basic_stringIcNS_11char_traitsIcEENS_9allocatorIcEEEESB_SB_RKNS_8functionIFvvEEEE3$_1NS7_ISH_EEFvNS2_4rtmp11RtmpContext5StateENS2_5ErrorEEE7__cloneEPNS0_6__baseISN_EE', symObjAddr: 0x91230, symBinAddr: 0x90228, symSize: 0x14 }
  - { offset: 0x61B80D, size: 0x8, addend: 0x0, symName: '__ZNKSt3__110__function6__funcIZN6twitch8RtmpSink7connectERKNS_12basic_stringIcNS_11char_traitsIcEENS_9allocatorIcEEEESB_SB_RKNS_8functionIFvvEEEE3$_1NS7_ISH_EEFvNS2_4rtmp11RtmpContext5StateENS2_5ErrorEEE7__cloneEPNS0_6__baseISN_EE', symObjAddr: 0x91230, symBinAddr: 0x90228, symSize: 0x14 }
  - { offset: 0x61B822, size: 0x8, addend: 0x0, symName: '__ZNKSt3__110__function6__funcIZN6twitch8RtmpSink7connectERKNS_12basic_stringIcNS_11char_traitsIcEENS_9allocatorIcEEEESB_SB_RKNS_8functionIFvvEEEE3$_1NS7_ISH_EEFvNS2_4rtmp11RtmpContext5StateENS2_5ErrorEEE7__cloneEPNS0_6__baseISN_EE', symObjAddr: 0x91230, symBinAddr: 0x90228, symSize: 0x14 }
  - { offset: 0x61B83A, size: 0x8, addend: 0x0, symName: '__ZNSt3__110__function6__funcIZN6twitch8RtmpSink7connectERKNS_12basic_stringIcNS_11char_traitsIcEENS_9allocatorIcEEEESB_SB_RKNS_8functionIFvvEEEE3$_1NS7_ISH_EEFvNS2_4rtmp11RtmpContext5StateENS2_5ErrorEEE7destroyEv', symObjAddr: 0x91244, symBinAddr: 0x9023C, symSize: 0x4 }
  - { offset: 0x61B88D, size: 0x8, addend: 0x0, symName: '__ZNSt3__110__function6__funcIZN6twitch8RtmpSink7connectERKNS_12basic_stringIcNS_11char_traitsIcEENS_9allocatorIcEEEESB_SB_RKNS_8functionIFvvEEEE3$_1NS7_ISH_EEFvNS2_4rtmp11RtmpContext5StateENS2_5ErrorEEE18destroy_deallocateEv', symObjAddr: 0x91248, symBinAddr: 0x90240, symSize: 0x4 }
  - { offset: 0x61B8C4, size: 0x8, addend: 0x0, symName: '__ZNSt3__110__function6__funcIZN6twitch8RtmpSink7connectERKNS_12basic_stringIcNS_11char_traitsIcEENS_9allocatorIcEEEESB_SB_RKNS_8functionIFvvEEEE3$_1NS7_ISH_EEFvNS2_4rtmp11RtmpContext5StateENS2_5ErrorEEE18destroy_deallocateEv', symObjAddr: 0x91248, symBinAddr: 0x90240, symSize: 0x4 }
  - { offset: 0x61B8E9, size: 0x8, addend: 0x0, symName: '__ZNSt3__110__function6__funcIZN6twitch8RtmpSink7connectERKNS_12basic_stringIcNS_11char_traitsIcEENS_9allocatorIcEEEESB_SB_RKNS_8functionIFvvEEEE3$_1NS7_ISH_EEFvNS2_4rtmp11RtmpContext5StateENS2_5ErrorEEE18destroy_deallocateEv', symObjAddr: 0x91248, symBinAddr: 0x90240, symSize: 0x4 }
  - { offset: 0x61B918, size: 0x8, addend: 0x0, symName: '__ZNSt3__110__function6__funcIZN6twitch8RtmpSink7connectERKNS_12basic_stringIcNS_11char_traitsIcEENS_9allocatorIcEEEESB_SB_RKNS_8functionIFvvEEEE3$_1NS7_ISH_EEFvNS2_4rtmp11RtmpContext5StateENS2_5ErrorEEE18destroy_deallocateEv', symObjAddr: 0x91248, symBinAddr: 0x90240, symSize: 0x4 }
  - { offset: 0x61B941, size: 0x8, addend: 0x0, symName: '__ZNSt3__110__function6__funcIZN6twitch8RtmpSink7connectERKNS_12basic_stringIcNS_11char_traitsIcEENS_9allocatorIcEEEESB_SB_RKNS_8functionIFvvEEEE3$_1NS7_ISH_EEFvNS2_4rtmp11RtmpContext5StateENS2_5ErrorEEE18destroy_deallocateEv', symObjAddr: 0x91248, symBinAddr: 0x90240, symSize: 0x4 }
  - { offset: 0x61BA1D, size: 0x8, addend: 0x0, symName: '__ZNSt3__110__function6__funcIZN6twitch8RtmpSink7connectERKNS_12basic_stringIcNS_11char_traitsIcEENS_9allocatorIcEEEESB_SB_RKNS_8functionIFvvEEEE3$_1NS7_ISH_EEFvNS2_4rtmp11RtmpContext5StateENS2_5ErrorEEEclEOSL_OSM_', symObjAddr: 0x9124C, symBinAddr: 0x90244, symSize: 0x3FC }
  - { offset: 0x61DBA8, size: 0x8, addend: 0x0, symName: __ZNSt3__113__assoc_stateIN6twitch5ErrorEED1Ev, symObjAddr: 0x91814, symBinAddr: 0x90640, symSize: 0x4C }
  - { offset: 0x61DC2A, size: 0x8, addend: 0x0, symName: __ZNSt3__113__assoc_stateIN6twitch5ErrorEED0Ev, symObjAddr: 0x91860, symBinAddr: 0x9068C, symSize: 0x50 }
  - { offset: 0x61DCD1, size: 0x8, addend: 0x0, symName: __ZNSt3__120__shared_ptr_emplaceINS_7promiseIN6twitch5ErrorEEENS_9allocatorIS4_EEED1Ev, symObjAddr: 0x918B0, symBinAddr: 0x906DC, symSize: 0x10 }
  - { offset: 0x61DCF5, size: 0x8, addend: 0x0, symName: __ZNSt3__120__shared_ptr_emplaceINS_7promiseIN6twitch5ErrorEEENS_9allocatorIS4_EEED1Ev, symObjAddr: 0x918B0, symBinAddr: 0x906DC, symSize: 0x10 }
  - { offset: 0x61DD2C, size: 0x8, addend: 0x0, symName: __ZNSt3__120__shared_ptr_emplaceINS_7promiseIN6twitch5ErrorEEENS_9allocatorIS4_EEED0Ev, symObjAddr: 0x918C0, symBinAddr: 0x906EC, symSize: 0x20 }
  - { offset: 0x61DE2D, size: 0x8, addend: 0x0, symName: __ZNSt3__120__shared_ptr_emplaceINS_7promiseIN6twitch5ErrorEEENS_9allocatorIS4_EEE16__on_zero_sharedEv, symObjAddr: 0x918E0, symBinAddr: 0x9070C, symSize: 0x8 }
  - { offset: 0x61DE57, size: 0x8, addend: 0x0, symName: __ZNSt3__120__shared_ptr_emplaceINS_7promiseIN6twitch5ErrorEEENS_9allocatorIS4_EEE16__on_zero_sharedEv, symObjAddr: 0x918E0, symBinAddr: 0x9070C, symSize: 0x8 }
  - { offset: 0x61DE77, size: 0x8, addend: 0x0, symName: __ZNSt3__120__shared_ptr_emplaceINS_7promiseIN6twitch5ErrorEEENS_9allocatorIS4_EEE16__on_zero_sharedEv, symObjAddr: 0x918E0, symBinAddr: 0x9070C, symSize: 0x8 }
  - { offset: 0x61DEFE, size: 0x8, addend: 0x0, symName: __ZNSt3__17promiseIN6twitch5ErrorEED2Ev, symObjAddr: 0x918EC, symBinAddr: 0x90718, symSize: 0x98 }
  - { offset: 0x61E0C7, size: 0x8, addend: 0x0, symName: __ZNK6twitch9MediaType7isAudioEv, symObjAddr: 0x91984, symBinAddr: 0x907B0, symSize: 0x90 }
  - { offset: 0x61E12F, size: 0x8, addend: 0x0, symName: __ZNSt3__120__shared_ptr_emplaceINS_7promiseIN6twitch5ErrorEEENS_9allocatorIS4_EEE21__on_zero_shared_weakEv, symObjAddr: 0x918E8, symBinAddr: 0x90714, symSize: 0x4 }
  - { offset: 0x61E164, size: 0x8, addend: 0x0, symName: __ZNSt3__120__shared_ptr_emplaceINS_7promiseIN6twitch5ErrorEEENS_9allocatorIS4_EEE21__on_zero_shared_weakEv, symObjAddr: 0x918E8, symBinAddr: 0x90714, symSize: 0x4 }
  - { offset: 0x61E189, size: 0x8, addend: 0x0, symName: __ZNSt3__120__shared_ptr_emplaceINS_7promiseIN6twitch5ErrorEEENS_9allocatorIS4_EEE21__on_zero_shared_weakEv, symObjAddr: 0x918E8, symBinAddr: 0x90714, symSize: 0x4 }
  - { offset: 0x61E1AE, size: 0x8, addend: 0x0, symName: __ZNSt3__120__shared_ptr_emplaceINS_7promiseIN6twitch5ErrorEEENS_9allocatorIS4_EEE21__on_zero_shared_weakEv, symObjAddr: 0x918E8, symBinAddr: 0x90714, symSize: 0x4 }
  - { offset: 0x61E1DD, size: 0x8, addend: 0x0, symName: __ZNSt3__120__shared_ptr_emplaceINS_7promiseIN6twitch5ErrorEEENS_9allocatorIS4_EEE21__on_zero_shared_weakEv, symObjAddr: 0x918E8, symBinAddr: 0x90714, symSize: 0x4 }
  - { offset: 0x61E206, size: 0x8, addend: 0x0, symName: __ZNSt3__120__shared_ptr_emplaceINS_7promiseIN6twitch5ErrorEEENS_9allocatorIS4_EEE21__on_zero_shared_weakEv, symObjAddr: 0x918E8, symBinAddr: 0x90714, symSize: 0x4 }
  - { offset: 0x61E74C, size: 0x8, addend: 0x0, symName: __ZN6twitch13BroadcastSinkC2ERKNSt3__112basic_stringIcNS1_11char_traitsIcEENS1_9allocatorIcEEEE, symObjAddr: 0x92EBC, symBinAddr: 0x91CE8, symSize: 0x1E0 }
  - { offset: 0xA6003C, size: 0x8, addend: 0x0, symName: _i2s_ASN1_IA5STRING, symObjAddr: 0x117338, symBinAddr: 0x112628, symSize: 0x88 }
  - { offset: 0xA60055, size: 0x8, addend: 0x0, symName: _v3_ns_ia5_list, symObjAddr: 0x1E9258, symBinAddr: 0x1F6A00, symSize: 0x0 }
  - { offset: 0xA616A9, size: 0x8, addend: 0x0, symName: _i2s_ASN1_IA5STRING, symObjAddr: 0x117338, symBinAddr: 0x112628, symSize: 0x88 }
  - { offset: 0xA61764, size: 0x8, addend: 0x0, symName: _s2i_ASN1_IA5STRING, symObjAddr: 0x1173C0, symBinAddr: 0x1126B0, symSize: 0x8C }
  - { offset: 0xC65BCA, size: 0x8, addend: 0x0, symName: __ZN6twitch4rtmp8RtmpImplD1Ev, symObjAddr: 0x168F2C, symBinAddr: 0x1619D8, symSize: 0x4 }
  - { offset: 0xC65D3D, size: 0x8, addend: 0x0, symName: __ZN6twitch4rtmpL8_pushu32ERNSt3__16vectorIhNS1_9allocatorIhEEEEj, symObjAddr: 0x16C26C, symBinAddr: 0x164CC0, symSize: 0x328 }
  - { offset: 0xC67086, size: 0x8, addend: 0x0, symName: __ZN6twitch4rtmp8RtmpImpl14setClosedStateERKNS_5ErrorE, symObjAddr: 0x16C594, symBinAddr: 0x164FE8, symSize: 0x6C }
  - { offset: 0xC670B7, size: 0x8, addend: 0x0, symName: __ZN6twitch4rtmpL8_pushu24ERNSt3__16vectorIhNS1_9allocatorIhEEEEj, symObjAddr: 0x16C004, symBinAddr: 0x164A58, symSize: 0x268 }
  - { offset: 0xC67F67, size: 0x8, addend: 0x0, symName: __ZN6twitch4rtmpL8_pushu32ERNSt3__16vectorIhNS1_9allocatorIhEEEEj, symObjAddr: 0x16C26C, symBinAddr: 0x164CC0, symSize: 0x328 }
  - { offset: 0xC6D98C, size: 0x8, addend: 0x0, symName: __ZNSt3__120__shared_ptr_emplaceIN6twitch4rtmp8RtmpImpl7MessageENS_9allocatorIS4_EEED1Ev, symObjAddr: 0x16D550, symBinAddr: 0x165F70, symSize: 0x10 }
  - { offset: 0xC700C1, size: 0x8, addend: 0x0, symName: __ZN6twitch4rtmp8RtmpImpl5startEv, symObjAddr: 0x168F44, symBinAddr: 0x1619F0, symSize: 0x138 }
  - { offset: 0xC709B5, size: 0x8, addend: 0x0, symName: __ZN6twitch4rtmp8RtmpImpl13scheduleWriteEv, symObjAddr: 0x16C68C, symBinAddr: 0x1650E0, symSize: 0xD0 }
  - { offset: 0xC712A5, size: 0x8, addend: 0x0, symName: __ZN6twitch4rtmp8RtmpImplD1Ev, symObjAddr: 0x168F2C, symBinAddr: 0x1619D8, symSize: 0x4 }
  - { offset: 0xC712C9, size: 0x8, addend: 0x0, symName: __ZN6twitch4rtmp8RtmpImplD1Ev, symObjAddr: 0x168F2C, symBinAddr: 0x1619D8, symSize: 0x4 }
  - { offset: 0xC712D4, size: 0x8, addend: 0x0, symName: __ZN6twitch4rtmp8RtmpImplD2Ev, symObjAddr: 0x16D6E4, symBinAddr: 0x166104, symSize: 0x314 }
  - { offset: 0xC7207E, size: 0x8, addend: 0x0, symName: __ZN6twitch4rtmp8RtmpImplD0Ev, symObjAddr: 0x168F30, symBinAddr: 0x1619DC, symSize: 0x14 }
  - { offset: 0xC72343, size: 0x8, addend: 0x0, symName: __ZN6twitch4rtmp8RtmpImpl16queueHandshake01Ev, symObjAddr: 0x16D1A4, symBinAddr: 0x165BF8, symSize: 0x300 }
  - { offset: 0xC7328C, size: 0x8, addend: 0x0, symName: '__ZNSt3__110__function6__funcIZN6twitch4rtmp8RtmpImpl22scheduleTrimSendQueuesEvE3$_0NS_9allocatorIS5_EEFvvEED1Ev', symObjAddr: 0x16D4A4, symBinAddr: 0x165EF8, symSize: 0x4 }
  - { offset: 0xC74744, size: 0x8, addend: 0x0, symName: __ZN6twitch4rtmp8RtmpImpl5writeENS0_5Rtmp28PriorityEjNS2_11MessageTypeENS_9MediaTimeERKNSt3__16vectorIhNS6_9allocatorIhEEEES5_S5_, symObjAddr: 0x16907C, symBinAddr: 0x161B28, symSize: 0x9E0 }
  - { offset: 0xC76FDF, size: 0x8, addend: 0x0, symName: __ZN6twitch4rtmp8RtmpImpl15newDataReceivedEPKhm, symObjAddr: 0x169A5C, symBinAddr: 0x162508, symSize: 0x11D8 }
  - { offset: 0xC7810A, size: 0x8, addend: 0x0, symName: __ZN6twitch4rtmp8RtmpImpl15newDataReceivedEPKhm, symObjAddr: 0x169A5C, symBinAddr: 0x162508, symSize: 0x11D8 }
  - { offset: 0xC7D470, size: 0x8, addend: 0x0, symName: __ZN6twitch4rtmp8RtmpImpl33clearAndAbortInProgressForClosingEv, symObjAddr: 0x16AC34, symBinAddr: 0x1636E0, symSize: 0x34 }
  - { offset: 0xC7D47D, size: 0x8, addend: 0x0, symName: __ZNSt3__14pairIN6twitch5ErrorEiEC2B8nn180100IS2_iLi0EEEOT_OT0_, symObjAddr: 0x16CC28, symBinAddr: 0x16567C, symSize: 0xD0 }
  - { offset: 0xC7D747, size: 0x8, addend: 0x0, symName: __ZNSt3__14pairIN6twitch5ErrorElEC2B8nn180100IS2_iLi0EEEONS0_IT_T0_EE, symObjAddr: 0x16CCF8, symBinAddr: 0x16574C, symSize: 0xC4 }
  - { offset: 0xC7DA01, size: 0x8, addend: 0x0, symName: __ZN6twitch4rtmp8RtmpImpl16checkRtmpVersionEPKh, symObjAddr: 0x16CF5C, symBinAddr: 0x1659B0, symSize: 0x248 }
  - { offset: 0xC7E31B, size: 0x8, addend: 0x0, symName: __ZN6twitch4rtmp8RtmpImpl19queueControlMessageENS0_5Rtmp211MessageTypeEPKhm, symObjAddr: 0x16B444, symBinAddr: 0x163E98, symSize: 0x98 }
  - { offset: 0xC7E91D, size: 0x8, addend: 0x0, symName: __ZNSt3__14pairIN6twitch5ErrorElEC2B8nn180100IS2_tLi0EEEONS0_IT_T0_EE, symObjAddr: 0x16CE98, symBinAddr: 0x1658EC, symSize: 0xC4 }
  - { offset: 0xC7EBD7, size: 0x8, addend: 0x0, symName: __ZNSt3__16__treeINS_12__value_typeIjN6twitch4rtmp8RtmpImpl20RecvChunkStreamStateEEENS_19__map_value_compareIjS6_NS_4lessIjEELb1EEENS_9allocatorIS6_EEE25__emplace_unique_key_argsIjJRKNS_21piecewise_construct_tENS_5tupleIJRKjEEENSI_IJEEEEEENS_4pairINS_15__tree_iteratorIS6_PNS_11__tree_nodeIS6_PvEElEEbEERKT_DpOT0_, symObjAddr: 0x16CDBC, symBinAddr: 0x165810, symSize: 0xDC }
  - { offset: 0xC7EF65, size: 0x8, addend: 0x0, symName: __ZN6twitch4rtmp8RtmpImpl14setClosedStateERKNS_5ErrorE, symObjAddr: 0x16C594, symBinAddr: 0x164FE8, symSize: 0x6C }
  - { offset: 0xC7F009, size: 0x8, addend: 0x0, symName: __ZN6twitch4rtmp8RtmpImpl7sendAckEv, symObjAddr: 0x16C600, symBinAddr: 0x165054, symSize: 0x8C }
  - { offset: 0xC7F0EA, size: 0x8, addend: 0x0, symName: __ZN6twitch4rtmp8RtmpImpl33clearAndAbortInProgressForClosingEv, symObjAddr: 0x16AC34, symBinAddr: 0x1636E0, symSize: 0x34 }
  - { offset: 0xC7F14E, size: 0x8, addend: 0x0, symName: __ZN6twitch4rtmp8RtmpImpl14trimSendQueuesEb, symObjAddr: 0x16B1A0, symBinAddr: 0x163C4C, symSize: 0x1D0 }
  - { offset: 0xC7F599, size: 0x8, addend: 0x0, symName: __ZN6twitch4rtmp8RtmpImpl5closeEv, symObjAddr: 0x16AC68, symBinAddr: 0x163714, symSize: 0x34 }
  - { offset: 0xC7F649, size: 0x8, addend: 0x0, symName: __ZN6twitch4rtmp8RtmpImpl13queueDurationENS0_5Rtmp28PriorityE, symObjAddr: 0x16AC9C, symBinAddr: 0x163748, symSize: 0xCC }
  - { offset: 0xC7F972, size: 0x8, addend: 0x0, symName: __ZN6twitch4rtmp8RtmpImpl17setMessageHandlerENSt3__18functionIFvjNS0_5Rtmp211MessageTypeEjPKhmEEE, symObjAddr: 0x16AD68, symBinAddr: 0x163814, symSize: 0x204 }
  - { offset: 0xC7FDED, size: 0x8, addend: 0x0, symName: __ZN6twitch4rtmp8RtmpImpl15setErrorHandlerENSt3__18functionIFvRKNS_5ErrorEbEEE, symObjAddr: 0x16AF6C, symBinAddr: 0x163A18, symSize: 0x204 }
  - { offset: 0xC800CC, size: 0x8, addend: 0x0, symName: __ZN6twitch4rtmp8RtmpImpl20getDataDropConstantsEv, symObjAddr: 0x16B170, symBinAddr: 0x163C1C, symSize: 0x30 }
  - { offset: 0xC8018B, size: 0x8, addend: 0x0, symName: __ZNSt3__15dequeINS_10shared_ptrIN6twitch4rtmp8RtmpImpl7MessageEEENS_9allocatorIS6_EEE9pop_frontEv, symObjAddr: 0x16B370, symBinAddr: 0x163E1C, symSize: 0x7C }
  - { offset: 0xC805F8, size: 0x8, addend: 0x0, symName: __ZN6twitch4rtmp8RtmpImpl15queueStartChunkEijNS0_5Rtmp211MessageTypeEjRKNSt3__16vectorIhNS4_9allocatorIhEEEE, symObjAddr: 0x16B4DC, symBinAddr: 0x163F30, symSize: 0x6BC }
  - { offset: 0xC82522, size: 0x8, addend: 0x0, symName: __ZN6twitch4rtmp8RtmpImpl20pushChunkBasicHeaderERNSt3__16vectorIhNS2_9allocatorIhEEEENS1_9ChunkTypeEi, symObjAddr: 0x16BB98, symBinAddr: 0x1645EC, symSize: 0x46C }
  - { offset: 0xC828B8, size: 0x8, addend: 0x0, symName: __ZN6twitch4rtmp8RtmpImpl20pushChunkBasicHeaderERNSt3__16vectorIhNS2_9allocatorIhEEEENS1_9ChunkTypeEi, symObjAddr: 0x16BB98, symBinAddr: 0x1645EC, symSize: 0x46C }
  - { offset: 0xC84307, size: 0x8, addend: 0x0, symName: __ZN6twitch4rtmpL8_pushu24ERNSt3__16vectorIhNS1_9allocatorIhEEEEj, symObjAddr: 0x16C004, symBinAddr: 0x164A58, symSize: 0x268 }
  - { offset: 0xC84551, size: 0x8, addend: 0x0, symName: '__ZNSt3__110__function6__funcIZN6twitch4rtmp8RtmpImpl13scheduleWriteEvE3$_0NS_9allocatorIS5_EEFbvEED1Ev', symObjAddr: 0x16C75C, symBinAddr: 0x1651B0, symSize: 0x4 }
  - { offset: 0xC8457C, size: 0x8, addend: 0x0, symName: '__ZNSt3__110__function6__funcIZN6twitch4rtmp8RtmpImpl13scheduleWriteEvE3$_0NS_9allocatorIS5_EEFbvEED0Ev', symObjAddr: 0x16C760, symBinAddr: 0x1651B4, symSize: 0x4 }
  - { offset: 0xC84790, size: 0x8, addend: 0x0, symName: '__ZNKSt3__110__function6__funcIZN6twitch4rtmp8RtmpImpl13scheduleWriteEvE3$_0NS_9allocatorIS5_EEFbvEE7__cloneEv', symObjAddr: 0x16C764, symBinAddr: 0x1651B8, symSize: 0x34 }
  - { offset: 0xC84AAB, size: 0x8, addend: 0x0, symName: '__ZNKSt3__110__function6__funcIZN6twitch4rtmp8RtmpImpl13scheduleWriteEvE3$_0NS_9allocatorIS5_EEFbvEE7__cloneEPNS0_6__baseIS8_EE', symObjAddr: 0x16C798, symBinAddr: 0x1651EC, symSize: 0x14 }
  - { offset: 0xC84AE4, size: 0x8, addend: 0x0, symName: '__ZNKSt3__110__function6__funcIZN6twitch4rtmp8RtmpImpl13scheduleWriteEvE3$_0NS_9allocatorIS5_EEFbvEE7__cloneEPNS0_6__baseIS8_EE', symObjAddr: 0x16C798, symBinAddr: 0x1651EC, symSize: 0x14 }
  - { offset: 0xC84B16, size: 0x8, addend: 0x0, symName: '__ZNKSt3__110__function6__funcIZN6twitch4rtmp8RtmpImpl13scheduleWriteEvE3$_0NS_9allocatorIS5_EEFbvEE7__cloneEPNS0_6__baseIS8_EE', symObjAddr: 0x16C798, symBinAddr: 0x1651EC, symSize: 0x14 }
  - { offset: 0xC84B48, size: 0x8, addend: 0x0, symName: '__ZNKSt3__110__function6__funcIZN6twitch4rtmp8RtmpImpl13scheduleWriteEvE3$_0NS_9allocatorIS5_EEFbvEE7__cloneEPNS0_6__baseIS8_EE', symObjAddr: 0x16C798, symBinAddr: 0x1651EC, symSize: 0x14 }
  - { offset: 0xC84B5E, size: 0x8, addend: 0x0, symName: '__ZNKSt3__110__function6__funcIZN6twitch4rtmp8RtmpImpl13scheduleWriteEvE3$_0NS_9allocatorIS5_EEFbvEE7__cloneEPNS0_6__baseIS8_EE', symObjAddr: 0x16C798, symBinAddr: 0x1651EC, symSize: 0x14 }
  - { offset: 0xC84B73, size: 0x8, addend: 0x0, symName: '__ZNKSt3__110__function6__funcIZN6twitch4rtmp8RtmpImpl13scheduleWriteEvE3$_0NS_9allocatorIS5_EEFbvEE7__cloneEPNS0_6__baseIS8_EE', symObjAddr: 0x16C798, symBinAddr: 0x1651EC, symSize: 0x14 }
  - { offset: 0xC84B88, size: 0x8, addend: 0x0, symName: '__ZNKSt3__110__function6__funcIZN6twitch4rtmp8RtmpImpl13scheduleWriteEvE3$_0NS_9allocatorIS5_EEFbvEE7__cloneEPNS0_6__baseIS8_EE', symObjAddr: 0x16C798, symBinAddr: 0x1651EC, symSize: 0x14 }
  - { offset: 0xC84B9D, size: 0x8, addend: 0x0, symName: '__ZNKSt3__110__function6__funcIZN6twitch4rtmp8RtmpImpl13scheduleWriteEvE3$_0NS_9allocatorIS5_EEFbvEE7__cloneEPNS0_6__baseIS8_EE', symObjAddr: 0x16C798, symBinAddr: 0x1651EC, symSize: 0x14 }
  - { offset: 0xC84BB5, size: 0x8, addend: 0x0, symName: '__ZNSt3__110__function6__funcIZN6twitch4rtmp8RtmpImpl13scheduleWriteEvE3$_0NS_9allocatorIS5_EEFbvEE7destroyEv', symObjAddr: 0x16C7AC, symBinAddr: 0x165200, symSize: 0x4 }
  - { offset: 0xC84C08, size: 0x8, addend: 0x0, symName: '__ZNSt3__110__function6__funcIZN6twitch4rtmp8RtmpImpl13scheduleWriteEvE3$_0NS_9allocatorIS5_EEFbvEE18destroy_deallocateEv', symObjAddr: 0x16C7B0, symBinAddr: 0x165204, symSize: 0x4 }
  - { offset: 0xC84C3F, size: 0x8, addend: 0x0, symName: '__ZNSt3__110__function6__funcIZN6twitch4rtmp8RtmpImpl13scheduleWriteEvE3$_0NS_9allocatorIS5_EEFbvEE18destroy_deallocateEv', symObjAddr: 0x16C7B0, symBinAddr: 0x165204, symSize: 0x4 }
  - { offset: 0xC84C64, size: 0x8, addend: 0x0, symName: '__ZNSt3__110__function6__funcIZN6twitch4rtmp8RtmpImpl13scheduleWriteEvE3$_0NS_9allocatorIS5_EEFbvEE18destroy_deallocateEv', symObjAddr: 0x16C7B0, symBinAddr: 0x165204, symSize: 0x4 }
  - { offset: 0xC84C93, size: 0x8, addend: 0x0, symName: '__ZNSt3__110__function6__funcIZN6twitch4rtmp8RtmpImpl13scheduleWriteEvE3$_0NS_9allocatorIS5_EEFbvEE18destroy_deallocateEv', symObjAddr: 0x16C7B0, symBinAddr: 0x165204, symSize: 0x4 }
  - { offset: 0xC84CBC, size: 0x8, addend: 0x0, symName: '__ZNSt3__110__function6__funcIZN6twitch4rtmp8RtmpImpl13scheduleWriteEvE3$_0NS_9allocatorIS5_EEFbvEE18destroy_deallocateEv', symObjAddr: 0x16C7B0, symBinAddr: 0x165204, symSize: 0x4 }
  - { offset: 0xC84ED8, size: 0x8, addend: 0x0, symName: '__ZNSt3__110__function6__funcIZN6twitch4rtmp8RtmpImpl13scheduleWriteEvE3$_0NS_9allocatorIS5_EEFbvEEclEv', symObjAddr: 0x16C7B4, symBinAddr: 0x165208, symSize: 0x3F0 }
  - { offset: 0xC8565C, size: 0x8, addend: 0x0, symName: __ZN6twitch4rtmp8RtmpImpl20writeRawOutputBufferEv, symObjAddr: 0x16CBA4, symBinAddr: 0x1655F8, symSize: 0x84 }
  - { offset: 0xC85E5D, size: 0x8, addend: 0x0, symName: '__ZNSt3__110__function6__funcIZN6twitch4rtmp8RtmpImpl22scheduleTrimSendQueuesEvE3$_0NS_9allocatorIS5_EEFvvEED1Ev', symObjAddr: 0x16D4A4, symBinAddr: 0x165EF8, symSize: 0x4 }
  - { offset: 0xC85E88, size: 0x8, addend: 0x0, symName: '__ZNSt3__110__function6__funcIZN6twitch4rtmp8RtmpImpl22scheduleTrimSendQueuesEvE3$_0NS_9allocatorIS5_EEFvvEED0Ev', symObjAddr: 0x16D4A8, symBinAddr: 0x165EFC, symSize: 0x4 }
  - { offset: 0xC8609C, size: 0x8, addend: 0x0, symName: '__ZNKSt3__110__function6__funcIZN6twitch4rtmp8RtmpImpl22scheduleTrimSendQueuesEvE3$_0NS_9allocatorIS5_EEFvvEE7__cloneEv', symObjAddr: 0x16D4AC, symBinAddr: 0x165F00, symSize: 0x34 }
  - { offset: 0xC863B7, size: 0x8, addend: 0x0, symName: '__ZNKSt3__110__function6__funcIZN6twitch4rtmp8RtmpImpl22scheduleTrimSendQueuesEvE3$_0NS_9allocatorIS5_EEFvvEE7__cloneEPNS0_6__baseIS8_EE', symObjAddr: 0x16D4E0, symBinAddr: 0x165F34, symSize: 0x14 }
  - { offset: 0xC863F0, size: 0x8, addend: 0x0, symName: '__ZNKSt3__110__function6__funcIZN6twitch4rtmp8RtmpImpl22scheduleTrimSendQueuesEvE3$_0NS_9allocatorIS5_EEFvvEE7__cloneEPNS0_6__baseIS8_EE', symObjAddr: 0x16D4E0, symBinAddr: 0x165F34, symSize: 0x14 }
  - { offset: 0xC86422, size: 0x8, addend: 0x0, symName: '__ZNKSt3__110__function6__funcIZN6twitch4rtmp8RtmpImpl22scheduleTrimSendQueuesEvE3$_0NS_9allocatorIS5_EEFvvEE7__cloneEPNS0_6__baseIS8_EE', symObjAddr: 0x16D4E0, symBinAddr: 0x165F34, symSize: 0x14 }
  - { offset: 0xC86454, size: 0x8, addend: 0x0, symName: '__ZNKSt3__110__function6__funcIZN6twitch4rtmp8RtmpImpl22scheduleTrimSendQueuesEvE3$_0NS_9allocatorIS5_EEFvvEE7__cloneEPNS0_6__baseIS8_EE', symObjAddr: 0x16D4E0, symBinAddr: 0x165F34, symSize: 0x14 }
  - { offset: 0xC8646A, size: 0x8, addend: 0x0, symName: '__ZNKSt3__110__function6__funcIZN6twitch4rtmp8RtmpImpl22scheduleTrimSendQueuesEvE3$_0NS_9allocatorIS5_EEFvvEE7__cloneEPNS0_6__baseIS8_EE', symObjAddr: 0x16D4E0, symBinAddr: 0x165F34, symSize: 0x14 }
  - { offset: 0xC8647F, size: 0x8, addend: 0x0, symName: '__ZNKSt3__110__function6__funcIZN6twitch4rtmp8RtmpImpl22scheduleTrimSendQueuesEvE3$_0NS_9allocatorIS5_EEFvvEE7__cloneEPNS0_6__baseIS8_EE', symObjAddr: 0x16D4E0, symBinAddr: 0x165F34, symSize: 0x14 }
  - { offset: 0xC86494, size: 0x8, addend: 0x0, symName: '__ZNKSt3__110__function6__funcIZN6twitch4rtmp8RtmpImpl22scheduleTrimSendQueuesEvE3$_0NS_9allocatorIS5_EEFvvEE7__cloneEPNS0_6__baseIS8_EE', symObjAddr: 0x16D4E0, symBinAddr: 0x165F34, symSize: 0x14 }
  - { offset: 0xC864A9, size: 0x8, addend: 0x0, symName: '__ZNKSt3__110__function6__funcIZN6twitch4rtmp8RtmpImpl22scheduleTrimSendQueuesEvE3$_0NS_9allocatorIS5_EEFvvEE7__cloneEPNS0_6__baseIS8_EE', symObjAddr: 0x16D4E0, symBinAddr: 0x165F34, symSize: 0x14 }
  - { offset: 0xC864C1, size: 0x8, addend: 0x0, symName: '__ZNSt3__110__function6__funcIZN6twitch4rtmp8RtmpImpl22scheduleTrimSendQueuesEvE3$_0NS_9allocatorIS5_EEFvvEE7destroyEv', symObjAddr: 0x16D4F4, symBinAddr: 0x165F48, symSize: 0x4 }
  - { offset: 0xC86514, size: 0x8, addend: 0x0, symName: '__ZNSt3__110__function6__funcIZN6twitch4rtmp8RtmpImpl22scheduleTrimSendQueuesEvE3$_0NS_9allocatorIS5_EEFvvEE18destroy_deallocateEv', symObjAddr: 0x16D4F8, symBinAddr: 0x165F4C, symSize: 0x4 }
  - { offset: 0xC8654B, size: 0x8, addend: 0x0, symName: '__ZNSt3__110__function6__funcIZN6twitch4rtmp8RtmpImpl22scheduleTrimSendQueuesEvE3$_0NS_9allocatorIS5_EEFvvEE18destroy_deallocateEv', symObjAddr: 0x16D4F8, symBinAddr: 0x165F4C, symSize: 0x4 }
  - { offset: 0xC86570, size: 0x8, addend: 0x0, symName: '__ZNSt3__110__function6__funcIZN6twitch4rtmp8RtmpImpl22scheduleTrimSendQueuesEvE3$_0NS_9allocatorIS5_EEFvvEE18destroy_deallocateEv', symObjAddr: 0x16D4F8, symBinAddr: 0x165F4C, symSize: 0x4 }
  - { offset: 0xC8659F, size: 0x8, addend: 0x0, symName: '__ZNSt3__110__function6__funcIZN6twitch4rtmp8RtmpImpl22scheduleTrimSendQueuesEvE3$_0NS_9allocatorIS5_EEFvvEE18destroy_deallocateEv', symObjAddr: 0x16D4F8, symBinAddr: 0x165F4C, symSize: 0x4 }
  - { offset: 0xC865C8, size: 0x8, addend: 0x0, symName: '__ZNSt3__110__function6__funcIZN6twitch4rtmp8RtmpImpl22scheduleTrimSendQueuesEvE3$_0NS_9allocatorIS5_EEFvvEE18destroy_deallocateEv', symObjAddr: 0x16D4F8, symBinAddr: 0x165F4C, symSize: 0x4 }
  - { offset: 0xC86650, size: 0x8, addend: 0x0, symName: '__ZNSt3__110__function6__funcIZN6twitch4rtmp8RtmpImpl22scheduleTrimSendQueuesEvE3$_0NS_9allocatorIS5_EEFvvEEclEv', symObjAddr: 0x16D4FC, symBinAddr: 0x165F50, symSize: 0x20 }
  - { offset: 0xC8671F, size: 0x8, addend: 0x0, symName: __ZNSt3__120__shared_ptr_emplaceIN6twitch4rtmp8RtmpImpl7MessageENS_9allocatorIS4_EEED1Ev, symObjAddr: 0x16D550, symBinAddr: 0x165F70, symSize: 0x10 }
  - { offset: 0xC86743, size: 0x8, addend: 0x0, symName: __ZNSt3__120__shared_ptr_emplaceIN6twitch4rtmp8RtmpImpl7MessageENS_9allocatorIS4_EEED1Ev, symObjAddr: 0x16D550, symBinAddr: 0x165F70, symSize: 0x10 }
  - { offset: 0xC8677A, size: 0x8, addend: 0x0, symName: __ZNSt3__120__shared_ptr_emplaceIN6twitch4rtmp8RtmpImpl7MessageENS_9allocatorIS4_EEED0Ev, symObjAddr: 0x16D560, symBinAddr: 0x165F80, symSize: 0x20 }
  - { offset: 0xC868B5, size: 0x8, addend: 0x0, symName: __ZNSt3__120__shared_ptr_emplaceIN6twitch4rtmp8RtmpImpl7MessageENS_9allocatorIS4_EEE16__on_zero_sharedEv, symObjAddr: 0x16D580, symBinAddr: 0x165FA0, symSize: 0x6C }
  - { offset: 0xC86BB5, size: 0x8, addend: 0x0, symName: __ZNSt3__120__shared_ptr_emplaceIN6twitch4rtmp8RtmpImpl7MessageENS_9allocatorIS4_EEE21__on_zero_shared_weakEv, symObjAddr: 0x16D5EC, symBinAddr: 0x16600C, symSize: 0x4 }
  - { offset: 0xC86BEA, size: 0x8, addend: 0x0, symName: __ZNSt3__120__shared_ptr_emplaceIN6twitch4rtmp8RtmpImpl7MessageENS_9allocatorIS4_EEE21__on_zero_shared_weakEv, symObjAddr: 0x16D5EC, symBinAddr: 0x16600C, symSize: 0x4 }
  - { offset: 0xC86C0F, size: 0x8, addend: 0x0, symName: __ZNSt3__120__shared_ptr_emplaceIN6twitch4rtmp8RtmpImpl7MessageENS_9allocatorIS4_EEE21__on_zero_shared_weakEv, symObjAddr: 0x16D5EC, symBinAddr: 0x16600C, symSize: 0x4 }
  - { offset: 0xC86C34, size: 0x8, addend: 0x0, symName: __ZNSt3__120__shared_ptr_emplaceIN6twitch4rtmp8RtmpImpl7MessageENS_9allocatorIS4_EEE21__on_zero_shared_weakEv, symObjAddr: 0x16D5EC, symBinAddr: 0x16600C, symSize: 0x4 }
  - { offset: 0xC86C64, size: 0x8, addend: 0x0, symName: __ZNSt3__120__shared_ptr_emplaceIN6twitch4rtmp8RtmpImpl7MessageENS_9allocatorIS4_EEE21__on_zero_shared_weakEv, symObjAddr: 0x16D5EC, symBinAddr: 0x16600C, symSize: 0x4 }
  - { offset: 0xC86C8E, size: 0x8, addend: 0x0, symName: __ZNSt3__120__shared_ptr_emplaceIN6twitch4rtmp8RtmpImpl7MessageENS_9allocatorIS4_EEE21__on_zero_shared_weakEv, symObjAddr: 0x16D5EC, symBinAddr: 0x16600C, symSize: 0x4 }
  - { offset: 0xC86CD7, size: 0x8, addend: 0x0, symName: __ZNSt3__120__shared_ptr_emplaceIN6twitch4rtmp18IssuerWriteReceiptENS_9allocatorIS3_EEED1Ev, symObjAddr: 0x16D5F0, symBinAddr: 0x166010, symSize: 0x10 }
  - { offset: 0xC86CFB, size: 0x8, addend: 0x0, symName: __ZNSt3__120__shared_ptr_emplaceIN6twitch4rtmp18IssuerWriteReceiptENS_9allocatorIS3_EEED1Ev, symObjAddr: 0x16D5F0, symBinAddr: 0x166010, symSize: 0x10 }
  - { offset: 0xC86D32, size: 0x8, addend: 0x0, symName: __ZNSt3__120__shared_ptr_emplaceIN6twitch4rtmp18IssuerWriteReceiptENS_9allocatorIS3_EEED0Ev, symObjAddr: 0x16D600, symBinAddr: 0x166020, symSize: 0x20 }
  - { offset: 0xC86EF1, size: 0x8, addend: 0x0, symName: __ZNSt3__120__shared_ptr_emplaceIN6twitch4rtmp18IssuerWriteReceiptENS_9allocatorIS3_EEE16__on_zero_sharedEv, symObjAddr: 0x16D620, symBinAddr: 0x166040, symSize: 0x50 }
  - { offset: 0xC870DA, size: 0x8, addend: 0x0, symName: __ZNSt3__120__shared_ptr_emplaceIN6twitch4rtmp18IssuerWriteReceiptENS_9allocatorIS3_EEE21__on_zero_shared_weakEv, symObjAddr: 0x16D670, symBinAddr: 0x166090, symSize: 0x4 }
  - { offset: 0xC8710F, size: 0x8, addend: 0x0, symName: __ZNSt3__120__shared_ptr_emplaceIN6twitch4rtmp18IssuerWriteReceiptENS_9allocatorIS3_EEE21__on_zero_shared_weakEv, symObjAddr: 0x16D670, symBinAddr: 0x166090, symSize: 0x4 }
  - { offset: 0xC87134, size: 0x8, addend: 0x0, symName: __ZNSt3__120__shared_ptr_emplaceIN6twitch4rtmp18IssuerWriteReceiptENS_9allocatorIS3_EEE21__on_zero_shared_weakEv, symObjAddr: 0x16D670, symBinAddr: 0x166090, symSize: 0x4 }
  - { offset: 0xC87159, size: 0x8, addend: 0x0, symName: __ZNSt3__120__shared_ptr_emplaceIN6twitch4rtmp18IssuerWriteReceiptENS_9allocatorIS3_EEE21__on_zero_shared_weakEv, symObjAddr: 0x16D670, symBinAddr: 0x166090, symSize: 0x4 }
  - { offset: 0xC8718A, size: 0x8, addend: 0x0, symName: __ZNSt3__120__shared_ptr_emplaceIN6twitch4rtmp18IssuerWriteReceiptENS_9allocatorIS3_EEE21__on_zero_shared_weakEv, symObjAddr: 0x16D670, symBinAddr: 0x166090, symSize: 0x4 }
  - { offset: 0xC871B5, size: 0x8, addend: 0x0, symName: __ZNSt3__120__shared_ptr_emplaceIN6twitch4rtmp18IssuerWriteReceiptENS_9allocatorIS3_EEE21__on_zero_shared_weakEv, symObjAddr: 0x16D670, symBinAddr: 0x166090, symSize: 0x4 }
  - { offset: 0xC871E2, size: 0x8, addend: 0x0, symName: '__ZNSt3__110__function6__funcIZN6twitch4rtmp8RtmpImpl5startEvE3$_0NS_9allocatorIS5_EEFvPKhmEED1Ev', symObjAddr: 0x16D674, symBinAddr: 0x166094, symSize: 0x4 }
  - { offset: 0xC8720D, size: 0x8, addend: 0x0, symName: '__ZNSt3__110__function6__funcIZN6twitch4rtmp8RtmpImpl5startEvE3$_0NS_9allocatorIS5_EEFvPKhmEED0Ev', symObjAddr: 0x16D678, symBinAddr: 0x166098, symSize: 0x4 }
  - { offset: 0xC87421, size: 0x8, addend: 0x0, symName: '__ZNKSt3__110__function6__funcIZN6twitch4rtmp8RtmpImpl5startEvE3$_0NS_9allocatorIS5_EEFvPKhmEE7__cloneEv', symObjAddr: 0x16D67C, symBinAddr: 0x16609C, symSize: 0x34 }
  - { offset: 0xC8773C, size: 0x8, addend: 0x0, symName: '__ZNKSt3__110__function6__funcIZN6twitch4rtmp8RtmpImpl5startEvE3$_0NS_9allocatorIS5_EEFvPKhmEE7__cloneEPNS0_6__baseISA_EE', symObjAddr: 0x16D6B0, symBinAddr: 0x1660D0, symSize: 0x14 }
  - { offset: 0xC87775, size: 0x8, addend: 0x0, symName: '__ZNKSt3__110__function6__funcIZN6twitch4rtmp8RtmpImpl5startEvE3$_0NS_9allocatorIS5_EEFvPKhmEE7__cloneEPNS0_6__baseISA_EE', symObjAddr: 0x16D6B0, symBinAddr: 0x1660D0, symSize: 0x14 }
  - { offset: 0xC877A7, size: 0x8, addend: 0x0, symName: '__ZNKSt3__110__function6__funcIZN6twitch4rtmp8RtmpImpl5startEvE3$_0NS_9allocatorIS5_EEFvPKhmEE7__cloneEPNS0_6__baseISA_EE', symObjAddr: 0x16D6B0, symBinAddr: 0x1660D0, symSize: 0x14 }
  - { offset: 0xC877D9, size: 0x8, addend: 0x0, symName: '__ZNKSt3__110__function6__funcIZN6twitch4rtmp8RtmpImpl5startEvE3$_0NS_9allocatorIS5_EEFvPKhmEE7__cloneEPNS0_6__baseISA_EE', symObjAddr: 0x16D6B0, symBinAddr: 0x1660D0, symSize: 0x14 }
  - { offset: 0xC877EF, size: 0x8, addend: 0x0, symName: '__ZNKSt3__110__function6__funcIZN6twitch4rtmp8RtmpImpl5startEvE3$_0NS_9allocatorIS5_EEFvPKhmEE7__cloneEPNS0_6__baseISA_EE', symObjAddr: 0x16D6B0, symBinAddr: 0x1660D0, symSize: 0x14 }
  - { offset: 0xC87804, size: 0x8, addend: 0x0, symName: '__ZNKSt3__110__function6__funcIZN6twitch4rtmp8RtmpImpl5startEvE3$_0NS_9allocatorIS5_EEFvPKhmEE7__cloneEPNS0_6__baseISA_EE', symObjAddr: 0x16D6B0, symBinAddr: 0x1660D0, symSize: 0x14 }
  - { offset: 0xC87819, size: 0x8, addend: 0x0, symName: '__ZNKSt3__110__function6__funcIZN6twitch4rtmp8RtmpImpl5startEvE3$_0NS_9allocatorIS5_EEFvPKhmEE7__cloneEPNS0_6__baseISA_EE', symObjAddr: 0x16D6B0, symBinAddr: 0x1660D0, symSize: 0x14 }
  - { offset: 0xC8782E, size: 0x8, addend: 0x0, symName: '__ZNKSt3__110__function6__funcIZN6twitch4rtmp8RtmpImpl5startEvE3$_0NS_9allocatorIS5_EEFvPKhmEE7__cloneEPNS0_6__baseISA_EE', symObjAddr: 0x16D6B0, symBinAddr: 0x1660D0, symSize: 0x14 }
  - { offset: 0xC87846, size: 0x8, addend: 0x0, symName: '__ZNSt3__110__function6__funcIZN6twitch4rtmp8RtmpImpl5startEvE3$_0NS_9allocatorIS5_EEFvPKhmEE7destroyEv', symObjAddr: 0x16D6C4, symBinAddr: 0x1660E4, symSize: 0x4 }
  - { offset: 0xC87899, size: 0x8, addend: 0x0, symName: '__ZNSt3__110__function6__funcIZN6twitch4rtmp8RtmpImpl5startEvE3$_0NS_9allocatorIS5_EEFvPKhmEE18destroy_deallocateEv', symObjAddr: 0x16D6C8, symBinAddr: 0x1660E8, symSize: 0x4 }
  - { offset: 0xC878D0, size: 0x8, addend: 0x0, symName: '__ZNSt3__110__function6__funcIZN6twitch4rtmp8RtmpImpl5startEvE3$_0NS_9allocatorIS5_EEFvPKhmEE18destroy_deallocateEv', symObjAddr: 0x16D6C8, symBinAddr: 0x1660E8, symSize: 0x4 }
  - { offset: 0xC878F5, size: 0x8, addend: 0x0, symName: '__ZNSt3__110__function6__funcIZN6twitch4rtmp8RtmpImpl5startEvE3$_0NS_9allocatorIS5_EEFvPKhmEE18destroy_deallocateEv', symObjAddr: 0x16D6C8, symBinAddr: 0x1660E8, symSize: 0x4 }
  - { offset: 0xC87924, size: 0x8, addend: 0x0, symName: '__ZNSt3__110__function6__funcIZN6twitch4rtmp8RtmpImpl5startEvE3$_0NS_9allocatorIS5_EEFvPKhmEE18destroy_deallocateEv', symObjAddr: 0x16D6C8, symBinAddr: 0x1660E8, symSize: 0x4 }
  - { offset: 0xC8794D, size: 0x8, addend: 0x0, symName: '__ZNSt3__110__function6__funcIZN6twitch4rtmp8RtmpImpl5startEvE3$_0NS_9allocatorIS5_EEFvPKhmEE18destroy_deallocateEv', symObjAddr: 0x16D6C8, symBinAddr: 0x1660E8, symSize: 0x4 }
  - { offset: 0xC87A29, size: 0x8, addend: 0x0, symName: '__ZNSt3__110__function6__funcIZN6twitch4rtmp8RtmpImpl5startEvE3$_0NS_9allocatorIS5_EEFvPKhmEEclEOS9_Om', symObjAddr: 0x16D6CC, symBinAddr: 0x1660EC, symSize: 0x18 }
  - { offset: 0xC87A77, size: 0x8, addend: 0x0, symName: '__ZNSt3__110__function6__funcIZN6twitch4rtmp8RtmpImpl5startEvE3$_0NS_9allocatorIS5_EEFvPKhmEEclEOS9_Om', symObjAddr: 0x16D6CC, symBinAddr: 0x1660EC, symSize: 0x18 }
  - { offset: 0xC87AAB, size: 0x8, addend: 0x0, symName: '__ZNSt3__110__function6__funcIZN6twitch4rtmp8RtmpImpl5startEvE3$_0NS_9allocatorIS5_EEFvPKhmEEclEOS9_Om', symObjAddr: 0x16D6CC, symBinAddr: 0x1660EC, symSize: 0x18 }
  - { offset: 0xC87ADE, size: 0x8, addend: 0x0, symName: '__ZNSt3__110__function6__funcIZN6twitch4rtmp8RtmpImpl5startEvE3$_0NS_9allocatorIS5_EEFvPKhmEEclEOS9_Om', symObjAddr: 0x16D6CC, symBinAddr: 0x1660EC, symSize: 0x18 }
  - { offset: 0xC87E63, size: 0x8, addend: 0x0, symName: __ZNSt3__16__treeINS_12__value_typeIjN6twitch4rtmp8RtmpImpl20RecvChunkStreamStateEEENS_19__map_value_compareIjS6_NS_4lessIjEELb1EEENS_9allocatorIS6_EEE7destroyEPNS_11__tree_nodeIS6_PvEE, symObjAddr: 0x16D9F8, symBinAddr: 0x166418, symSize: 0x48 }
  - { offset: 0x3E0AED, size: 0x8, addend: 0x0, symName: '-[IVSTransmissionStatistics initWithMeasuredBitrate:recommendedBitrate:rtt:broadcastQuality:networkHealth:]', symObjAddr: 0x5D2B4, symBinAddr: 0x5EA40, symSize: 0x114 }
  - { offset: 0x3E0C32, size: 0x8, addend: 0x0, symName: '-[IVSTransmissionStatistics initWithMeasuredBitrate:recommendedBitrate:rtt:broadcastQuality:networkHealth:]', symObjAddr: 0x5D2B4, symBinAddr: 0x5EA40, symSize: 0x114 }
  - { offset: 0x3E0CB9, size: 0x8, addend: 0x0, symName: '-[IVSTransmissionStatistics description]', symObjAddr: 0x5D3C8, symBinAddr: 0x5EB54, symSize: 0xCC }
  - { offset: 0x3E0CF0, size: 0x8, addend: 0x0, symName: '-[IVSTransmissionStatistics broadcastQualityName]', symObjAddr: 0x5D494, symBinAddr: 0x5EC20, symSize: 0x2C }
  - { offset: 0x3E0D27, size: 0x8, addend: 0x0, symName: '-[IVSTransmissionStatistics networkHealthName]', symObjAddr: 0x5D4C0, symBinAddr: 0x5EC4C, symSize: 0x2C }
  - { offset: 0x3E0D5E, size: 0x8, addend: 0x0, symName: '-[IVSTransmissionStatistics measuredBitrate]', symObjAddr: 0x5D4EC, symBinAddr: 0x5EC78, symSize: 0x8 }
  - { offset: 0x3E0D93, size: 0x8, addend: 0x0, symName: '-[IVSTransmissionStatistics recommendedBitrate]', symObjAddr: 0x5D4F4, symBinAddr: 0x5EC80, symSize: 0x8 }
  - { offset: 0x3E0DC8, size: 0x8, addend: 0x0, symName: '-[IVSTransmissionStatistics rtt]', symObjAddr: 0x5D4FC, symBinAddr: 0x5EC88, symSize: 0x8 }
  - { offset: 0x3E0DFD, size: 0x8, addend: 0x0, symName: '-[IVSTransmissionStatistics broadcastQuality]', symObjAddr: 0x5D504, symBinAddr: 0x5EC90, symSize: 0x8 }
  - { offset: 0x3E0E34, size: 0x8, addend: 0x0, symName: '-[IVSTransmissionStatistics networkHealth]', symObjAddr: 0x5D50C, symBinAddr: 0x5EC98, symSize: 0x8 }
  - { offset: 0xA420DF, size: 0x8, addend: 0x0, symName: _policy_data_free, symObjAddr: 0x1128F0, symBinAddr: 0x10DBE0, symSize: 0x154 }
  - { offset: 0xA4265A, size: 0x8, addend: 0x0, symName: _policy_data_free, symObjAddr: 0x1128F0, symBinAddr: 0x10DBE0, symSize: 0x154 }
  - { offset: 0xA42AEA, size: 0x8, addend: 0x0, symName: _policy_data_new, symObjAddr: 0x112A44, symBinAddr: 0x10DD34, symSize: 0xF0 }
  - { offset: 0x2F0613, size: 0x8, addend: 0x0, symName: '-[IVSCodecDiscoveryResult initWithName:error:]', symObjAddr: 0x3DEFC, symBinAddr: 0x40594, symSize: 0xA4 }
  - { offset: 0x2FD538, size: 0x8, addend: 0x0, symName: '-[IVSCodecDiscovery gatherAvailableCodecsForCustomerID:videoConfiguration:resultsCallback:]', symObjAddr: 0x3E4E4, symBinAddr: 0x40B7C, symSize: 0x9D0 }
  - { offset: 0x3000CC, size: 0x8, addend: 0x0, symName: '-[IVSCodecDiscoveryResult initWithName:error:]', symObjAddr: 0x3DEFC, symBinAddr: 0x40594, symSize: 0xA4 }
  - { offset: 0x300123, size: 0x8, addend: 0x0, symName: '-[IVSCodecDiscoveryResult initWithConfig:]', symObjAddr: 0x3DFA0, symBinAddr: 0x40638, symSize: 0xBC }
  - { offset: 0x30016A, size: 0x8, addend: 0x0, symName: '-[IVSCodecDiscoveryResult videoCodecName]', symObjAddr: 0x3E05C, symBinAddr: 0x406F4, symSize: 0x8 }
  - { offset: 0x3001A2, size: 0x8, addend: 0x0, symName: '-[IVSCodecDiscoveryResult configuration]', symObjAddr: 0x3E064, symBinAddr: 0x406FC, symSize: 0x8 }
  - { offset: 0x3001DA, size: 0x8, addend: 0x0, symName: '-[IVSCodecDiscoveryResult error]', symObjAddr: 0x3E06C, symBinAddr: 0x40704, symSize: 0x8 }
  - { offset: 0x300212, size: 0x8, addend: 0x0, symName: '-[IVSCodecDiscoveryResult .cxx_destruct]', symObjAddr: 0x3E074, symBinAddr: 0x4070C, symSize: 0x3C }
  - { offset: 0x300930, size: 0x8, addend: 0x0, symName: '-[IVSCodecDiscovery init]', symObjAddr: 0x3E0B0, symBinAddr: 0x40748, symSize: 0x434 }
  - { offset: 0x3022CE, size: 0x8, addend: 0x0, symName: '-[IVSCodecDiscovery .cxx_destruct]', symObjAddr: 0x3EEB4, symBinAddr: 0x4154C, symSize: 0x60 }
  - { offset: 0x3023D5, size: 0x8, addend: 0x0, symName: '-[IVSCodecDiscovery .cxx_construct]', symObjAddr: 0x3EF14, symBinAddr: 0x415AC, symSize: 0x28 }
  - { offset: 0x30245E, size: 0x8, addend: 0x0, symName: '___91-[IVSCodecDiscovery gatherAvailableCodecsForCustomerID:videoConfiguration:resultsCallback:]_block_invoke', symObjAddr: 0x3EF3C, symBinAddr: 0x415D4, symSize: 0x38 }
  - { offset: 0x30259B, size: 0x8, addend: 0x0, symName: '__ZNSt3__110__function6__funcIZ91-[IVSCodecDiscovery gatherAvailableCodecsForCustomerID:videoConfiguration:resultsCallback:]E3$_0NS_9allocatorIS2_EEFvRKNS_6vectorIN6twitch14CodecDiscovery6ResultENS3_IS8_EEEEEED1Ev', symObjAddr: 0x3EF74, symBinAddr: 0x4160C, symSize: 0x30 }
  - { offset: 0x3026E0, size: 0x8, addend: 0x0, symName: '__ZNSt3__110__function6__funcIZ91-[IVSCodecDiscovery gatherAvailableCodecsForCustomerID:videoConfiguration:resultsCallback:]E3$_0NS_9allocatorIS2_EEFvRKNS_6vectorIN6twitch14CodecDiscovery6ResultENS3_IS8_EEEEEED0Ev', symObjAddr: 0x3EFA4, symBinAddr: 0x4163C, symSize: 0x30 }
  - { offset: 0x302A6F, size: 0x8, addend: 0x0, symName: '__ZNKSt3__110__function6__funcIZ91-[IVSCodecDiscovery gatherAvailableCodecsForCustomerID:videoConfiguration:resultsCallback:]E3$_0NS_9allocatorIS2_EEFvRKNS_6vectorIN6twitch14CodecDiscovery6ResultENS3_IS8_EEEEEE7__cloneEv', symObjAddr: 0x3EFD4, symBinAddr: 0x4166C, symSize: 0x50 }
  - { offset: 0x302E2B, size: 0x8, addend: 0x0, symName: '__ZNKSt3__110__function6__funcIZ91-[IVSCodecDiscovery gatherAvailableCodecsForCustomerID:videoConfiguration:resultsCallback:]E3$_0NS_9allocatorIS2_EEFvRKNS_6vectorIN6twitch14CodecDiscovery6ResultENS3_IS8_EEEEEE7__cloneEPNS0_6__baseISD_EE', symObjAddr: 0x3F024, symBinAddr: 0x416BC, symSize: 0x44 }
  - { offset: 0x303039, size: 0x8, addend: 0x0, symName: '__ZNSt3__110__function6__funcIZ91-[IVSCodecDiscovery gatherAvailableCodecsForCustomerID:videoConfiguration:resultsCallback:]E3$_0NS_9allocatorIS2_EEFvRKNS_6vectorIN6twitch14CodecDiscovery6ResultENS3_IS8_EEEEEE7destroyEv', symObjAddr: 0x3F068, symBinAddr: 0x41700, symSize: 0x28 }
  - { offset: 0x303158, size: 0x8, addend: 0x0, symName: '__ZNSt3__110__function6__funcIZ91-[IVSCodecDiscovery gatherAvailableCodecsForCustomerID:videoConfiguration:resultsCallback:]E3$_0NS_9allocatorIS2_EEFvRKNS_6vectorIN6twitch14CodecDiscovery6ResultENS3_IS8_EEEEEE18destroy_deallocateEv', symObjAddr: 0x3F090, symBinAddr: 0x41728, symSize: 0x30 }
  - { offset: 0x303479, size: 0x8, addend: 0x0, symName: '__ZNSt3__110__function6__funcIZ91-[IVSCodecDiscovery gatherAvailableCodecsForCustomerID:videoConfiguration:resultsCallback:]E3$_0NS_9allocatorIS2_EEFvRKNS_6vectorIN6twitch14CodecDiscovery6ResultENS3_IS8_EEEEEEclESC_', symObjAddr: 0x3F0C0, symBinAddr: 0x41758, symSize: 0x1AC }
  - { offset: 0x30369E, size: 0x8, addend: 0x0, symName: '____ZZ91-[IVSCodecDiscovery gatherAvailableCodecsForCustomerID:videoConfiguration:resultsCallback:]ENK3$_0clERKNSt3__16vectorIN6twitch14CodecDiscovery6ResultENS0_9allocatorIS4_EEEE_block_invoke', symObjAddr: 0x3F26C, symBinAddr: 0x41904, symSize: 0x38 }
  - { offset: 0x303712, size: 0x8, addend: 0x0, symName: __ZNSt3__120__shared_ptr_emplaceIN6twitch14CodecDiscoveryENS_9allocatorIS2_EEED1Ev, symObjAddr: 0x3F2A4, symBinAddr: 0x4193C, symSize: 0x10 }
  - { offset: 0x303736, size: 0x8, addend: 0x0, symName: __ZNSt3__120__shared_ptr_emplaceIN6twitch14CodecDiscoveryENS_9allocatorIS2_EEED1Ev, symObjAddr: 0x3F2A4, symBinAddr: 0x4193C, symSize: 0x10 }
  - { offset: 0x30376F, size: 0x8, addend: 0x0, symName: __ZNSt3__120__shared_ptr_emplaceIN6twitch14CodecDiscoveryENS_9allocatorIS2_EEED0Ev, symObjAddr: 0x3F2B4, symBinAddr: 0x4194C, symSize: 0x20 }
  - { offset: 0x303844, size: 0x8, addend: 0x0, symName: __ZNSt3__120__shared_ptr_emplaceIN6twitch14CodecDiscoveryENS_9allocatorIS2_EEE16__on_zero_sharedEv, symObjAddr: 0x3F2D4, symBinAddr: 0x4196C, symSize: 0xC }
  - { offset: 0x30386E, size: 0x8, addend: 0x0, symName: __ZNSt3__120__shared_ptr_emplaceIN6twitch14CodecDiscoveryENS_9allocatorIS2_EEE16__on_zero_sharedEv, symObjAddr: 0x3F2D4, symBinAddr: 0x4196C, symSize: 0xC }
  - { offset: 0x30388F, size: 0x8, addend: 0x0, symName: __ZNSt3__120__shared_ptr_emplaceIN6twitch14CodecDiscoveryENS_9allocatorIS2_EEE16__on_zero_sharedEv, symObjAddr: 0x3F2D4, symBinAddr: 0x4196C, symSize: 0xC }
  - { offset: 0x3038B0, size: 0x8, addend: 0x0, symName: __ZNSt3__120__shared_ptr_emplaceIN6twitch14CodecDiscoveryENS_9allocatorIS2_EEE16__on_zero_sharedEv, symObjAddr: 0x3F2D4, symBinAddr: 0x4196C, symSize: 0xC }
  - { offset: 0x30393F, size: 0x8, addend: 0x0, symName: __ZNSt3__120__shared_ptr_emplaceIN6twitch14CodecDiscoveryENS_9allocatorIS2_EEE21__on_zero_shared_weakEv, symObjAddr: 0x3F2E0, symBinAddr: 0x41978, symSize: 0x4 }
  - { offset: 0x303975, size: 0x8, addend: 0x0, symName: __ZNSt3__120__shared_ptr_emplaceIN6twitch14CodecDiscoveryENS_9allocatorIS2_EEE21__on_zero_shared_weakEv, symObjAddr: 0x3F2E0, symBinAddr: 0x41978, symSize: 0x4 }
  - { offset: 0x30399B, size: 0x8, addend: 0x0, symName: __ZNSt3__120__shared_ptr_emplaceIN6twitch14CodecDiscoveryENS_9allocatorIS2_EEE21__on_zero_shared_weakEv, symObjAddr: 0x3F2E0, symBinAddr: 0x41978, symSize: 0x4 }
  - { offset: 0x3039C1, size: 0x8, addend: 0x0, symName: __ZNSt3__120__shared_ptr_emplaceIN6twitch14CodecDiscoveryENS_9allocatorIS2_EEE21__on_zero_shared_weakEv, symObjAddr: 0x3F2E0, symBinAddr: 0x41978, symSize: 0x4 }
  - { offset: 0x3039F3, size: 0x8, addend: 0x0, symName: __ZNSt3__120__shared_ptr_emplaceIN6twitch14CodecDiscoveryENS_9allocatorIS2_EEE21__on_zero_shared_weakEv, symObjAddr: 0x3F2E0, symBinAddr: 0x41978, symSize: 0x4 }
  - { offset: 0x303A1F, size: 0x8, addend: 0x0, symName: __ZNSt3__120__shared_ptr_emplaceIN6twitch14CodecDiscoveryENS_9allocatorIS2_EEE21__on_zero_shared_weakEv, symObjAddr: 0x3F2E0, symBinAddr: 0x41978, symSize: 0x4 }
  - { offset: 0xBE7A85, size: 0x8, addend: 0x0, symName: __ZN9resampler19SincResamplerStereoD1Ev, symObjAddr: 0x15AC30, symBinAddr: 0x154560, symSize: 0x4 }
  - { offset: 0xBE890F, size: 0x8, addend: 0x0, symName: __ZN9resampler19SincResamplerStereoD1Ev, symObjAddr: 0x15AC30, symBinAddr: 0x154560, symSize: 0x4 }
  - { offset: 0xBE8933, size: 0x8, addend: 0x0, symName: __ZN9resampler19SincResamplerStereoD1Ev, symObjAddr: 0x15AC30, symBinAddr: 0x154560, symSize: 0x4 }
  - { offset: 0xBE8951, size: 0x8, addend: 0x0, symName: __ZN9resampler19SincResamplerStereoD1Ev, symObjAddr: 0x15AC30, symBinAddr: 0x154560, symSize: 0x4 }
  - { offset: 0xBE8978, size: 0x8, addend: 0x0, symName: __ZN9resampler19SincResamplerStereoD0Ev, symObjAddr: 0x15AC34, symBinAddr: 0x154564, symSize: 0x14 }
  - { offset: 0xBE8A10, size: 0x8, addend: 0x0, symName: __ZN9resampler19SincResamplerStereo10writeFrameEPKf, symObjAddr: 0x15AC48, symBinAddr: 0x154578, symSize: 0x4C }
  - { offset: 0xBE8AFA, size: 0x8, addend: 0x0, symName: __ZN9resampler19SincResamplerStereo9readFrameEPf, symObjAddr: 0x15AC94, symBinAddr: 0x1545C4, symSize: 0x160 }
  - { offset: 0xA75FB4, size: 0x8, addend: 0x0, symName: _X509V3_add_value, symObjAddr: 0x11A210, symBinAddr: 0x115500, symSize: 0x15C }
  - { offset: 0xA75FC2, size: 0x8, addend: 0x0, symName: _x509v3_bytes_to_hex, symObjAddr: 0x11B628, symBinAddr: 0x116918, symSize: 0xC4 }
  - { offset: 0xA77BC0, size: 0x8, addend: 0x0, symName: _X509V3_add_value, symObjAddr: 0x11A210, symBinAddr: 0x115500, symSize: 0x15C }
  - { offset: 0xA77F01, size: 0x8, addend: 0x0, symName: _X509V3_conf_free, symObjAddr: 0x11A36C, symBinAddr: 0x11565C, symSize: 0xA8 }
  - { offset: 0xA7813C, size: 0x8, addend: 0x0, symName: _bignum_to_string, symObjAddr: 0x11A414, symBinAddr: 0x115704, symSize: 0x504 }
  - { offset: 0xA787C9, size: 0x8, addend: 0x0, symName: _i2s_ASN1_INTEGER, symObjAddr: 0x11A918, symBinAddr: 0x115C08, symSize: 0xD8 }
  - { offset: 0xA7892F, size: 0x8, addend: 0x0, symName: _s2i_ASN1_INTEGER, symObjAddr: 0x11A9F0, symBinAddr: 0x115CE0, symSize: 0x644 }
  - { offset: 0xA79080, size: 0x8, addend: 0x0, symName: _X509V3_add_value_int, symObjAddr: 0x11B034, symBinAddr: 0x116324, symSize: 0x70 }
  - { offset: 0xA79186, size: 0x8, addend: 0x0, symName: _X509V3_get_value_bool, symObjAddr: 0x11B0A4, symBinAddr: 0x116394, symSize: 0x190 }
  - { offset: 0xA792AC, size: 0x8, addend: 0x0, symName: _X509V3_get_value_int, symObjAddr: 0x11B234, symBinAddr: 0x116524, symSize: 0x78 }
  - { offset: 0xA7935B, size: 0x8, addend: 0x0, symName: _X509V3_parse_list, symObjAddr: 0x11B2AC, symBinAddr: 0x11659C, symSize: 0x2B0 }
  - { offset: 0xA79799, size: 0x8, addend: 0x0, symName: _strip_spaces, symObjAddr: 0x11B55C, symBinAddr: 0x11684C, symSize: 0xCC }
  - { offset: 0xA798E7, size: 0x8, addend: 0x0, symName: _x509v3_hex_to_bytes, symObjAddr: 0x11B6EC, symBinAddr: 0x1169DC, symSize: 0x164 }
  - { offset: 0xA79A57, size: 0x8, addend: 0x0, symName: _x509v3_name_cmp, symObjAddr: 0x11B850, symBinAddr: 0x116B40, symSize: 0x58 }
  - { offset: 0xA79AE4, size: 0x8, addend: 0x0, symName: _x509v3_looks_like_dns_name, symObjAddr: 0x11B8A8, symBinAddr: 0x116B98, symSize: 0xD8 }
  - { offset: 0xA79BA5, size: 0x8, addend: 0x0, symName: _do_x509_check, symObjAddr: 0x11B980, symBinAddr: 0x116C70, symSize: 0x214 }
  - { offset: 0xA79F53, size: 0x8, addend: 0x0, symName: _do_check_string, symObjAddr: 0x11C0C8, symBinAddr: 0x1173B8, symSize: 0x188 }
  - { offset: 0xA7A272, size: 0x8, addend: 0x0, symName: _equal_wildcard, symObjAddr: 0x11BB94, symBinAddr: 0x116E84, symSize: 0x310 }
  - { offset: 0xA7A431, size: 0x8, addend: 0x0, symName: _equal_nocase, symObjAddr: 0x11BEA4, symBinAddr: 0x117194, symSize: 0xC8 }
  - { offset: 0xA7A4A3, size: 0x8, addend: 0x0, symName: _equal_nocase, symObjAddr: 0x11BEA4, symBinAddr: 0x117194, symSize: 0xC8 }
  - { offset: 0xA7A600, size: 0x8, addend: 0x0, symName: _equal_email, symObjAddr: 0x11BF6C, symBinAddr: 0x11725C, symSize: 0xB0 }
  - { offset: 0xA7A718, size: 0x8, addend: 0x0, symName: _equal_case, symObjAddr: 0x11C01C, symBinAddr: 0x11730C, symSize: 0xAC }
  - { offset: 0xA7A887, size: 0x8, addend: 0x0, symName: _a2i_ipadd, symObjAddr: 0x11C250, symBinAddr: 0x117540, symSize: 0x18C }
  - { offset: 0xA7A9E3, size: 0x8, addend: 0x0, symName: _ipv4_from_asc, symObjAddr: 0x11C4E8, symBinAddr: 0x1177D8, symSize: 0xB4 }
  - { offset: 0xA7AAC3, size: 0x8, addend: 0x0, symName: _ipv6_cb, symObjAddr: 0x11C3DC, symBinAddr: 0x1176CC, symSize: 0x10C }
  - { offset: 0xA7ABC7, size: 0x8, addend: 0x0, symName: _X509V3_NAME_from_section, symObjAddr: 0x11C59C, symBinAddr: 0x11788C, symSize: 0x240 }
  - { offset: 0xA3621D, size: 0x8, addend: 0x0, symName: _X509_ALGOR_it, symObjAddr: 0x1E7F50, symBinAddr: 0x1F56F8, symSize: 0x0 }
  - { offset: 0xA3632D, size: 0x8, addend: 0x0, symName: _X509_ALGOR_seq_tt, symObjAddr: 0x1E7448, symBinAddr: 0x1F4BF0, symSize: 0x0 }
  - { offset: 0xD19A4A, size: 0x8, addend: 0x0, symName: __ZN4bssl26ssl_record_sequence_updateEPhm, symObjAddr: 0x18B2A0, symBinAddr: 0x183B44, symSize: 0x60 }
  - { offset: 0xD19ADA, size: 0x8, addend: 0x0, symName: __ZN4bssl26ssl_record_sequence_updateEPhm, symObjAddr: 0x18B2A0, symBinAddr: 0x183B44, symSize: 0x60 }
  - { offset: 0xD19B3C, size: 0x8, addend: 0x0, symName: __ZN4bsslL26ssl_needs_record_splittingEPK6ssl_st, symObjAddr: 0x18B300, symBinAddr: 0x183BA4, symSize: 0x60 }
  - { offset: 0xD19BD6, size: 0x8, addend: 0x0, symName: __ZN4bssl15tls_open_recordEP6ssl_stPhPNS_4SpanIhEEPmS2_S4_, symObjAddr: 0x18B360, symBinAddr: 0x183C04, symSize: 0x534 }
  - { offset: 0xD1A269, size: 0x8, addend: 0x0, symName: __ZN4bsslL15skip_early_dataEP6ssl_stPhm, symObjAddr: 0x18B894, symBinAddr: 0x184138, symSize: 0x74 }
  - { offset: 0xD1A2C2, size: 0x8, addend: 0x0, symName: __ZN4bssl17ssl_process_alertEP6ssl_stPhNS_4SpanIKhEE, symObjAddr: 0x18B908, symBinAddr: 0x1841AC, symSize: 0x198 }
  - { offset: 0xD1A546, size: 0x8, addend: 0x0, symName: __ZN4bssl15tls_seal_recordEP6ssl_stPhPmmhPKhm, symObjAddr: 0x18BAA0, symBinAddr: 0x184344, symSize: 0x2C8 }
  - { offset: 0xD1AA18, size: 0x8, addend: 0x0, symName: __ZN4bsslL14do_seal_recordEP6ssl_stPhS2_S2_hPKhm, symObjAddr: 0x18BD68, symBinAddr: 0x18460C, symSize: 0x5A4 }
  - { offset: 0xD1C002, size: 0x8, addend: 0x0, symName: _SSL_max_seal_overhead, symObjAddr: 0x18C30C, symBinAddr: 0x184BB0, symSize: 0xC0 }
  - { offset: 0xC8864F, size: 0x8, addend: 0x0, symName: __ZN6twitch4rtmp19RtmpInitializeStateD1Ev, symObjAddr: 0x16DA40, symBinAddr: 0x166460, symSize: 0x4 }
  - { offset: 0xC8A924, size: 0x8, addend: 0x0, symName: __ZN6twitch4rtmp19RtmpInitializeState15onEnterInternalEv, symObjAddr: 0x16DA48, symBinAddr: 0x166468, symSize: 0x8EC }
  - { offset: 0xC8E53C, size: 0x8, addend: 0x0, symName: __ZN6twitch4rtmp19RtmpInitializeState14onExitInternalEv, symObjAddr: 0x16E334, symBinAddr: 0x166D54, symSize: 0xAC }
  - { offset: 0xC8E763, size: 0x8, addend: 0x0, symName: __ZN6twitch4rtmp19RtmpInitializeStateD1Ev, symObjAddr: 0x16DA40, symBinAddr: 0x166460, symSize: 0x4 }
  - { offset: 0xC8E78C, size: 0x8, addend: 0x0, symName: __ZN6twitch4rtmp19RtmpInitializeStateD0Ev, symObjAddr: 0x16DA44, symBinAddr: 0x166464, symSize: 0x4 }
  - { offset: 0xC8EE9B, size: 0x8, addend: 0x0, symName: __ZN6twitch4rtmp19RtmpInitializeState13parseEndpointERKNSt3__112basic_stringIcNS2_11char_traitsIcEENS2_9allocatorIcEEEE, symObjAddr: 0x16E400, symBinAddr: 0x166E20, symSize: 0x724 }
  - { offset: 0xC92055, size: 0x8, addend: 0x0, symName: __ZN6twitch4rtmp19RtmpInitializeState14onExitInternalEv, symObjAddr: 0x16E334, symBinAddr: 0x166D54, symSize: 0xAC }
  - { offset: 0xC9228C, size: 0x8, addend: 0x0, symName: __ZNK6twitch4rtmp9RtmpState18getTimeoutDurationEv, symObjAddr: 0x16E3E0, symBinAddr: 0x166E00, symSize: 0x10 }
  - { offset: 0xC922AF, size: 0x8, addend: 0x0, symName: __ZN6twitch4rtmp19RtmpInitializeState20pollForInputInternalEv, symObjAddr: 0x16E3F0, symBinAddr: 0x166E10, symSize: 0x10 }
  - { offset: 0xC927C5, size: 0x8, addend: 0x0, symName: '__ZNSt3__110__function6__funcIZN6twitch4rtmp19RtmpInitializeState15onEnterInternalEvE3$_0NS_9allocatorIS5_EEFvNS2_6Socket5StateERKNS2_5ErrorEEED1Ev', symObjAddr: 0x16EB24, symBinAddr: 0x167544, symSize: 0x4 }
  - { offset: 0xC927F0, size: 0x8, addend: 0x0, symName: '__ZNSt3__110__function6__funcIZN6twitch4rtmp19RtmpInitializeState15onEnterInternalEvE3$_0NS_9allocatorIS5_EEFvNS2_6Socket5StateERKNS2_5ErrorEEED0Ev', symObjAddr: 0x16EB28, symBinAddr: 0x167548, symSize: 0x4 }
  - { offset: 0xC92A04, size: 0x8, addend: 0x0, symName: '__ZNKSt3__110__function6__funcIZN6twitch4rtmp19RtmpInitializeState15onEnterInternalEvE3$_0NS_9allocatorIS5_EEFvNS2_6Socket5StateERKNS2_5ErrorEEE7__cloneEv', symObjAddr: 0x16EB2C, symBinAddr: 0x16754C, symSize: 0x34 }
  - { offset: 0xC92D1F, size: 0x8, addend: 0x0, symName: '__ZNKSt3__110__function6__funcIZN6twitch4rtmp19RtmpInitializeState15onEnterInternalEvE3$_0NS_9allocatorIS5_EEFvNS2_6Socket5StateERKNS2_5ErrorEEE7__cloneEPNS0_6__baseISD_EE', symObjAddr: 0x16EB60, symBinAddr: 0x167580, symSize: 0x14 }
  - { offset: 0xC92D58, size: 0x8, addend: 0x0, symName: '__ZNKSt3__110__function6__funcIZN6twitch4rtmp19RtmpInitializeState15onEnterInternalEvE3$_0NS_9allocatorIS5_EEFvNS2_6Socket5StateERKNS2_5ErrorEEE7__cloneEPNS0_6__baseISD_EE', symObjAddr: 0x16EB60, symBinAddr: 0x167580, symSize: 0x14 }
  - { offset: 0xC92D8A, size: 0x8, addend: 0x0, symName: '__ZNKSt3__110__function6__funcIZN6twitch4rtmp19RtmpInitializeState15onEnterInternalEvE3$_0NS_9allocatorIS5_EEFvNS2_6Socket5StateERKNS2_5ErrorEEE7__cloneEPNS0_6__baseISD_EE', symObjAddr: 0x16EB60, symBinAddr: 0x167580, symSize: 0x14 }
  - { offset: 0xC92DBC, size: 0x8, addend: 0x0, symName: '__ZNKSt3__110__function6__funcIZN6twitch4rtmp19RtmpInitializeState15onEnterInternalEvE3$_0NS_9allocatorIS5_EEFvNS2_6Socket5StateERKNS2_5ErrorEEE7__cloneEPNS0_6__baseISD_EE', symObjAddr: 0x16EB60, symBinAddr: 0x167580, symSize: 0x14 }
  - { offset: 0xC92DD2, size: 0x8, addend: 0x0, symName: '__ZNKSt3__110__function6__funcIZN6twitch4rtmp19RtmpInitializeState15onEnterInternalEvE3$_0NS_9allocatorIS5_EEFvNS2_6Socket5StateERKNS2_5ErrorEEE7__cloneEPNS0_6__baseISD_EE', symObjAddr: 0x16EB60, symBinAddr: 0x167580, symSize: 0x14 }
  - { offset: 0xC92DE7, size: 0x8, addend: 0x0, symName: '__ZNKSt3__110__function6__funcIZN6twitch4rtmp19RtmpInitializeState15onEnterInternalEvE3$_0NS_9allocatorIS5_EEFvNS2_6Socket5StateERKNS2_5ErrorEEE7__cloneEPNS0_6__baseISD_EE', symObjAddr: 0x16EB60, symBinAddr: 0x167580, symSize: 0x14 }
  - { offset: 0xC92DFC, size: 0x8, addend: 0x0, symName: '__ZNKSt3__110__function6__funcIZN6twitch4rtmp19RtmpInitializeState15onEnterInternalEvE3$_0NS_9allocatorIS5_EEFvNS2_6Socket5StateERKNS2_5ErrorEEE7__cloneEPNS0_6__baseISD_EE', symObjAddr: 0x16EB60, symBinAddr: 0x167580, symSize: 0x14 }
  - { offset: 0xC92E11, size: 0x8, addend: 0x0, symName: '__ZNKSt3__110__function6__funcIZN6twitch4rtmp19RtmpInitializeState15onEnterInternalEvE3$_0NS_9allocatorIS5_EEFvNS2_6Socket5StateERKNS2_5ErrorEEE7__cloneEPNS0_6__baseISD_EE', symObjAddr: 0x16EB60, symBinAddr: 0x167580, symSize: 0x14 }
  - { offset: 0xC92E29, size: 0x8, addend: 0x0, symName: '__ZNSt3__110__function6__funcIZN6twitch4rtmp19RtmpInitializeState15onEnterInternalEvE3$_0NS_9allocatorIS5_EEFvNS2_6Socket5StateERKNS2_5ErrorEEE7destroyEv', symObjAddr: 0x16EB74, symBinAddr: 0x167594, symSize: 0x4 }
  - { offset: 0xC92E7C, size: 0x8, addend: 0x0, symName: '__ZNSt3__110__function6__funcIZN6twitch4rtmp19RtmpInitializeState15onEnterInternalEvE3$_0NS_9allocatorIS5_EEFvNS2_6Socket5StateERKNS2_5ErrorEEE18destroy_deallocateEv', symObjAddr: 0x16EB78, symBinAddr: 0x167598, symSize: 0x4 }
  - { offset: 0xC92EB3, size: 0x8, addend: 0x0, symName: '__ZNSt3__110__function6__funcIZN6twitch4rtmp19RtmpInitializeState15onEnterInternalEvE3$_0NS_9allocatorIS5_EEFvNS2_6Socket5StateERKNS2_5ErrorEEE18destroy_deallocateEv', symObjAddr: 0x16EB78, symBinAddr: 0x167598, symSize: 0x4 }
  - { offset: 0xC92ED8, size: 0x8, addend: 0x0, symName: '__ZNSt3__110__function6__funcIZN6twitch4rtmp19RtmpInitializeState15onEnterInternalEvE3$_0NS_9allocatorIS5_EEFvNS2_6Socket5StateERKNS2_5ErrorEEE18destroy_deallocateEv', symObjAddr: 0x16EB78, symBinAddr: 0x167598, symSize: 0x4 }
  - { offset: 0xC92F07, size: 0x8, addend: 0x0, symName: '__ZNSt3__110__function6__funcIZN6twitch4rtmp19RtmpInitializeState15onEnterInternalEvE3$_0NS_9allocatorIS5_EEFvNS2_6Socket5StateERKNS2_5ErrorEEE18destroy_deallocateEv', symObjAddr: 0x16EB78, symBinAddr: 0x167598, symSize: 0x4 }
  - { offset: 0xC92F30, size: 0x8, addend: 0x0, symName: '__ZNSt3__110__function6__funcIZN6twitch4rtmp19RtmpInitializeState15onEnterInternalEvE3$_0NS_9allocatorIS5_EEFvNS2_6Socket5StateERKNS2_5ErrorEEE18destroy_deallocateEv', symObjAddr: 0x16EB78, symBinAddr: 0x167598, symSize: 0x4 }
  - { offset: 0xC93008, size: 0x8, addend: 0x0, symName: '__ZNSt3__110__function6__funcIZN6twitch4rtmp19RtmpInitializeState15onEnterInternalEvE3$_0NS_9allocatorIS5_EEFvNS2_6Socket5StateERKNS2_5ErrorEEEclEOS9_SC_', symObjAddr: 0x16EB7C, symBinAddr: 0x16759C, symSize: 0x100 }
  - { offset: 0xA0F2BA, size: 0x8, addend: 0x0, symName: _HKDF_extract, symObjAddr: 0x106734, symBinAddr: 0x101A84, symSize: 0x74 }
  - { offset: 0xA0F363, size: 0x8, addend: 0x0, symName: _HKDF_extract, symObjAddr: 0x106734, symBinAddr: 0x101A84, symSize: 0x74 }
  - { offset: 0x8B674F, size: 0x8, addend: 0x0, symName: __ZN6twitch15AnalyticsSampleC1ERKNS_9MediaTimeENSt3__112basic_stringIcNS4_11char_traitsIcEENS4_9allocatorIcEEEE, symObjAddr: 0xD3FFC, symBinAddr: 0xD0018, symSize: 0x68 }
  - { offset: 0x8BAF93, size: 0x8, addend: 0x0, symName: __ZN6twitch15AnalyticsSampleC1ERKNS_9MediaTimeENSt3__112basic_stringIcNS4_11char_traitsIcEENS4_9allocatorIcEEEE, symObjAddr: 0xD3FFC, symBinAddr: 0xD0018, symSize: 0x68 }
  - { offset: 0x8BB29A, size: 0x8, addend: 0x0, symName: __ZN6twitch15AnalyticsSample11keyToStringENS_6detail12AnalyticsKeyE, symObjAddr: 0xD4064, symBinAddr: 0xD0080, symSize: 0x124 }
  - { offset: 0x8BB51D, size: 0x8, addend: 0x0, symName: __ZN6twitch15AnalyticsSample18getAggregationTypeENS_6detail12AnalyticsKeyE, symObjAddr: 0xD4188, symBinAddr: 0xD01A4, symSize: 0x58 }
  - { offset: 0x8BB641, size: 0x8, addend: 0x0, symName: __ZN6twitch15AnalyticsSample13addFieldValueERKNSt3__112basic_stringIcNS1_11char_traitsIcEENS1_9allocatorIcEEEENS_13VariantSampleIS0_NS_6detail12AnalyticsKeyEE5ValueESC_S7_, symObjAddr: 0xD4218, symBinAddr: 0xD01FC, symSize: 0xB0 }
  - { offset: 0x8BB744, size: 0x8, addend: 0x0, symName: __ZN6twitch15AnalyticsSample28createConnectionClosedSampleERKNS_9MediaTimeERKNSt3__112basic_stringIcNS4_11char_traitsIcEENS4_9allocatorIcEEEEf, symObjAddr: 0xD42C8, symBinAddr: 0xD02AC, symSize: 0x1EC }
  - { offset: 0x8BC6AE, size: 0x8, addend: 0x0, symName: __ZN6twitch15AnalyticsSample33createConnectionEstablishedSampleERKNS_9MediaTimeERKNSt3__112basic_stringIcNS4_11char_traitsIcEENS4_9allocatorIcEEEEfSC_b, symObjAddr: 0xD44B4, symBinAddr: 0xD0498, symSize: 0x328 }
  - { offset: 0x8BDF8D, size: 0x8, addend: 0x0, symName: __ZN6twitch15AnalyticsSample34createDeviceAttachedDetachedSampleENS_6detail12AnalyticsKeyERKNS_9MediaTimeERKNSt3__112basic_stringIcNS6_11char_traitsIcEENS6_9allocatorIcEEEESE_SE_SE_, symObjAddr: 0xD47DC, symBinAddr: 0xD07C0, symSize: 0x394 }
  - { offset: 0x8BFA40, size: 0x8, addend: 0x0, symName: __ZN6twitch15AnalyticsSample26createStartBroadcastSampleERKNS_9MediaTimeERKNSt3__112basic_stringIcNS4_11char_traitsIcEENS4_9allocatorIcEEEESC_SC_iSC_, symObjAddr: 0xD4B70, symBinAddr: 0xD0B54, symSize: 0x414 }
  - { offset: 0x8C1964, size: 0x8, addend: 0x0, symName: __ZN6twitch15AnalyticsSample25createStopBroadcastSampleERKNS_9MediaTimeERKNSt3__112basic_stringIcNS4_11char_traitsIcEENS4_9allocatorIcEEEESC_SC_ib, symObjAddr: 0xD4F84, symBinAddr: 0xD0F68, symSize: 0x3DC }
  - { offset: 0x8C37DE, size: 0x8, addend: 0x0, symName: __ZN6twitch15AnalyticsSample26createCodecDiscoveryResultERKNS_9MediaTimeERKNSt3__112basic_stringIcNS4_11char_traitsIcEENS4_9allocatorIcEEEESC_SC_SC_iiifibbSC_, symObjAddr: 0xD5360, symBinAddr: 0xD1344, symSize: 0x828 }
  - { offset: 0x9B10C9, size: 0x8, addend: 0x0, symName: __ZN6twitch3ios14VTVideoEncoder7receiveERKNS_13PictureSampleE, symObjAddr: 0xECA80, symBinAddr: 0xE7DD0, symSize: 0x63C }
  - { offset: 0x9B1141, size: 0x8, addend: 0x0, symName: __ZN6twitch3iosL15getProfileLevelERKNS_10VideoCodecE, symObjAddr: 0xEF62C, symBinAddr: 0xEA97C, symSize: 0x64 }
  - { offset: 0x9B11B7, size: 0x8, addend: 0x0, symName: __ZN6twitch3iosL15getProfileLevelERKNS_10VideoCodecE, symObjAddr: 0xEF62C, symBinAddr: 0xEA97C, symSize: 0x64 }
  - { offset: 0x9B4C52, size: 0x8, addend: 0x0, symName: ____ZN6twitch3ios14VTVideoEncoder7receiveERKNS_13PictureSampleE_block_invoke, symObjAddr: 0xEF700, symBinAddr: 0xEAA50, symSize: 0x44C }
  - { offset: 0x9B6B1E, size: 0x8, addend: 0x0, symName: __ZN6twitch3ios14VTVideoEncoder7receiveERKNS_13PictureSampleE, symObjAddr: 0xECA80, symBinAddr: 0xE7DD0, symSize: 0x63C }
  - { offset: 0x9B814F, size: 0x8, addend: 0x0, symName: __ZN6twitch3ios14VTVideoEncoder22handleCompressionErrorEiRKNS_9MediaTimeERKNSt3__112basic_stringIcNS5_11char_traitsIcEENS5_9allocatorIcEEEE, symObjAddr: 0xEFB4C, symBinAddr: 0xEAE9C, symSize: 0x9C8 }
  - { offset: 0x9BD81A, size: 0x8, addend: 0x0, symName: __ZN6twitch3ios14VTVideoEncoderD1Ev, symObjAddr: 0xED0BC, symBinAddr: 0xE840C, symSize: 0x4 }
  - { offset: 0x9BD83E, size: 0x8, addend: 0x0, symName: __ZN6twitch3ios14VTVideoEncoderD1Ev, symObjAddr: 0xED0BC, symBinAddr: 0xE840C, symSize: 0x4 }
  - { offset: 0x9BD849, size: 0x8, addend: 0x0, symName: __ZN6twitch3ios14VTVideoEncoderD2Ev, symObjAddr: 0xED4D8, symBinAddr: 0xE8828, symSize: 0xD4 }
  - { offset: 0x9BE0CD, size: 0x8, addend: 0x0, symName: __ZN6twitch3ios14VTVideoEncoderD0Ev, symObjAddr: 0xED0C0, symBinAddr: 0xE8410, symSize: 0x14 }
  - { offset: 0x9BE15C, size: 0x8, addend: 0x0, symName: __ZNK6twitch3ios14VTVideoEncoder18getCodecPropertiesEv, symObjAddr: 0xED0D4, symBinAddr: 0xE8424, symSize: 0xCC }
  - { offset: 0x9BE3ED, size: 0x8, addend: 0x0, symName: __ZN6twitch3ios14VTVideoEncoder15requestKeyframeEv, symObjAddr: 0xED1A0, symBinAddr: 0xE84F0, symSize: 0x10 }
  - { offset: 0x9BE497, size: 0x8, addend: 0x0, symName: __ZN6twitch3ios14VTVideoEncoder10setBitrateEi, symObjAddr: 0xED1B0, symBinAddr: 0xE8500, symSize: 0x48 }
  - { offset: 0x9BE5D1, size: 0x8, addend: 0x0, symName: __ZN6twitch3ios14VTVideoEncoder16setBitrateLockedEiP26OpaqueVTCompressionSession, symObjAddr: 0xEED98, symBinAddr: 0xEA0E8, symSize: 0x46C }
  - { offset: 0x9C04B3, size: 0x8, addend: 0x0, symName: __ZN6twitch3ios14VTVideoEncoder5startEv, symObjAddr: 0xED1F8, symBinAddr: 0xE8548, symSize: 0x44 }
  - { offset: 0x9C05BC, size: 0x8, addend: 0x0, symName: __ZN6twitch3ios14VTVideoEncoder11startLockedEv, symObjAddr: 0xED69C, symBinAddr: 0xE89EC, symSize: 0x8FC }
  - { offset: 0x9C3F59, size: 0x8, addend: 0x0, symName: __ZN6twitch3ios14VTVideoEncoder4stopEv, symObjAddr: 0xED23C, symBinAddr: 0xE858C, symSize: 0x34 }
  - { offset: 0x9C4056, size: 0x8, addend: 0x0, symName: __ZN6twitch3ios14VTVideoEncoder10stopLockedEv, symObjAddr: 0xED5AC, symBinAddr: 0xE88FC, symSize: 0x68 }
  - { offset: 0x9C4295, size: 0x8, addend: 0x0, symName: __ZN6twitch3ios14VTVideoEncoder18restartIfNecessaryEv, symObjAddr: 0xED270, symBinAddr: 0xE85C0, symSize: 0xCC }
  - { offset: 0x9C455C, size: 0x8, addend: 0x0, symName: __ZN6twitch3ios14VTVideoEncoder5flushEv, symObjAddr: 0xED33C, symBinAddr: 0xE868C, symSize: 0x5C }
  - { offset: 0x9C456B, size: 0x8, addend: 0x0, symName: __ZN6twitch3ios14VTVideoEncoder5flushEv, symObjAddr: 0xED33C, symBinAddr: 0xE868C, symSize: 0x5C }
  - { offset: 0x9C46AB, size: 0x8, addend: 0x0, symName: __ZNK6twitch3ios14VTVideoEncoder20preferredPixelFormatEv, symObjAddr: 0xED398, symBinAddr: 0xE86E8, symSize: 0x8 }
  - { offset: 0x9C47DC, size: 0x8, addend: 0x0, symName: __ZN6twitch3ios14VTVideoEncoder23setBFramesForceDisabledEb, symObjAddr: 0xED3A0, symBinAddr: 0xE86F0, symSize: 0xF8 }
  - { offset: 0x9C4AD4, size: 0x8, addend: 0x0, symName: __ZThn8_N6twitch3ios14VTVideoEncoderD1Ev, symObjAddr: 0xED498, symBinAddr: 0xE87E8, symSize: 0x8 }
  - { offset: 0x9C4B32, size: 0x8, addend: 0x0, symName: __ZThn8_N6twitch3ios14VTVideoEncoderD0Ev, symObjAddr: 0xED4A0, symBinAddr: 0xE87F0, symSize: 0x18 }
  - { offset: 0x9C4B92, size: 0x8, addend: 0x0, symName: __ZThn32_N6twitch3ios14VTVideoEncoderD1Ev, symObjAddr: 0xED4B8, symBinAddr: 0xE8808, symSize: 0x8 }
  - { offset: 0x9C4BD4, size: 0x8, addend: 0x0, symName: __ZThn32_N6twitch3ios14VTVideoEncoderD0Ev, symObjAddr: 0xED4C0, symBinAddr: 0xE8810, symSize: 0x18 }
  - { offset: 0x9C4E75, size: 0x8, addend: 0x0, symName: __ZN6twitch5CFRefIP26OpaqueVTCompressionSessionED1Ev, symObjAddr: 0xED614, symBinAddr: 0xE8964, symSize: 0x38 }
  - { offset: 0x9C4ED5, size: 0x8, addend: 0x0, symName: __ZN6twitch5CFRefIP26OpaqueVTCompressionSessionED0Ev, symObjAddr: 0xED64C, symBinAddr: 0xE899C, symSize: 0x38 }
  - { offset: 0x9C4F5B, size: 0x8, addend: 0x0, symName: __ZN6twitch12VideoEncoderD1Ev, symObjAddr: 0xED684, symBinAddr: 0xE89D4, symSize: 0x4 }
  - { offset: 0x9C4F7A, size: 0x8, addend: 0x0, symName: __ZN6twitch12VideoEncoderD0Ev, symObjAddr: 0xED688, symBinAddr: 0xE89D8, symSize: 0x4 }
  - { offset: 0x9C4FB3, size: 0x8, addend: 0x0, symName: __ZThn8_N6twitch12VideoEncoderD1Ev, symObjAddr: 0xED68C, symBinAddr: 0xE89DC, symSize: 0x4 }
  - { offset: 0x9C4FCD, size: 0x8, addend: 0x0, symName: __ZThn8_N6twitch12VideoEncoderD1Ev, symObjAddr: 0xED68C, symBinAddr: 0xE89DC, symSize: 0x4 }
  - { offset: 0x9C4FF8, size: 0x8, addend: 0x0, symName: __ZThn8_N6twitch12VideoEncoderD0Ev, symObjAddr: 0xED690, symBinAddr: 0xE89E0, symSize: 0x4 }
  - { offset: 0x9C5012, size: 0x8, addend: 0x0, symName: __ZThn8_N6twitch12VideoEncoderD0Ev, symObjAddr: 0xED690, symBinAddr: 0xE89E0, symSize: 0x4 }
  - { offset: 0x9C5023, size: 0x8, addend: 0x0, symName: __ZThn32_N6twitch12VideoEncoderD1Ev, symObjAddr: 0xED694, symBinAddr: 0xE89E4, symSize: 0x4 }
  - { offset: 0x9C503D, size: 0x8, addend: 0x0, symName: __ZThn32_N6twitch12VideoEncoderD1Ev, symObjAddr: 0xED694, symBinAddr: 0xE89E4, symSize: 0x4 }
  - { offset: 0x9C504E, size: 0x8, addend: 0x0, symName: __ZThn32_N6twitch12VideoEncoderD0Ev, symObjAddr: 0xED698, symBinAddr: 0xE89E8, symSize: 0x4 }
  - { offset: 0x9C5068, size: 0x8, addend: 0x0, symName: __ZThn32_N6twitch12VideoEncoderD0Ev, symObjAddr: 0xED698, symBinAddr: 0xE89E8, symSize: 0x4 }
  - { offset: 0x9C5BE2, size: 0x8, addend: 0x0, symName: __ZN6twitch3ios14VTVideoEncoder25setupVTCompressionSessionEv, symObjAddr: 0xEDF98, symBinAddr: 0xE92E8, symSize: 0xDB0 }
  - { offset: 0x9CA7AC, size: 0x8, addend: 0x0, symName: __ZN6twitch5CFRefIP26OpaqueVTCompressionSessionE5resetES2_, symObjAddr: 0xEED48, symBinAddr: 0xEA098, symSize: 0x50 }
  - { offset: 0x9CAABD, size: 0x8, addend: 0x0, symName: __ZN6twitch3ios14VTVideoEncoder22setCompressionPropertyEP26OpaqueVTCompressionSessionPK14__CFDictionaryPK10__CFStringPKvb, symObjAddr: 0xEF204, symBinAddr: 0xEA554, symSize: 0x2A4 }
  - { offset: 0x9CB769, size: 0x8, addend: 0x0, symName: __ZN6twitch5ErroraSEOS0_, symObjAddr: 0xEF4A8, symBinAddr: 0xEA7F8, symSize: 0x104 }
  - { offset: 0x9CBD92, size: 0x8, addend: 0x0, symName: __ZN6twitch5ErrorD1Ev, symObjAddr: 0xEF5AC, symBinAddr: 0xEA8FC, symSize: 0x80 }
  - { offset: 0x9CC3E2, size: 0x8, addend: 0x0, symName: __ZN6twitch5CFRefIPK14__CFDictionaryED1Ev, symObjAddr: 0xEF690, symBinAddr: 0xEA9E0, symSize: 0x38 }
  - { offset: 0x9CC442, size: 0x8, addend: 0x0, symName: __ZN6twitch5CFRefIPK14__CFDictionaryED0Ev, symObjAddr: 0xEF6C8, symBinAddr: 0xEAA18, symSize: 0x38 }
  - { offset: 0x9CCBEB, size: 0x8, addend: 0x0, symName: ___copy_helper_block_a8_40c28_ZTSN6twitch13PictureSampleE, symObjAddr: 0xF0514, symBinAddr: 0xEB864, symSize: 0x134 }
  - { offset: 0x9CCF0B, size: 0x8, addend: 0x0, symName: ___destroy_helper_block_a8_40c28_ZTSN6twitch13PictureSampleE, symObjAddr: 0xF0648, symBinAddr: 0xEB998, symSize: 0x78 }
  - { offset: 0x9CD3C7, size: 0x8, addend: 0x0, symName: '__ZNSt3__110__function6__funcIZZN6twitch3ios14VTVideoEncoder7receiveERKNS2_13PictureSampleEEUb_E3$_0NS_9allocatorIS8_EEFvvEED1Ev', symObjAddr: 0xF06C0, symBinAddr: 0xEBA10, symSize: 0x94 }
  - { offset: 0x9CD9AA, size: 0x8, addend: 0x0, symName: '__ZNSt3__110__function6__funcIZZN6twitch3ios14VTVideoEncoder7receiveERKNS2_13PictureSampleEEUb_E3$_0NS_9allocatorIS8_EEFvvEED0Ev', symObjAddr: 0xF0754, symBinAddr: 0xEBAA4, symSize: 0x94 }
  - { offset: 0x9CE10D, size: 0x8, addend: 0x0, symName: '__ZNKSt3__110__function6__funcIZZN6twitch3ios14VTVideoEncoder7receiveERKNS2_13PictureSampleEEUb_E3$_0NS_9allocatorIS8_EEFvvEE7__cloneEv', symObjAddr: 0xF07E8, symBinAddr: 0xEBB38, symSize: 0x40 }
  - { offset: 0x9CE2B8, size: 0x8, addend: 0x0, symName: '__ZNSt3__122__compressed_pair_elemIZZN6twitch3ios14VTVideoEncoder7receiveERKNS1_13PictureSampleEEUb_E3$_0Li0ELb0EEC2B8nn180100IJRKS7_EJLm0EEEENS_21piecewise_construct_tENS_5tupleIJDpT_EEENS_15__tuple_indicesIJXspT0_EEEE', symObjAddr: 0xF1440, symBinAddr: 0xEC790, symSize: 0x158 }
  - { offset: 0x9CE83F, size: 0x8, addend: 0x0, symName: '__ZNKSt3__110__function6__funcIZZN6twitch3ios14VTVideoEncoder7receiveERKNS2_13PictureSampleEEUb_E3$_0NS_9allocatorIS8_EEFvvEE7__cloneEPNS0_6__baseISB_EE', symObjAddr: 0xF0828, symBinAddr: 0xEBB78, symSize: 0x1C }
  - { offset: 0x9CE9A2, size: 0x8, addend: 0x0, symName: '__ZNSt3__110__function6__funcIZZN6twitch3ios14VTVideoEncoder7receiveERKNS2_13PictureSampleEEUb_E3$_0NS_9allocatorIS8_EEFvvEE7destroyEv', symObjAddr: 0xF0844, symBinAddr: 0xEBB94, symSize: 0x8 }
  - { offset: 0x9CE9D9, size: 0x8, addend: 0x0, symName: '__ZNSt3__110__function12__alloc_funcIZZN6twitch3ios14VTVideoEncoder7receiveERKNS2_13PictureSampleEEUb_E3$_0NS_9allocatorIS8_EEFvvEE7destroyB8nn180100Ev', symObjAddr: 0xF13B0, symBinAddr: 0xEC700, symSize: 0x90 }
  - { offset: 0x9CEEFE, size: 0x8, addend: 0x0, symName: '__ZNSt3__110__function6__funcIZZN6twitch3ios14VTVideoEncoder7receiveERKNS2_13PictureSampleEEUb_E3$_0NS_9allocatorIS8_EEFvvEE18destroy_deallocateEv', symObjAddr: 0xF084C, symBinAddr: 0xEBB9C, symSize: 0x28 }
  - { offset: 0x9CF993, size: 0x8, addend: 0x0, symName: '__ZNSt3__110__function6__funcIZZN6twitch3ios14VTVideoEncoder7receiveERKNS2_13PictureSampleEEUb_E3$_0NS_9allocatorIS8_EEFvvEEclEv', symObjAddr: 0xF0874, symBinAddr: 0xEBBC4, symSize: 0xB3C }
  - { offset: 0x9D50E5, size: 0x8, addend: 0x0, symName: '__ZNSt3__110__function12__alloc_funcIZZN6twitch3ios14VTVideoEncoder7receiveERKNS2_13PictureSampleEEUb_E3$_0NS_9allocatorIS8_EEFvvEE7destroyB8nn180100Ev', symObjAddr: 0xF13B0, symBinAddr: 0xEC700, symSize: 0x90 }
  - { offset: 0xC9344F, size: 0x8, addend: 0x0, symName: __ZN6twitch4rtmp16RtmpPublishStateD1Ev, symObjAddr: 0x16EC7C, symBinAddr: 0x16769C, symSize: 0x4 }
  - { offset: 0xC947D6, size: 0x8, addend: 0x0, symName: __ZN6twitch4rtmp16RtmpPublishStateD1Ev, symObjAddr: 0x16EC7C, symBinAddr: 0x16769C, symSize: 0x4 }
  - { offset: 0xC947FF, size: 0x8, addend: 0x0, symName: __ZN6twitch4rtmp16RtmpPublishStateD0Ev, symObjAddr: 0x16EC80, symBinAddr: 0x1676A0, symSize: 0x4 }
  - { offset: 0xC95480, size: 0x8, addend: 0x0, symName: __ZN6twitch4rtmp16RtmpPublishState18handleIncomingAmf0ENS0_11ChunkHeaderEPKh, symObjAddr: 0x16EC84, symBinAddr: 0x1676A4, symSize: 0x720 }
  - { offset: 0xC9727D, size: 0x8, addend: 0x0, symName: __ZN6twitch4rtmp16RtmpPublishState15onEnterInternalEv, symObjAddr: 0x16F3A4, symBinAddr: 0x167DC4, symSize: 0x47C }
  - { offset: 0xC98CFD, size: 0x8, addend: 0x0, symName: __ZN6twitch4rtmp16RtmpPublishState14onExitInternalEv, symObjAddr: 0x16F820, symBinAddr: 0x168240, symSize: 0x60 }
  - { offset: 0xC98EA9, size: 0x8, addend: 0x0, symName: __ZNK6twitch4rtmp16RtmpPublishState18getTimeoutDurationEv, symObjAddr: 0x16F880, symBinAddr: 0x1682A0, symSize: 0x14 }
  - { offset: 0x9D54AA, size: 0x8, addend: 0x0, symName: _kOpenSSLReasonValues, symObjAddr: 0x199030, symBinAddr: 0x1AE3A8, symSize: 0x0 }
  - { offset: 0x9D54E7, size: 0x8, addend: 0x0, symName: _kOpenSSLReasonStringData, symObjAddr: 0x199B8C, symBinAddr: 0x1AEF04, symSize: 0x0 }
  - { offset: 0x329BBD, size: 0x8, addend: 0x0, symName: '-[IVSMixedAudioDeviceImpl initWithConfiguration:]', symObjAddr: 0x45ACC, symBinAddr: 0x47F50, symSize: 0x7D0 }
  - { offset: 0x32E698, size: 0x8, addend: 0x0, symName: __ZNSt3__115allocate_sharedB8nn180100IN6twitch3ios12GCDSchedulerENS_9allocatorIS3_EEJPKcRU8__strongKPU33objcproto22OS_dispatch_queue_attr8NSObjectEvEENS_10shared_ptrIT_EERKT0_DpOT1_, symObjAddr: 0x47810, symBinAddr: 0x49C94, symSize: 0x9C }
  - { offset: 0x330B85, size: 0x8, addend: 0x0, symName: '-[IVSMixedAudioDeviceImpl initWithConfiguration:]', symObjAddr: 0x45ACC, symBinAddr: 0x47F50, symSize: 0x7D0 }
  - { offset: 0x3333CB, size: 0x8, addend: 0x0, symName: '-[IVSMixedAudioDeviceImpl dealloc]', symObjAddr: 0x4629C, symBinAddr: 0x48720, symSize: 0x54 }
  - { offset: 0x333499, size: 0x8, addend: 0x0, symName: '-[IVSMixedAudioDeviceImpl addSource:]', symObjAddr: 0x462F0, symBinAddr: 0x48774, symSize: 0x218 }
  - { offset: 0x333F28, size: 0x8, addend: 0x0, symName: '-[IVSMixedAudioDeviceImpl removeSource:]', symObjAddr: 0x46508, symBinAddr: 0x4898C, symSize: 0x1D0 }
  - { offset: 0x33470D, size: 0x8, addend: 0x0, symName: '-[IVSMixedAudioDeviceImpl sources]', symObjAddr: 0x466D8, symBinAddr: 0x48B5C, symSize: 0x5C }
  - { offset: 0x3347E6, size: 0x8, addend: 0x0, symName: '-[IVSMixedAudioDeviceImpl source:didAddDevice:]', symObjAddr: 0x46734, symBinAddr: 0x48BB8, symSize: 0x868 }
  - { offset: 0x3365F9, size: 0x8, addend: 0x0, symName: '-[IVSMixedAudioDeviceImpl source:didRemoveDevice:]', symObjAddr: 0x46F9C, symBinAddr: 0x49420, symSize: 0x454 }
  - { offset: 0x33660C, size: 0x8, addend: 0x0, symName: '-[IVSMixedAudioDeviceImpl source:didRemoveDevice:]', symObjAddr: 0x46F9C, symBinAddr: 0x49420, symSize: 0x454 }
  - { offset: 0x33735E, size: 0x8, addend: 0x0, symName: '-[IVSMixedAudioDeviceImpl source:transitionWithDuration:onComplete:]', symObjAddr: 0x473F0, symBinAddr: 0x49874, symSize: 0x1D0 }
  - { offset: 0x3378B1, size: 0x8, addend: 0x0, symName: '-[IVSMixedAudioDeviceImpl open]', symObjAddr: 0x475C0, symBinAddr: 0x49A44, symSize: 0x14 }
  - { offset: 0x337947, size: 0x8, addend: 0x0, symName: '-[IVSMixedAudioDeviceImpl close]', symObjAddr: 0x475D4, symBinAddr: 0x49A58, symSize: 0x14 }
  - { offset: 0x337A5B, size: 0x8, addend: 0x0, symName: '-[IVSMixedAudioDeviceImpl sourceToMixerSlot:]', symObjAddr: 0x475E8, symBinAddr: 0x49A6C, symSize: 0xC4 }
  - { offset: 0x337B7D, size: 0x8, addend: 0x0, symName: '-[IVSMixedAudioDeviceImpl sourcesSet]', symObjAddr: 0x476AC, symBinAddr: 0x49B30, symSize: 0x10 }
  - { offset: 0x337BB4, size: 0x8, addend: 0x0, symName: '-[IVSMixedAudioDeviceImpl setSourcesSet:]', symObjAddr: 0x476BC, symBinAddr: 0x49B40, symSize: 0x14 }
  - { offset: 0x337BF5, size: 0x8, addend: 0x0, symName: '-[IVSMixedAudioDeviceImpl .cxx_destruct]', symObjAddr: 0x476D0, symBinAddr: 0x49B54, symSize: 0x7C }
  - { offset: 0x337CE8, size: 0x8, addend: 0x0, symName: '-[IVSMixedAudioDeviceImpl .cxx_construct]', symObjAddr: 0x4774C, symBinAddr: 0x49BD0, symSize: 0x14 }
  - { offset: 0x337D76, size: 0x8, addend: 0x0, symName: __ZNSt3__110__function6__funcIU8__strongU13block_pointerFvbENS_9allocatorIS4_EES2_ED1Ev, symObjAddr: 0x47760, symBinAddr: 0x49BE4, symSize: 0x28 }
  - { offset: 0x337DD3, size: 0x8, addend: 0x0, symName: __ZNSt3__110__function6__funcIU8__strongU13block_pointerFvbENS_9allocatorIS4_EES2_ED0Ev, symObjAddr: 0x47788, symBinAddr: 0x49C0C, symSize: 0x28 }
  - { offset: 0x337E3C, size: 0x8, addend: 0x0, symName: __ZNKSt3__110__function6__funcIU8__strongU13block_pointerFvbENS_9allocatorIS4_EES2_E7__cloneEv, symObjAddr: 0x477B0, symBinAddr: 0x49C34, symSize: 0x8 }
  - { offset: 0x337EAD, size: 0x8, addend: 0x0, symName: __ZNKSt3__110__function6__funcIU8__strongU13block_pointerFvbENS_9allocatorIS4_EES2_E7__cloneEPNS0_6__baseIS2_EE, symObjAddr: 0x477B8, symBinAddr: 0x49C3C, symSize: 0x34 }
  - { offset: 0x337F37, size: 0x8, addend: 0x0, symName: __ZNSt3__110__function6__funcIU8__strongU13block_pointerFvbENS_9allocatorIS4_EES2_E7destroyEv, symObjAddr: 0x477EC, symBinAddr: 0x49C70, symSize: 0x10 }
  - { offset: 0x337F5E, size: 0x8, addend: 0x0, symName: __ZNSt3__110__function6__funcIU8__strongU13block_pointerFvbENS_9allocatorIS4_EES2_E18destroy_deallocateEv, symObjAddr: 0x477FC, symBinAddr: 0x49C80, symSize: 0x4 }
  - { offset: 0x337F87, size: 0x8, addend: 0x0, symName: __ZNSt3__110__function6__funcIU8__strongU13block_pointerFvbENS_9allocatorIS4_EES2_EclEOb, symObjAddr: 0x47800, symBinAddr: 0x49C84, symSize: 0x10 }
  - { offset: 0x337FC2, size: 0x8, addend: 0x0, symName: __ZNSt3__110__function6__funcIU8__strongU13block_pointerFvbENS_9allocatorIS4_EES2_EclEOb, symObjAddr: 0x47800, symBinAddr: 0x49C84, symSize: 0x10 }
  - { offset: 0x338257, size: 0x8, addend: 0x0, symName: __ZNSt3__120__shared_ptr_emplaceIN6twitch16MixedAudioDeviceENS_9allocatorIS2_EEED1Ev, symObjAddr: 0x478AC, symBinAddr: 0x49D30, symSize: 0x10 }
  - { offset: 0x33827B, size: 0x8, addend: 0x0, symName: __ZNSt3__120__shared_ptr_emplaceIN6twitch16MixedAudioDeviceENS_9allocatorIS2_EEED1Ev, symObjAddr: 0x478AC, symBinAddr: 0x49D30, symSize: 0x10 }
  - { offset: 0x3382B2, size: 0x8, addend: 0x0, symName: __ZNSt3__120__shared_ptr_emplaceIN6twitch16MixedAudioDeviceENS_9allocatorIS2_EEED0Ev, symObjAddr: 0x478BC, symBinAddr: 0x49D40, symSize: 0x20 }
  - { offset: 0x33860E, size: 0x8, addend: 0x0, symName: __ZNSt3__120__shared_ptr_emplaceIN6twitch16MixedAudioDeviceENS_9allocatorIS2_EEE16__on_zero_sharedEv, symObjAddr: 0x478DC, symBinAddr: 0x49D60, symSize: 0x68 }
  - { offset: 0x338AE5, size: 0x8, addend: 0x0, symName: __ZNSt3__120__shared_ptr_emplaceIN6twitch16MixedAudioDeviceENS_9allocatorIS2_EEE21__on_zero_shared_weakEv, symObjAddr: 0x47944, symBinAddr: 0x49DC8, symSize: 0x4 }
  - { offset: 0x338B1A, size: 0x8, addend: 0x0, symName: __ZNSt3__120__shared_ptr_emplaceIN6twitch16MixedAudioDeviceENS_9allocatorIS2_EEE21__on_zero_shared_weakEv, symObjAddr: 0x47944, symBinAddr: 0x49DC8, symSize: 0x4 }
  - { offset: 0x338B3F, size: 0x8, addend: 0x0, symName: __ZNSt3__120__shared_ptr_emplaceIN6twitch16MixedAudioDeviceENS_9allocatorIS2_EEE21__on_zero_shared_weakEv, symObjAddr: 0x47944, symBinAddr: 0x49DC8, symSize: 0x4 }
  - { offset: 0x338B64, size: 0x8, addend: 0x0, symName: __ZNSt3__120__shared_ptr_emplaceIN6twitch16MixedAudioDeviceENS_9allocatorIS2_EEE21__on_zero_shared_weakEv, symObjAddr: 0x47944, symBinAddr: 0x49DC8, symSize: 0x4 }
  - { offset: 0x338B94, size: 0x8, addend: 0x0, symName: __ZNSt3__120__shared_ptr_emplaceIN6twitch16MixedAudioDeviceENS_9allocatorIS2_EEE21__on_zero_shared_weakEv, symObjAddr: 0x47944, symBinAddr: 0x49DC8, symSize: 0x4 }
  - { offset: 0x338BBE, size: 0x8, addend: 0x0, symName: __ZNSt3__120__shared_ptr_emplaceIN6twitch16MixedAudioDeviceENS_9allocatorIS2_EEE21__on_zero_shared_weakEv, symObjAddr: 0x47944, symBinAddr: 0x49DC8, symSize: 0x4 }
  - { offset: 0x9E4549, size: 0x8, addend: 0x0, symName: _BUF_MEM_new, symObjAddr: 0xF70D8, symBinAddr: 0xF2428, symSize: 0x54 }
  - { offset: 0x9E461D, size: 0x8, addend: 0x0, symName: _BUF_MEM_new, symObjAddr: 0xF70D8, symBinAddr: 0xF2428, symSize: 0x54 }
  - { offset: 0x9E46BB, size: 0x8, addend: 0x0, symName: _BUF_MEM_free, symObjAddr: 0xF712C, symBinAddr: 0xF247C, symSize: 0x60 }
  - { offset: 0x9E47EC, size: 0x8, addend: 0x0, symName: _BUF_MEM_reserve, symObjAddr: 0xF718C, symBinAddr: 0xF24DC, symSize: 0xC0 }
  - { offset: 0x9E4875, size: 0x8, addend: 0x0, symName: _BUF_MEM_grow_clean, symObjAddr: 0xF724C, symBinAddr: 0xF259C, symSize: 0x50 }
  - { offset: 0x9E4935, size: 0x8, addend: 0x0, symName: _BUF_MEM_append, symObjAddr: 0xF729C, symBinAddr: 0xF25EC, symSize: 0x90 }
  - { offset: 0x8A2F38, size: 0x8, addend: 0x0, symName: __ZN6twitch13RenderContext10reportTimeERKNSt3__112basic_stringIcNS1_11char_traitsIcEENS1_9allocatorIcEEEERKNS_9MediaTimeESC_, symObjAddr: 0xD1C34, symBinAddr: 0xCDCC0, symSize: 0x914 }
  - { offset: 0x8A5688, size: 0x8, addend: 0x0, symName: __ZNSt3__119__allocate_at_leastB8nn180100INS_9allocatorINS_4pairINS_8weak_ptrIN6twitch8ReceiverINS4_15AnalyticsSampleENS4_5ErrorEEEEES7_EEEEEENS_19__allocation_resultINS_16allocator_traitsIT_E7pointerEEERSE_m, symObjAddr: 0xD264C, symBinAddr: 0xCE6D8, symSize: 0x48 }
  - { offset: 0x8A5723, size: 0x8, addend: 0x0, symName: __ZNSt3__112__destroy_atB8nn180100INS_4pairINS_8weak_ptrIN6twitch8ReceiverINS3_15AnalyticsSampleENS3_5ErrorEEEEES6_EELi0EEEvPT_, symObjAddr: 0xD2694, symBinAddr: 0xCE720, symSize: 0x90 }
  - { offset: 0x8A5737, size: 0x8, addend: 0x0, symName: __ZNSt3__112__destroy_atB8nn180100INS_4pairINS_8weak_ptrIN6twitch8ReceiverINS3_15AnalyticsSampleENS3_5ErrorEEEEES6_EELi0EEEvPT_, symObjAddr: 0xD2694, symBinAddr: 0xCE720, symSize: 0x90 }
  - { offset: 0x8A5E58, size: 0x8, addend: 0x0, symName: __ZNSt3__19__any_imp13_SmallHandlerINS_6vectorINS_4pairINS_8weak_ptrIN6twitch8ReceiverINS5_15AnalyticsSampleENS5_5ErrorEEEEES8_EENS_9allocatorISB_EEEEE8__handleB8nn180100ENS0_7_ActionEPKNS_3anyEPSH_PKSt9type_infoPKv, symObjAddr: 0xD2730, symBinAddr: 0xCE7B0, symSize: 0x178 }
  - { offset: 0x8A6EC0, size: 0x8, addend: 0x0, symName: __ZNSt3__19__any_imp17__unique_typeinfoINS_6vectorINS_4pairINS_8weak_ptrIN6twitch8ReceiverINS5_15AnalyticsSampleENS5_5ErrorEEEEES8_EENS_9allocatorISB_EEEEE4__idE, symObjAddr: 0x197F78, symBinAddr: 0x1AD2F8, symSize: 0x0 }
  - { offset: 0x8A84F4, size: 0x8, addend: 0x0, symName: __ZN6twitch13RenderContext10reportTimeERKNSt3__112basic_stringIcNS1_11char_traitsIcEENS1_9allocatorIcEEEERKNS_9MediaTimeESC_, symObjAddr: 0xD1C34, symBinAddr: 0xCDCC0, symSize: 0x914 }
  - { offset: 0x8AC959, size: 0x8, addend: 0x0, symName: __ZNSt3__16vectorINS_4pairINS_8weak_ptrIN6twitch8ReceiverINS3_15AnalyticsSampleENS3_5ErrorEEEEES6_EENS_9allocatorIS9_EEE16__destroy_vectorclB8nn180100Ev, symObjAddr: 0xD28A8, symBinAddr: 0xCE928, symSize: 0x70 }
  - { offset: 0x8ACA9E, size: 0x8, addend: 0x0, symName: __ZN6twitch16MultiSenderErrorINS_15AnalyticsSampleENS_5ErrorEE14receiverErrorsEv, symObjAddr: 0xD2548, symBinAddr: 0xCE5D4, symSize: 0x3C }
  - { offset: 0x8ACB55, size: 0x8, addend: 0x0, symName: __ZNSt3__14pairINS_8weak_ptrIN6twitch8ReceiverINS2_15AnalyticsSampleENS2_5ErrorEEEEES5_EC2B8nn180100EOS8_, symObjAddr: 0xD2584, symBinAddr: 0xCE610, symSize: 0xC8 }
  - { offset: 0x8ACB60, size: 0x8, addend: 0x0, symName: __ZNSt3__14pairINS_8weak_ptrIN6twitch8ReceiverINS2_15AnalyticsSampleENS2_5ErrorEEEEES5_EC2B8nn180100EOS8_, symObjAddr: 0xD2584, symBinAddr: 0xCE610, symSize: 0xC8 }
  - { offset: 0x8AD18C, size: 0x8, addend: 0x0, symName: __ZNSt3__19__any_imp13_SmallHandlerINS_6vectorINS_4pairINS_8weak_ptrIN6twitch8ReceiverINS5_15AnalyticsSampleENS5_5ErrorEEEEES8_EENS_9allocatorISB_EEEEE8__handleB8nn180100ENS0_7_ActionEPKNS_3anyEPSH_PKSt9type_infoPKv, symObjAddr: 0xD2730, symBinAddr: 0xCE7B0, symSize: 0x178 }
  - { offset: 0x8AD78D, size: 0x8, addend: 0x0, symName: __ZNSt3__16vectorINS_4pairINS_8weak_ptrIN6twitch8ReceiverINS3_15AnalyticsSampleENS3_5ErrorEEEEES6_EENS_9allocatorIS9_EEE16__destroy_vectorclB8nn180100Ev, symObjAddr: 0xD28A8, symBinAddr: 0xCE928, symSize: 0x70 }
  - { offset: 0x30F11C, size: 0x8, addend: 0x0, symName: '-[IVSImageSource initWithDescriptor:renderContext:]', symObjAddr: 0x42CC0, symBinAddr: 0x45358, symSize: 0x280 }
  - { offset: 0x31617E, size: 0x8, addend: 0x0, symName: __ZNSt3__112__destroy_atB8nn180100INS_4pairIKNS_12basic_stringIcNS_11char_traitsIcEENS_9allocatorIcEEEENS_10shared_ptrIN6twitch8ReceiverINSA_13PictureSampleENSA_5ErrorEEEEEEELi0EEEvPT_, symObjAddr: 0x441D0, symBinAddr: 0x46810, symSize: 0x3C }
  - { offset: 0x31691D, size: 0x8, addend: 0x0, symName: __ZNSt3__135__uninitialized_allocator_copy_implB8nn180100INS_9allocatorIN6twitch11ConstituentEEEPS3_S5_S5_EET2_RT_T0_T1_S6_, symObjAddr: 0x45758, symBinAddr: 0x47C40, symSize: 0x80 }
  - { offset: 0x316DF4, size: 0x8, addend: 0x0, symName: __ZNSt3__119__allocate_at_leastB8nn180100INS_9allocatorIN6twitch11ConstituentEEEEENS_19__allocation_resultINS_16allocator_traitsIT_E7pointerEEERS7_m, symObjAddr: 0x457D8, symBinAddr: 0x47CC0, symSize: 0x48 }
  - { offset: 0x31889B, size: 0x8, addend: 0x0, symName: __ZN6twitch21dispatchAsyncIfStrongIU8__strongP14IVSImageSourcevEEvPU28objcproto17OS_dispatch_queue8NSObjectRU6__weakKT_U13block_pointerFvS7_E, symObjAddr: 0x444BC, symBinAddr: 0x46AFC, symSize: 0xF0 }
  - { offset: 0x319616, size: 0x8, addend: 0x0, symName: '-[IVSImageSource attachImagePreview:]', symObjAddr: 0x44EEC, symBinAddr: 0x47460, symSize: 0x3D0 }
  - { offset: 0x31A784, size: 0x8, addend: 0x0, symName: '-[IVSImageSource setOnFrameCallback:]', symObjAddr: 0x43C54, symBinAddr: 0x462EC, symSize: 0x2E0 }
  - { offset: 0x31BA49, size: 0x8, addend: 0x0, symName: '-[IVSImageSource initWithDescriptor:renderContext:]', symObjAddr: 0x42CC0, symBinAddr: 0x45358, symSize: 0x280 }
  - { offset: 0x31C269, size: 0x8, addend: 0x0, symName: '-[IVSImageSource descriptor]', symObjAddr: 0x42F40, symBinAddr: 0x455D8, symSize: 0x4 }
  - { offset: 0x31C29E, size: 0x8, addend: 0x0, symName: '-[IVSImageSource sceneChange]', symObjAddr: 0x42F44, symBinAddr: 0x455DC, symSize: 0x10 }
  - { offset: 0x31CA47, size: 0x8, addend: 0x0, symName: '-[IVSImageSource onSampleBuffer:]', symObjAddr: 0x42F54, symBinAddr: 0x455EC, symSize: 0x9A8 }
  - { offset: 0x31FBD8, size: 0x8, addend: 0x0, symName: __ZNSt3__16vectorIN6twitch11ConstituentENS_9allocatorIS2_EEE16__init_with_sizeB8nn180100IPS2_S7_EEvT_T0_m, symObjAddr: 0x45608, symBinAddr: 0x47AF0, symSize: 0x4C }
  - { offset: 0x31FBE3, size: 0x8, addend: 0x0, symName: __ZNSt3__16vectorIN6twitch11ConstituentENS_9allocatorIS2_EEE16__init_with_sizeB8nn180100IPS2_S7_EEvT_T0_m, symObjAddr: 0x45608, symBinAddr: 0x47AF0, symSize: 0x4C }
  - { offset: 0x31FD67, size: 0x8, addend: 0x0, symName: __ZNSt3__16vectorINS_10shared_ptrIN6twitch17ImageFrameMessageEEENS_9allocatorIS4_EEE16__init_with_sizeB8nn180100IPS4_S9_EEvT_T0_m, symObjAddr: 0x45654, symBinAddr: 0x47B3C, symSize: 0x74 }
  - { offset: 0x32004A, size: 0x8, addend: 0x0, symName: '-[IVSImageSource previewViewWithError:]', symObjAddr: 0x438FC, symBinAddr: 0x45F94, symSize: 0x40 }
  - { offset: 0x3200EB, size: 0x8, addend: 0x0, symName: '-[IVSImageSource previewViewWithAspectMode:error:]', symObjAddr: 0x4393C, symBinAddr: 0x45FD4, symSize: 0x104 }
  - { offset: 0x32030B, size: 0x8, addend: 0x0, symName: '-[IVSImageSource createSampleBufferDisplayLayer]', symObjAddr: 0x43A40, symBinAddr: 0x460D8, symSize: 0x50 }
  - { offset: 0x320414, size: 0x8, addend: 0x0, symName: '-[IVSImageSource setHandsetRotation:]', symObjAddr: 0x43A90, symBinAddr: 0x46128, symSize: 0x1C4 }
  - { offset: 0x32198F, size: 0x8, addend: 0x0, symName: __ZNSt3__112__hash_tableINS_17__hash_value_typeINS_12basic_stringIcNS_11char_traitsIcEENS_9allocatorIcEEEENS_10shared_ptrIN6twitch8ReceiverINS9_13PictureSampleENS9_5ErrorEEEEEEENS_22__unordered_map_hasherIS7_SF_NS_4hashIS7_EENS_8equal_toIS7_EELb1EEENS_21__unordered_map_equalIS7_SF_SK_SI_Lb1EEENS5_ISF_EEE14__erase_uniqueIS7_EEmRKT_, symObjAddr: 0x4420C, symBinAddr: 0x4684C, symSize: 0x220 }
  - { offset: 0x321F16, size: 0x8, addend: 0x0, symName: __ZNSt3__112__hash_tableINS_17__hash_value_typeINS_12basic_stringIcNS_11char_traitsIcEENS_9allocatorIcEEEENS_10shared_ptrIN6twitch8ReceiverINS9_13PictureSampleENS9_5ErrorEEEEEEENS_22__unordered_map_hasherIS7_SF_NS_4hashIS7_EENS_8equal_toIS7_EELb1EEENS_21__unordered_map_equalIS7_SF_SK_SI_Lb1EEENS5_ISF_EEE25__emplace_unique_key_argsIS7_JRKNS_21piecewise_construct_tENS_5tupleIJRKS7_EEENSU_IJEEEEEENS_4pairINS_15__hash_iteratorIPNS_11__hash_nodeISF_PvEEEEbEERKT_DpOT0_, symObjAddr: 0x445AC, symBinAddr: 0x46BEC, symSize: 0x448 }
  - { offset: 0x322F8D, size: 0x8, addend: 0x0, symName: '-[IVSImageSource usageCount]', symObjAddr: 0x43F34, symBinAddr: 0x465CC, symSize: 0x38 }
  - { offset: 0x323098, size: 0x8, addend: 0x0, symName: '-[IVSImageSource incrementUsage]', symObjAddr: 0x43F6C, symBinAddr: 0x46604, symSize: 0x48 }
  - { offset: 0x3231A1, size: 0x8, addend: 0x0, symName: '-[IVSImageSource decrementUsage]', symObjAddr: 0x43FB4, symBinAddr: 0x4664C, symSize: 0x44 }
  - { offset: 0x3232AB, size: 0x8, addend: 0x0, symName: '-[IVSImageSource open]', symObjAddr: 0x43FF8, symBinAddr: 0x46690, symSize: 0x4 }
  - { offset: 0x3232DB, size: 0x8, addend: 0x0, symName: '-[IVSImageSource close]', symObjAddr: 0x43FFC, symBinAddr: 0x46694, symSize: 0x4 }
  - { offset: 0x32330B, size: 0x8, addend: 0x0, symName: '-[IVSImageSource errorDelegate]', symObjAddr: 0x44000, symBinAddr: 0x46698, symSize: 0x18 }
  - { offset: 0x323342, size: 0x8, addend: 0x0, symName: '-[IVSImageSource setErrorDelegate:]', symObjAddr: 0x44018, symBinAddr: 0x466B0, symSize: 0xC }
  - { offset: 0x323383, size: 0x8, addend: 0x0, symName: '-[IVSImageSource deviceQueue]', symObjAddr: 0x44024, symBinAddr: 0x466BC, symSize: 0x8 }
  - { offset: 0x3233BA, size: 0x8, addend: 0x0, symName: '-[IVSImageSource deviceDescriptor]', symObjAddr: 0x4402C, symBinAddr: 0x466C4, symSize: 0x8 }
  - { offset: 0x3233F1, size: 0x8, addend: 0x0, symName: '-[IVSImageSource setDeviceDescriptor:]', symObjAddr: 0x44034, symBinAddr: 0x466CC, symSize: 0xC }
  - { offset: 0x323432, size: 0x8, addend: 0x0, symName: '-[IVSImageSource tag]', symObjAddr: 0x44040, symBinAddr: 0x466D8, symSize: 0x8 }
  - { offset: 0x323469, size: 0x8, addend: 0x0, symName: '-[IVSImageSource setTag:]', symObjAddr: 0x44048, symBinAddr: 0x466E0, symSize: 0xC }
  - { offset: 0x3234AA, size: 0x8, addend: 0x0, symName: '-[IVSImageSource hasWarnedAboutBadFormat]', symObjAddr: 0x44054, symBinAddr: 0x466EC, symSize: 0x8 }
  - { offset: 0x3234E1, size: 0x8, addend: 0x0, symName: '-[IVSImageSource setHasWarnedAboutBadFormat:]', symObjAddr: 0x4405C, symBinAddr: 0x466F4, symSize: 0x8 }
  - { offset: 0x32351C, size: 0x8, addend: 0x0, symName: '-[IVSImageSource hasWarnedAboutBadSize]', symObjAddr: 0x44064, symBinAddr: 0x466FC, symSize: 0x8 }
  - { offset: 0x323553, size: 0x8, addend: 0x0, symName: '-[IVSImageSource setHasWarnedAboutBadSize:]', symObjAddr: 0x4406C, symBinAddr: 0x46704, symSize: 0x8 }
  - { offset: 0x32358E, size: 0x8, addend: 0x0, symName: '-[IVSImageSource previewAspect]', symObjAddr: 0x44074, symBinAddr: 0x4670C, symSize: 0x8 }
  - { offset: 0x3235C5, size: 0x8, addend: 0x0, symName: '-[IVSImageSource setPreviewAspect:]', symObjAddr: 0x4407C, symBinAddr: 0x46714, symSize: 0x8 }
  - { offset: 0x323602, size: 0x8, addend: 0x0, symName: '-[IVSImageSource setUsageCount:]', symObjAddr: 0x44084, symBinAddr: 0x4671C, symSize: 0x8 }
  - { offset: 0x32363F, size: 0x8, addend: 0x0, symName: '-[IVSImageSource frameCallback]', symObjAddr: 0x4408C, symBinAddr: 0x46724, symSize: 0xC }
  - { offset: 0x323676, size: 0x8, addend: 0x0, symName: '-[IVSImageSource setFrameCallback:]', symObjAddr: 0x44098, symBinAddr: 0x46730, symSize: 0x8 }
  - { offset: 0x323921, size: 0x8, addend: 0x0, symName: '-[IVSImageSource .cxx_destruct]', symObjAddr: 0x440A0, symBinAddr: 0x46738, symSize: 0xAC }
  - { offset: 0x32424C, size: 0x8, addend: 0x0, symName: '-[IVSImageSource .cxx_construct]', symObjAddr: 0x4414C, symBinAddr: 0x467E4, symSize: 0x2C }
  - { offset: 0x324284, size: 0x8, addend: 0x0, symName: '-[IVSImageSource .cxx_construct]', symObjAddr: 0x4414C, symBinAddr: 0x467E4, symSize: 0x2C }
  - { offset: 0x3242A3, size: 0x8, addend: 0x0, symName: '-[IVSImageSource .cxx_construct]', symObjAddr: 0x4414C, symBinAddr: 0x467E4, symSize: 0x2C }
  - { offset: 0x324A82, size: 0x8, addend: 0x0, symName: __ZNSt3__110unique_ptrINS_11__hash_nodeINS_17__hash_value_typeINS_12basic_stringIcNS_11char_traitsIcEENS_9allocatorIcEEEENS_10shared_ptrIN6twitch8ReceiverINSA_13PictureSampleENSA_5ErrorEEEEEEEPvEENS_22__hash_node_destructorINS6_ISI_EEEEE5resetB8nn180100EPSI_, symObjAddr: 0x44A68, symBinAddr: 0x47034, symSize: 0x44 }
  - { offset: 0x324CC6, size: 0x8, addend: 0x0, symName: '___37-[IVSImageSource setOnFrameCallback:]_block_invoke', symObjAddr: 0x4442C, symBinAddr: 0x46A6C, symSize: 0x90 }
  - { offset: 0x32554C, size: 0x8, addend: 0x0, symName: ____ZN6twitch21dispatchAsyncIfStrongIU8__strongP14IVSImageSourcevEEvPU28objcproto17OS_dispatch_queue8NSObjectRU6__weakKT_U13block_pointerFvS7_E_block_invoke, symObjAddr: 0x44AAC, symBinAddr: 0x47078, symSize: 0x40 }
  - { offset: 0x3255C4, size: 0x8, addend: 0x0, symName: ___copy_helper_block_a8_32c150_ZTSKZN6twitch21dispatchAsyncIfStrongIU8__strongP14IVSImageSourcevEEvPU28objcproto17OS_dispatch_queue8NSObjectRU6__weakKT_U13block_pointerFvS7_EEUlvE_, symObjAddr: 0x44AEC, symBinAddr: 0x470B8, symSize: 0x38 }
  - { offset: 0x325641, size: 0x8, addend: 0x0, symName: ___destroy_helper_block_a8_32c150_ZTSKZN6twitch21dispatchAsyncIfStrongIU8__strongP14IVSImageSourcevEEvPU28objcproto17OS_dispatch_queue8NSObjectRU6__weakKT_U13block_pointerFvS7_EEUlvE_, symObjAddr: 0x44B24, symBinAddr: 0x470F0, symSize: 0x28 }
  - { offset: 0x3256A0, size: 0x8, addend: 0x0, symName: '___copy_helper_block_a8_32c50_ZTSKZ37-[IVSImageSource setOnFrameCallback:]E3$_3', symObjAddr: 0x44B4C, symBinAddr: 0x47118, symSize: 0x24 }
  - { offset: 0x3256C8, size: 0x8, addend: 0x0, symName: '___copy_helper_block_a8_32c50_ZTSKZ37-[IVSImageSource setOnFrameCallback:]E3$_3', symObjAddr: 0x44B4C, symBinAddr: 0x47118, symSize: 0x24 }
  - { offset: 0x3256F0, size: 0x8, addend: 0x0, symName: '___copy_helper_block_a8_32c50_ZTSKZ37-[IVSImageSource setOnFrameCallback:]E3$_3', symObjAddr: 0x44B4C, symBinAddr: 0x47118, symSize: 0x24 }
  - { offset: 0x325719, size: 0x8, addend: 0x0, symName: '___copy_helper_block_a8_32c50_ZTSKZ37-[IVSImageSource setOnFrameCallback:]E3$_3', symObjAddr: 0x44B4C, symBinAddr: 0x47118, symSize: 0x24 }
  - { offset: 0x325742, size: 0x8, addend: 0x0, symName: '___copy_helper_block_a8_32c50_ZTSKZ37-[IVSImageSource setOnFrameCallback:]E3$_3', symObjAddr: 0x44B4C, symBinAddr: 0x47118, symSize: 0x24 }
  - { offset: 0x3257D0, size: 0x8, addend: 0x0, symName: '___destroy_helper_block_a8_32c50_ZTSKZ37-[IVSImageSource setOnFrameCallback:]E3$_3', symObjAddr: 0x44B70, symBinAddr: 0x4713C, symSize: 0x8 }
  - { offset: 0x3258FD, size: 0x8, addend: 0x0, symName: __ZN6twitch10InlineSinkINS_13PictureSampleEE7receiveERKS1_, symObjAddr: 0x44BD0, symBinAddr: 0x47144, symSize: 0x24 }
  - { offset: 0x325997, size: 0x8, addend: 0x0, symName: __ZN6twitch10InlineSinkINS_13PictureSampleEED1Ev, symObjAddr: 0x44BF4, symBinAddr: 0x47168, symSize: 0x5C }
  - { offset: 0x3259C6, size: 0x8, addend: 0x0, symName: __ZN6twitch10InlineSinkINS_13PictureSampleEED1Ev, symObjAddr: 0x44BF4, symBinAddr: 0x47168, symSize: 0x5C }
  - { offset: 0x325AB5, size: 0x8, addend: 0x0, symName: __ZN6twitch10InlineSinkINS_13PictureSampleEED0Ev, symObjAddr: 0x44C50, symBinAddr: 0x471C4, symSize: 0x5C }
  - { offset: 0x325C5F, size: 0x8, addend: 0x0, symName: '__ZNSt3__110__function6__funcIZ37-[IVSImageSource setOnFrameCallback:]E3$_2NS_9allocatorIS2_EEFN6twitch5ErrorERKNS5_13PictureSampleEEED1Ev', symObjAddr: 0x44CAC, symBinAddr: 0x47220, symSize: 0x28 }
  - { offset: 0x325D96, size: 0x8, addend: 0x0, symName: '__ZNSt3__110__function6__funcIZ37-[IVSImageSource setOnFrameCallback:]E3$_2NS_9allocatorIS2_EEFN6twitch5ErrorERKNS5_13PictureSampleEEED0Ev', symObjAddr: 0x44CD4, symBinAddr: 0x47248, symSize: 0x28 }
  - { offset: 0x326117, size: 0x8, addend: 0x0, symName: '__ZNKSt3__110__function6__funcIZ37-[IVSImageSource setOnFrameCallback:]E3$_2NS_9allocatorIS2_EEFN6twitch5ErrorERKNS5_13PictureSampleEEE7__cloneEv', symObjAddr: 0x44CFC, symBinAddr: 0x47270, symSize: 0x40 }
  - { offset: 0x3264B3, size: 0x8, addend: 0x0, symName: '__ZNKSt3__110__function6__funcIZ37-[IVSImageSource setOnFrameCallback:]E3$_2NS_9allocatorIS2_EEFN6twitch5ErrorERKNS5_13PictureSampleEEE7__cloneEPNS0_6__baseISA_EE', symObjAddr: 0x44D3C, symBinAddr: 0x472B0, symSize: 0x1C }
  - { offset: 0x326699, size: 0x8, addend: 0x0, symName: '__ZNSt3__110__function6__funcIZ37-[IVSImageSource setOnFrameCallback:]E3$_2NS_9allocatorIS2_EEFN6twitch5ErrorERKNS5_13PictureSampleEEE7destroyEv', symObjAddr: 0x44D58, symBinAddr: 0x472CC, symSize: 0x8 }
  - { offset: 0x3267AC, size: 0x8, addend: 0x0, symName: '__ZNSt3__110__function6__funcIZ37-[IVSImageSource setOnFrameCallback:]E3$_2NS_9allocatorIS2_EEFN6twitch5ErrorERKNS5_13PictureSampleEEE18destroy_deallocateEv', symObjAddr: 0x44D60, symBinAddr: 0x472D4, symSize: 0x28 }
  - { offset: 0x326ABF, size: 0x8, addend: 0x0, symName: '__ZNSt3__110__function6__funcIZ37-[IVSImageSource setOnFrameCallback:]E3$_2NS_9allocatorIS2_EEFN6twitch5ErrorERKNS5_13PictureSampleEEEclES9_', symObjAddr: 0x44D88, symBinAddr: 0x472FC, symSize: 0xB4 }
  - { offset: 0x326C86, size: 0x8, addend: 0x0, symName: '____ZZ37-[IVSImageSource setOnFrameCallback:]ENK3$_2clERKN6twitch13PictureSampleE_block_invoke', symObjAddr: 0x44E3C, symBinAddr: 0x473B0, symSize: 0x40 }
  - { offset: 0x326D14, size: 0x8, addend: 0x0, symName: '___copy_helper_block_a8_32c104_ZTSKZZ37-[IVSImageSource setOnFrameCallback:]ENK3$_2clERKN6twitch13PictureSampleEEUlP14IVSImageSourceE_', symObjAddr: 0x44E7C, symBinAddr: 0x473F0, symSize: 0x28 }
  - { offset: 0x326D90, size: 0x8, addend: 0x0, symName: '___destroy_helper_block_a8_32c104_ZTSKZZ37-[IVSImageSource setOnFrameCallback:]ENK3$_2clERKN6twitch13PictureSampleEEUlP14IVSImageSourceE_', symObjAddr: 0x44EA4, symBinAddr: 0x47418, symSize: 0x8 }
  - { offset: 0x326DB2, size: 0x8, addend: 0x0, symName: '___destroy_helper_block_a8_32c104_ZTSKZZ37-[IVSImageSource setOnFrameCallback:]ENK3$_2clERKN6twitch13PictureSampleEEUlP14IVSImageSourceE_', symObjAddr: 0x44EA4, symBinAddr: 0x47418, symSize: 0x8 }
  - { offset: 0x326DD0, size: 0x8, addend: 0x0, symName: '___destroy_helper_block_a8_32c104_ZTSKZZ37-[IVSImageSource setOnFrameCallback:]ENK3$_2clERKN6twitch13PictureSampleEEUlP14IVSImageSourceE_', symObjAddr: 0x44EA4, symBinAddr: 0x47418, symSize: 0x8 }
  - { offset: 0x326E0B, size: 0x8, addend: 0x0, symName: __ZNSt3__120__shared_ptr_emplaceIN6twitch10InlineSinkINS1_13PictureSampleEEENS_9allocatorIS4_EEED1Ev, symObjAddr: 0x44EAC, symBinAddr: 0x47420, symSize: 0x10 }
  - { offset: 0x326E2F, size: 0x8, addend: 0x0, symName: __ZNSt3__120__shared_ptr_emplaceIN6twitch10InlineSinkINS1_13PictureSampleEEENS_9allocatorIS4_EEED1Ev, symObjAddr: 0x44EAC, symBinAddr: 0x47420, symSize: 0x10 }
  - { offset: 0x326E68, size: 0x8, addend: 0x0, symName: __ZNSt3__120__shared_ptr_emplaceIN6twitch10InlineSinkINS1_13PictureSampleEEENS_9allocatorIS4_EEED0Ev, symObjAddr: 0x44EBC, symBinAddr: 0x47430, symSize: 0x20 }
  - { offset: 0x326F3D, size: 0x8, addend: 0x0, symName: __ZNSt3__120__shared_ptr_emplaceIN6twitch10InlineSinkINS1_13PictureSampleEEENS_9allocatorIS4_EEE16__on_zero_sharedEv, symObjAddr: 0x44EDC, symBinAddr: 0x47450, symSize: 0xC }
  - { offset: 0x326F67, size: 0x8, addend: 0x0, symName: __ZNSt3__120__shared_ptr_emplaceIN6twitch10InlineSinkINS1_13PictureSampleEEENS_9allocatorIS4_EEE16__on_zero_sharedEv, symObjAddr: 0x44EDC, symBinAddr: 0x47450, symSize: 0xC }
  - { offset: 0x326F88, size: 0x8, addend: 0x0, symName: __ZNSt3__120__shared_ptr_emplaceIN6twitch10InlineSinkINS1_13PictureSampleEEENS_9allocatorIS4_EEE16__on_zero_sharedEv, symObjAddr: 0x44EDC, symBinAddr: 0x47450, symSize: 0xC }
  - { offset: 0x326FA9, size: 0x8, addend: 0x0, symName: __ZNSt3__120__shared_ptr_emplaceIN6twitch10InlineSinkINS1_13PictureSampleEEENS_9allocatorIS4_EEE16__on_zero_sharedEv, symObjAddr: 0x44EDC, symBinAddr: 0x47450, symSize: 0xC }
  - { offset: 0x327038, size: 0x8, addend: 0x0, symName: __ZNSt3__120__shared_ptr_emplaceIN6twitch10InlineSinkINS1_13PictureSampleEEENS_9allocatorIS4_EEE21__on_zero_shared_weakEv, symObjAddr: 0x44EE8, symBinAddr: 0x4745C, symSize: 0x4 }
  - { offset: 0x32706E, size: 0x8, addend: 0x0, symName: __ZNSt3__120__shared_ptr_emplaceIN6twitch10InlineSinkINS1_13PictureSampleEEENS_9allocatorIS4_EEE21__on_zero_shared_weakEv, symObjAddr: 0x44EE8, symBinAddr: 0x4745C, symSize: 0x4 }
  - { offset: 0x327094, size: 0x8, addend: 0x0, symName: __ZNSt3__120__shared_ptr_emplaceIN6twitch10InlineSinkINS1_13PictureSampleEEENS_9allocatorIS4_EEE21__on_zero_shared_weakEv, symObjAddr: 0x44EE8, symBinAddr: 0x4745C, symSize: 0x4 }
  - { offset: 0x3270BA, size: 0x8, addend: 0x0, symName: __ZNSt3__120__shared_ptr_emplaceIN6twitch10InlineSinkINS1_13PictureSampleEEENS_9allocatorIS4_EEE21__on_zero_shared_weakEv, symObjAddr: 0x44EE8, symBinAddr: 0x4745C, symSize: 0x4 }
  - { offset: 0x3270EA, size: 0x8, addend: 0x0, symName: __ZNSt3__120__shared_ptr_emplaceIN6twitch10InlineSinkINS1_13PictureSampleEEENS_9allocatorIS4_EEE21__on_zero_shared_weakEv, symObjAddr: 0x44EE8, symBinAddr: 0x4745C, symSize: 0x4 }
  - { offset: 0x327114, size: 0x8, addend: 0x0, symName: __ZNSt3__120__shared_ptr_emplaceIN6twitch10InlineSinkINS1_13PictureSampleEEENS_9allocatorIS4_EEE21__on_zero_shared_weakEv, symObjAddr: 0x44EE8, symBinAddr: 0x4745C, symSize: 0x4 }
  - { offset: 0x327675, size: 0x8, addend: 0x0, symName: '___37-[IVSImageSource attachImagePreview:]_block_invoke', symObjAddr: 0x452BC, symBinAddr: 0x47830, symSize: 0x44 }
  - { offset: 0x327739, size: 0x8, addend: 0x0, symName: '___37-[IVSImageSource attachImagePreview:]_block_invoke.6', symObjAddr: 0x45300, symBinAddr: 0x47874, symSize: 0x90 }
  - { offset: 0x327932, size: 0x8, addend: 0x0, symName: '___copy_helper_block_a8_32c50_ZTSKZ37-[IVSImageSource attachImagePreview:]E3$_1', symObjAddr: 0x45390, symBinAddr: 0x47904, symSize: 0x24 }
  - { offset: 0x32795A, size: 0x8, addend: 0x0, symName: '___copy_helper_block_a8_32c50_ZTSKZ37-[IVSImageSource attachImagePreview:]E3$_1', symObjAddr: 0x45390, symBinAddr: 0x47904, symSize: 0x24 }
  - { offset: 0x327982, size: 0x8, addend: 0x0, symName: '___copy_helper_block_a8_32c50_ZTSKZ37-[IVSImageSource attachImagePreview:]E3$_1', symObjAddr: 0x45390, symBinAddr: 0x47904, symSize: 0x24 }
  - { offset: 0x3279AB, size: 0x8, addend: 0x0, symName: '___copy_helper_block_a8_32c50_ZTSKZ37-[IVSImageSource attachImagePreview:]E3$_1', symObjAddr: 0x45390, symBinAddr: 0x47904, symSize: 0x24 }
  - { offset: 0x3279D4, size: 0x8, addend: 0x0, symName: '___copy_helper_block_a8_32c50_ZTSKZ37-[IVSImageSource attachImagePreview:]E3$_1', symObjAddr: 0x45390, symBinAddr: 0x47904, symSize: 0x24 }
  - { offset: 0x327A62, size: 0x8, addend: 0x0, symName: '___destroy_helper_block_a8_32c50_ZTSKZ37-[IVSImageSource attachImagePreview:]E3$_1', symObjAddr: 0x453B4, symBinAddr: 0x47928, symSize: 0x8 }
  - { offset: 0x327B96, size: 0x8, addend: 0x0, symName: '__ZNSt3__110__function6__funcIZ37-[IVSImageSource attachImagePreview:]E3$_0NS_9allocatorIS2_EEFN6twitch5ErrorERKNS5_13PictureSampleEEED1Ev', symObjAddr: 0x453BC, symBinAddr: 0x47930, symSize: 0x28 }
  - { offset: 0x327CCD, size: 0x8, addend: 0x0, symName: '__ZNSt3__110__function6__funcIZ37-[IVSImageSource attachImagePreview:]E3$_0NS_9allocatorIS2_EEFN6twitch5ErrorERKNS5_13PictureSampleEEED0Ev', symObjAddr: 0x453E4, symBinAddr: 0x47958, symSize: 0x28 }
  - { offset: 0x32804E, size: 0x8, addend: 0x0, symName: '__ZNKSt3__110__function6__funcIZ37-[IVSImageSource attachImagePreview:]E3$_0NS_9allocatorIS2_EEFN6twitch5ErrorERKNS5_13PictureSampleEEE7__cloneEv', symObjAddr: 0x4540C, symBinAddr: 0x47980, symSize: 0x40 }
  - { offset: 0x3283EA, size: 0x8, addend: 0x0, symName: '__ZNKSt3__110__function6__funcIZ37-[IVSImageSource attachImagePreview:]E3$_0NS_9allocatorIS2_EEFN6twitch5ErrorERKNS5_13PictureSampleEEE7__cloneEPNS0_6__baseISA_EE', symObjAddr: 0x4544C, symBinAddr: 0x479C0, symSize: 0x1C }
  - { offset: 0x3285D0, size: 0x8, addend: 0x0, symName: '__ZNSt3__110__function6__funcIZ37-[IVSImageSource attachImagePreview:]E3$_0NS_9allocatorIS2_EEFN6twitch5ErrorERKNS5_13PictureSampleEEE7destroyEv', symObjAddr: 0x45468, symBinAddr: 0x479DC, symSize: 0x8 }
  - { offset: 0x3286E3, size: 0x8, addend: 0x0, symName: '__ZNSt3__110__function6__funcIZ37-[IVSImageSource attachImagePreview:]E3$_0NS_9allocatorIS2_EEFN6twitch5ErrorERKNS5_13PictureSampleEEE18destroy_deallocateEv', symObjAddr: 0x45470, symBinAddr: 0x479E4, symSize: 0x28 }
  - { offset: 0x328920, size: 0x8, addend: 0x0, symName: '__ZNSt3__110__function6__funcIZ37-[IVSImageSource attachImagePreview:]E3$_0NS_9allocatorIS2_EEFN6twitch5ErrorERKNS5_13PictureSampleEEEclES9_', symObjAddr: 0x45498, symBinAddr: 0x47A0C, symSize: 0x58 }
  - { offset: 0x328A2B, size: 0x8, addend: 0x0, symName: ___copy_helper_block_a8_32w40c67_ZTSKNSt3__112basic_stringIcNS_11char_traitsIcEENS_9allocatorIcEEEE, symObjAddr: 0x454F0, symBinAddr: 0x47A64, symSize: 0x5C }
  - { offset: 0x328ACE, size: 0x8, addend: 0x0, symName: ___destroy_helper_block_a8_32w40c67_ZTSKNSt3__112basic_stringIcNS_11char_traitsIcEENS_9allocatorIcEEEE, symObjAddr: 0x4554C, symBinAddr: 0x47AC0, symSize: 0x30 }
  - { offset: 0x328E0E, size: 0x8, addend: 0x0, symName: __ZNSt3__16vectorIN6twitch11ConstituentENS_9allocatorIS2_EEE11__vallocateB8nn180100Em, symObjAddr: 0x45708, symBinAddr: 0x47BF0, symSize: 0x50 }
  - { offset: 0x328E95, size: 0x8, addend: 0x0, symName: __ZNSt3__135__uninitialized_allocator_copy_implB8nn180100INS_9allocatorIN6twitch11ConstituentEEEPS3_S5_S5_EET2_RT_T0_T1_S6_, symObjAddr: 0x45758, symBinAddr: 0x47C40, symSize: 0x80 }
  - { offset: 0x329052, size: 0x8, addend: 0x0, symName: __ZNSt3__16vectorINS_10shared_ptrIN6twitch17ImageFrameMessageEEENS_9allocatorIS4_EEE11__vallocateB8nn180100Em, symObjAddr: 0x456C8, symBinAddr: 0x47BB0, symSize: 0x40 }
  - { offset: 0x32914F, size: 0x8, addend: 0x0, symName: __ZNSt3__16vectorIN6twitch11ConstituentENS_9allocatorIS2_EEE11__vallocateB8nn180100Em, symObjAddr: 0x45708, symBinAddr: 0x47BF0, symSize: 0x50 }
  - { offset: 0x3292EB, size: 0x8, addend: 0x0, symName: __ZNSt3__120__shared_ptr_emplaceIN6twitch3ios11ImageSenderENS_9allocatorIS3_EEED1Ev, symObjAddr: 0x45884, symBinAddr: 0x47D08, symSize: 0x10 }
  - { offset: 0x32930F, size: 0x8, addend: 0x0, symName: __ZNSt3__120__shared_ptr_emplaceIN6twitch3ios11ImageSenderENS_9allocatorIS3_EEED1Ev, symObjAddr: 0x45884, symBinAddr: 0x47D08, symSize: 0x10 }
  - { offset: 0x329348, size: 0x8, addend: 0x0, symName: __ZNSt3__120__shared_ptr_emplaceIN6twitch3ios11ImageSenderENS_9allocatorIS3_EEED0Ev, symObjAddr: 0x45894, symBinAddr: 0x47D18, symSize: 0x20 }
  - { offset: 0x32941D, size: 0x8, addend: 0x0, symName: __ZNSt3__120__shared_ptr_emplaceIN6twitch3ios11ImageSenderENS_9allocatorIS3_EEE16__on_zero_sharedEv, symObjAddr: 0x458B4, symBinAddr: 0x47D38, symSize: 0xC }
  - { offset: 0x329447, size: 0x8, addend: 0x0, symName: __ZNSt3__120__shared_ptr_emplaceIN6twitch3ios11ImageSenderENS_9allocatorIS3_EEE16__on_zero_sharedEv, symObjAddr: 0x458B4, symBinAddr: 0x47D38, symSize: 0xC }
  - { offset: 0x329468, size: 0x8, addend: 0x0, symName: __ZNSt3__120__shared_ptr_emplaceIN6twitch3ios11ImageSenderENS_9allocatorIS3_EEE16__on_zero_sharedEv, symObjAddr: 0x458B4, symBinAddr: 0x47D38, symSize: 0xC }
  - { offset: 0x329489, size: 0x8, addend: 0x0, symName: __ZNSt3__120__shared_ptr_emplaceIN6twitch3ios11ImageSenderENS_9allocatorIS3_EEE16__on_zero_sharedEv, symObjAddr: 0x458B4, symBinAddr: 0x47D38, symSize: 0xC }
  - { offset: 0x329518, size: 0x8, addend: 0x0, symName: __ZNSt3__120__shared_ptr_emplaceIN6twitch3ios11ImageSenderENS_9allocatorIS3_EEE21__on_zero_shared_weakEv, symObjAddr: 0x458C0, symBinAddr: 0x47D44, symSize: 0x4 }
  - { offset: 0x32954E, size: 0x8, addend: 0x0, symName: __ZNSt3__120__shared_ptr_emplaceIN6twitch3ios11ImageSenderENS_9allocatorIS3_EEE21__on_zero_shared_weakEv, symObjAddr: 0x458C0, symBinAddr: 0x47D44, symSize: 0x4 }
  - { offset: 0x329574, size: 0x8, addend: 0x0, symName: __ZNSt3__120__shared_ptr_emplaceIN6twitch3ios11ImageSenderENS_9allocatorIS3_EEE21__on_zero_shared_weakEv, symObjAddr: 0x458C0, symBinAddr: 0x47D44, symSize: 0x4 }
  - { offset: 0x32959A, size: 0x8, addend: 0x0, symName: __ZNSt3__120__shared_ptr_emplaceIN6twitch3ios11ImageSenderENS_9allocatorIS3_EEE21__on_zero_shared_weakEv, symObjAddr: 0x458C0, symBinAddr: 0x47D44, symSize: 0x4 }
  - { offset: 0x3295CC, size: 0x8, addend: 0x0, symName: __ZNSt3__120__shared_ptr_emplaceIN6twitch3ios11ImageSenderENS_9allocatorIS3_EEE21__on_zero_shared_weakEv, symObjAddr: 0x458C0, symBinAddr: 0x47D44, symSize: 0x4 }
  - { offset: 0x3295F8, size: 0x8, addend: 0x0, symName: __ZNSt3__120__shared_ptr_emplaceIN6twitch3ios11ImageSenderENS_9allocatorIS3_EEE21__on_zero_shared_weakEv, symObjAddr: 0x458C0, symBinAddr: 0x47D44, symSize: 0x4 }
  - { offset: 0x329626, size: 0x8, addend: 0x0, symName: '+[IVSImageSource supportedPixelFormats]', symObjAddr: 0x458C4, symBinAddr: 0x47D48, symSize: 0x208 }
  - { offset: 0x88059E, size: 0x8, addend: 0x0, symName: __ZN6twitch19PerformancePipelineD1Ev, symObjAddr: 0xCEA88, symBinAddr: 0xCB1BC, symSize: 0x4 }
  - { offset: 0x887F3A, size: 0x8, addend: 0x0, symName: __ZN6twitch19PerformancePipeline13setupInternalEv, symObjAddr: 0xCEB50, symBinAddr: 0xCB284, symSize: 0x188 }
  - { offset: 0x888D62, size: 0x8, addend: 0x0, symName: __ZN6twitch19PerformancePipeline19logPerformanceEventERKNSt3__16chrono10time_pointINS2_12steady_clockENS2_8durationIxNS1_5ratioILl1ELl1000000000EEEEEEENS5_IxNS6_ILl1ELl1EEEEE, symObjAddr: 0xCEFC0, symBinAddr: 0xCB6F4, symSize: 0xAE4 }
  - { offset: 0x88F5B0, size: 0x8, addend: 0x0, symName: __ZN6twitch19PerformancePipelineD1Ev, symObjAddr: 0xCEA88, symBinAddr: 0xCB1BC, symSize: 0x4 }
  - { offset: 0x88F5D4, size: 0x8, addend: 0x0, symName: __ZN6twitch19PerformancePipelineD1Ev, symObjAddr: 0xCEA88, symBinAddr: 0xCB1BC, symSize: 0x4 }
  - { offset: 0x88F5FB, size: 0x8, addend: 0x0, symName: __ZN6twitch19PerformancePipelineD0Ev, symObjAddr: 0xCEA8C, symBinAddr: 0xCB1C0, symSize: 0x14 }
  - { offset: 0x88F648, size: 0x8, addend: 0x0, symName: __ZN6twitch19PerformancePipeline16teardownInternalEv, symObjAddr: 0xCEAA0, symBinAddr: 0xCB1D4, symSize: 0xB0 }
  - { offset: 0x88FF43, size: 0x8, addend: 0x0, symName: __ZThn152_N6twitch19PerformancePipelineD1Ev, symObjAddr: 0xCECD8, symBinAddr: 0xCB40C, symSize: 0x8 }
  - { offset: 0x88FF9F, size: 0x8, addend: 0x0, symName: __ZThn152_N6twitch19PerformancePipelineD0Ev, symObjAddr: 0xCECE0, symBinAddr: 0xCB414, symSize: 0x18 }
  - { offset: 0x88FFFF, size: 0x8, addend: 0x0, symName: '__ZNSt3__110__function6__funcIZN6twitch19PerformancePipeline13setupInternalEvE3$_0NS_9allocatorIS4_EEFNS2_5ErrorERKNS2_20BroadcastStateSampleEEED1Ev', symObjAddr: 0xCECF8, symBinAddr: 0xCB42C, symSize: 0x4 }
  - { offset: 0x89002A, size: 0x8, addend: 0x0, symName: '__ZNSt3__110__function6__funcIZN6twitch19PerformancePipeline13setupInternalEvE3$_0NS_9allocatorIS4_EEFNS2_5ErrorERKNS2_20BroadcastStateSampleEEED0Ev', symObjAddr: 0xCECFC, symBinAddr: 0xCB430, symSize: 0x4 }
  - { offset: 0x8901F1, size: 0x8, addend: 0x0, symName: '__ZNKSt3__110__function6__funcIZN6twitch19PerformancePipeline13setupInternalEvE3$_0NS_9allocatorIS4_EEFNS2_5ErrorERKNS2_20BroadcastStateSampleEEE7__cloneEv', symObjAddr: 0xCED00, symBinAddr: 0xCB434, symSize: 0x34 }
  - { offset: 0x890398, size: 0x8, addend: 0x0, symName: '__ZNKSt3__110__function6__funcIZN6twitch19PerformancePipeline13setupInternalEvE3$_0NS_9allocatorIS4_EEFNS2_5ErrorERKNS2_20BroadcastStateSampleEEE7__cloneEPNS0_6__baseISB_EE', symObjAddr: 0xCED34, symBinAddr: 0xCB468, symSize: 0x14 }
  - { offset: 0x8903C4, size: 0x8, addend: 0x0, symName: '__ZNKSt3__110__function6__funcIZN6twitch19PerformancePipeline13setupInternalEvE3$_0NS_9allocatorIS4_EEFNS2_5ErrorERKNS2_20BroadcastStateSampleEEE7__cloneEPNS0_6__baseISB_EE', symObjAddr: 0xCED34, symBinAddr: 0xCB468, symSize: 0x14 }
  - { offset: 0x8903F6, size: 0x8, addend: 0x0, symName: '__ZNKSt3__110__function6__funcIZN6twitch19PerformancePipeline13setupInternalEvE3$_0NS_9allocatorIS4_EEFNS2_5ErrorERKNS2_20BroadcastStateSampleEEE7__cloneEPNS0_6__baseISB_EE', symObjAddr: 0xCED34, symBinAddr: 0xCB468, symSize: 0x14 }
  - { offset: 0x890428, size: 0x8, addend: 0x0, symName: '__ZNKSt3__110__function6__funcIZN6twitch19PerformancePipeline13setupInternalEvE3$_0NS_9allocatorIS4_EEFNS2_5ErrorERKNS2_20BroadcastStateSampleEEE7__cloneEPNS0_6__baseISB_EE', symObjAddr: 0xCED34, symBinAddr: 0xCB468, symSize: 0x14 }
  - { offset: 0x89043E, size: 0x8, addend: 0x0, symName: '__ZNKSt3__110__function6__funcIZN6twitch19PerformancePipeline13setupInternalEvE3$_0NS_9allocatorIS4_EEFNS2_5ErrorERKNS2_20BroadcastStateSampleEEE7__cloneEPNS0_6__baseISB_EE', symObjAddr: 0xCED34, symBinAddr: 0xCB468, symSize: 0x14 }
  - { offset: 0x890453, size: 0x8, addend: 0x0, symName: '__ZNKSt3__110__function6__funcIZN6twitch19PerformancePipeline13setupInternalEvE3$_0NS_9allocatorIS4_EEFNS2_5ErrorERKNS2_20BroadcastStateSampleEEE7__cloneEPNS0_6__baseISB_EE', symObjAddr: 0xCED34, symBinAddr: 0xCB468, symSize: 0x14 }
  - { offset: 0x890468, size: 0x8, addend: 0x0, symName: '__ZNKSt3__110__function6__funcIZN6twitch19PerformancePipeline13setupInternalEvE3$_0NS_9allocatorIS4_EEFNS2_5ErrorERKNS2_20BroadcastStateSampleEEE7__cloneEPNS0_6__baseISB_EE', symObjAddr: 0xCED34, symBinAddr: 0xCB468, symSize: 0x14 }
  - { offset: 0x89047D, size: 0x8, addend: 0x0, symName: '__ZNKSt3__110__function6__funcIZN6twitch19PerformancePipeline13setupInternalEvE3$_0NS_9allocatorIS4_EEFNS2_5ErrorERKNS2_20BroadcastStateSampleEEE7__cloneEPNS0_6__baseISB_EE', symObjAddr: 0xCED34, symBinAddr: 0xCB468, symSize: 0x14 }
  - { offset: 0x890495, size: 0x8, addend: 0x0, symName: '__ZNSt3__110__function6__funcIZN6twitch19PerformancePipeline13setupInternalEvE3$_0NS_9allocatorIS4_EEFNS2_5ErrorERKNS2_20BroadcastStateSampleEEE7destroyEv', symObjAddr: 0xCED48, symBinAddr: 0xCB47C, symSize: 0x4 }
  - { offset: 0x8904E8, size: 0x8, addend: 0x0, symName: '__ZNSt3__110__function6__funcIZN6twitch19PerformancePipeline13setupInternalEvE3$_0NS_9allocatorIS4_EEFNS2_5ErrorERKNS2_20BroadcastStateSampleEEE18destroy_deallocateEv', symObjAddr: 0xCED4C, symBinAddr: 0xCB480, symSize: 0x4 }
  - { offset: 0x89051F, size: 0x8, addend: 0x0, symName: '__ZNSt3__110__function6__funcIZN6twitch19PerformancePipeline13setupInternalEvE3$_0NS_9allocatorIS4_EEFNS2_5ErrorERKNS2_20BroadcastStateSampleEEE18destroy_deallocateEv', symObjAddr: 0xCED4C, symBinAddr: 0xCB480, symSize: 0x4 }
  - { offset: 0x890544, size: 0x8, addend: 0x0, symName: '__ZNSt3__110__function6__funcIZN6twitch19PerformancePipeline13setupInternalEvE3$_0NS_9allocatorIS4_EEFNS2_5ErrorERKNS2_20BroadcastStateSampleEEE18destroy_deallocateEv', symObjAddr: 0xCED4C, symBinAddr: 0xCB480, symSize: 0x4 }
  - { offset: 0x890573, size: 0x8, addend: 0x0, symName: '__ZNSt3__110__function6__funcIZN6twitch19PerformancePipeline13setupInternalEvE3$_0NS_9allocatorIS4_EEFNS2_5ErrorERKNS2_20BroadcastStateSampleEEE18destroy_deallocateEv', symObjAddr: 0xCED4C, symBinAddr: 0xCB480, symSize: 0x4 }
  - { offset: 0x89059C, size: 0x8, addend: 0x0, symName: '__ZNSt3__110__function6__funcIZN6twitch19PerformancePipeline13setupInternalEvE3$_0NS_9allocatorIS4_EEFNS2_5ErrorERKNS2_20BroadcastStateSampleEEE18destroy_deallocateEv', symObjAddr: 0xCED4C, symBinAddr: 0xCB480, symSize: 0x4 }
  - { offset: 0x8909BA, size: 0x8, addend: 0x0, symName: '__ZNSt3__110__function6__funcIZN6twitch19PerformancePipeline13setupInternalEvE3$_0NS_9allocatorIS4_EEFNS2_5ErrorERKNS2_20BroadcastStateSampleEEEclESA_', symObjAddr: 0xCED50, symBinAddr: 0xCB484, symSize: 0x1FC }
  - { offset: 0x8911FB, size: 0x8, addend: 0x0, symName: '__ZNSt3__110__function6__funcIZN6twitch19PerformancePipeline22onBroadcastStateSampleERKNS2_20BroadcastStateSampleEE3$_0NS_9allocatorIS7_EEFvvEED1Ev', symObjAddr: 0xCEF4C, symBinAddr: 0xCB680, symSize: 0x4 }
  - { offset: 0x891226, size: 0x8, addend: 0x0, symName: '__ZNSt3__110__function6__funcIZN6twitch19PerformancePipeline22onBroadcastStateSampleERKNS2_20BroadcastStateSampleEE3$_0NS_9allocatorIS7_EEFvvEED0Ev', symObjAddr: 0xCEF50, symBinAddr: 0xCB684, symSize: 0x4 }
  - { offset: 0x89143A, size: 0x8, addend: 0x0, symName: '__ZNKSt3__110__function6__funcIZN6twitch19PerformancePipeline22onBroadcastStateSampleERKNS2_20BroadcastStateSampleEE3$_0NS_9allocatorIS7_EEFvvEE7__cloneEv', symObjAddr: 0xCEF54, symBinAddr: 0xCB688, symSize: 0x38 }
  - { offset: 0x891787, size: 0x8, addend: 0x0, symName: '__ZNKSt3__110__function6__funcIZN6twitch19PerformancePipeline22onBroadcastStateSampleERKNS2_20BroadcastStateSampleEE3$_0NS_9allocatorIS7_EEFvvEE7__cloneEPNS0_6__baseISA_EE', symObjAddr: 0xCEF8C, symBinAddr: 0xCB6C0, symSize: 0x18 }
  - { offset: 0x8917C0, size: 0x8, addend: 0x0, symName: '__ZNKSt3__110__function6__funcIZN6twitch19PerformancePipeline22onBroadcastStateSampleERKNS2_20BroadcastStateSampleEE3$_0NS_9allocatorIS7_EEFvvEE7__cloneEPNS0_6__baseISA_EE', symObjAddr: 0xCEF8C, symBinAddr: 0xCB6C0, symSize: 0x18 }
  - { offset: 0x8917F2, size: 0x8, addend: 0x0, symName: '__ZNKSt3__110__function6__funcIZN6twitch19PerformancePipeline22onBroadcastStateSampleERKNS2_20BroadcastStateSampleEE3$_0NS_9allocatorIS7_EEFvvEE7__cloneEPNS0_6__baseISA_EE', symObjAddr: 0xCEF8C, symBinAddr: 0xCB6C0, symSize: 0x18 }
  - { offset: 0x89191E, size: 0x8, addend: 0x0, symName: '__ZNSt3__110__function6__funcIZN6twitch19PerformancePipeline22onBroadcastStateSampleERKNS2_20BroadcastStateSampleEE3$_0NS_9allocatorIS7_EEFvvEE7destroyEv', symObjAddr: 0xCEFA4, symBinAddr: 0xCB6D8, symSize: 0x4 }
  - { offset: 0x891971, size: 0x8, addend: 0x0, symName: '__ZNSt3__110__function6__funcIZN6twitch19PerformancePipeline22onBroadcastStateSampleERKNS2_20BroadcastStateSampleEE3$_0NS_9allocatorIS7_EEFvvEE18destroy_deallocateEv', symObjAddr: 0xCEFA8, symBinAddr: 0xCB6DC, symSize: 0x4 }
  - { offset: 0x8919A8, size: 0x8, addend: 0x0, symName: '__ZNSt3__110__function6__funcIZN6twitch19PerformancePipeline22onBroadcastStateSampleERKNS2_20BroadcastStateSampleEE3$_0NS_9allocatorIS7_EEFvvEE18destroy_deallocateEv', symObjAddr: 0xCEFA8, symBinAddr: 0xCB6DC, symSize: 0x4 }
  - { offset: 0x8919CD, size: 0x8, addend: 0x0, symName: '__ZNSt3__110__function6__funcIZN6twitch19PerformancePipeline22onBroadcastStateSampleERKNS2_20BroadcastStateSampleEE3$_0NS_9allocatorIS7_EEFvvEE18destroy_deallocateEv', symObjAddr: 0xCEFA8, symBinAddr: 0xCB6DC, symSize: 0x4 }
  - { offset: 0x8919FC, size: 0x8, addend: 0x0, symName: '__ZNSt3__110__function6__funcIZN6twitch19PerformancePipeline22onBroadcastStateSampleERKNS2_20BroadcastStateSampleEE3$_0NS_9allocatorIS7_EEFvvEE18destroy_deallocateEv', symObjAddr: 0xCEFA8, symBinAddr: 0xCB6DC, symSize: 0x4 }
  - { offset: 0x891A25, size: 0x8, addend: 0x0, symName: '__ZNSt3__110__function6__funcIZN6twitch19PerformancePipeline22onBroadcastStateSampleERKNS2_20BroadcastStateSampleEE3$_0NS_9allocatorIS7_EEFvvEE18destroy_deallocateEv', symObjAddr: 0xCEFA8, symBinAddr: 0xCB6DC, symSize: 0x4 }
  - { offset: 0x891AAD, size: 0x8, addend: 0x0, symName: '__ZNSt3__110__function6__funcIZN6twitch19PerformancePipeline22onBroadcastStateSampleERKNS2_20BroadcastStateSampleEE3$_0NS_9allocatorIS7_EEFvvEEclEv', symObjAddr: 0xCEFAC, symBinAddr: 0xCB6E0, symSize: 0x14 }
  - { offset: 0x892330, size: 0x8, addend: 0x0, symName: '__ZNSt3__110__function6__funcIZN6twitch19PerformancePipeline19logPerformanceEventERKNS_6chrono10time_pointINS4_12steady_clockENS4_8durationIxNS_5ratioILl1ELl1000000000EEEEEEENS7_IxNS8_ILl1ELl1EEEEEE3$_0NS_9allocatorISG_EEFvvEED1Ev', symObjAddr: 0xCFAA4, symBinAddr: 0xCC1D8, symSize: 0x4 }
  - { offset: 0x89235B, size: 0x8, addend: 0x0, symName: '__ZNSt3__110__function6__funcIZN6twitch19PerformancePipeline19logPerformanceEventERKNS_6chrono10time_pointINS4_12steady_clockENS4_8durationIxNS_5ratioILl1ELl1000000000EEEEEEENS7_IxNS8_ILl1ELl1EEEEEE3$_0NS_9allocatorISG_EEFvvEED0Ev', symObjAddr: 0xCFAA8, symBinAddr: 0xCC1DC, symSize: 0x4 }
  - { offset: 0x892547, size: 0x8, addend: 0x0, symName: '__ZNKSt3__110__function6__funcIZN6twitch19PerformancePipeline19logPerformanceEventERKNS_6chrono10time_pointINS4_12steady_clockENS4_8durationIxNS_5ratioILl1ELl1000000000EEEEEEENS7_IxNS8_ILl1ELl1EEEEEE3$_0NS_9allocatorISG_EEFvvEE7__cloneEv', symObjAddr: 0xCFAAC, symBinAddr: 0xCC1E0, symSize: 0x40 }
  - { offset: 0x892894, size: 0x8, addend: 0x0, symName: '__ZNKSt3__110__function6__funcIZN6twitch19PerformancePipeline19logPerformanceEventERKNS_6chrono10time_pointINS4_12steady_clockENS4_8durationIxNS_5ratioILl1ELl1000000000EEEEEEENS7_IxNS8_ILl1ELl1EEEEEE3$_0NS_9allocatorISG_EEFvvEE7__cloneEPNS0_6__baseISJ_EE', symObjAddr: 0xCFAEC, symBinAddr: 0xCC220, symSize: 0x20 }
  - { offset: 0x8928CD, size: 0x8, addend: 0x0, symName: '__ZNKSt3__110__function6__funcIZN6twitch19PerformancePipeline19logPerformanceEventERKNS_6chrono10time_pointINS4_12steady_clockENS4_8durationIxNS_5ratioILl1ELl1000000000EEEEEEENS7_IxNS8_ILl1ELl1EEEEEE3$_0NS_9allocatorISG_EEFvvEE7__cloneEPNS0_6__baseISJ_EE', symObjAddr: 0xCFAEC, symBinAddr: 0xCC220, symSize: 0x20 }
  - { offset: 0x8928FF, size: 0x8, addend: 0x0, symName: '__ZNKSt3__110__function6__funcIZN6twitch19PerformancePipeline19logPerformanceEventERKNS_6chrono10time_pointINS4_12steady_clockENS4_8durationIxNS_5ratioILl1ELl1000000000EEEEEEENS7_IxNS8_ILl1ELl1EEEEEE3$_0NS_9allocatorISG_EEFvvEE7__cloneEPNS0_6__baseISJ_EE', symObjAddr: 0xCFAEC, symBinAddr: 0xCC220, symSize: 0x20 }
  - { offset: 0x892A2B, size: 0x8, addend: 0x0, symName: '__ZNSt3__110__function6__funcIZN6twitch19PerformancePipeline19logPerformanceEventERKNS_6chrono10time_pointINS4_12steady_clockENS4_8durationIxNS_5ratioILl1ELl1000000000EEEEEEENS7_IxNS8_ILl1ELl1EEEEEE3$_0NS_9allocatorISG_EEFvvEE7destroyEv', symObjAddr: 0xCFB0C, symBinAddr: 0xCC240, symSize: 0x4 }
  - { offset: 0x892A7E, size: 0x8, addend: 0x0, symName: '__ZNSt3__110__function6__funcIZN6twitch19PerformancePipeline19logPerformanceEventERKNS_6chrono10time_pointINS4_12steady_clockENS4_8durationIxNS_5ratioILl1ELl1000000000EEEEEEENS7_IxNS8_ILl1ELl1EEEEEE3$_0NS_9allocatorISG_EEFvvEE18destroy_deallocateEv', symObjAddr: 0xCFB10, symBinAddr: 0xCC244, symSize: 0x4 }
  - { offset: 0x892AB5, size: 0x8, addend: 0x0, symName: '__ZNSt3__110__function6__funcIZN6twitch19PerformancePipeline19logPerformanceEventERKNS_6chrono10time_pointINS4_12steady_clockENS4_8durationIxNS_5ratioILl1ELl1000000000EEEEEEENS7_IxNS8_ILl1ELl1EEEEEE3$_0NS_9allocatorISG_EEFvvEE18destroy_deallocateEv', symObjAddr: 0xCFB10, symBinAddr: 0xCC244, symSize: 0x4 }
  - { offset: 0x892ADA, size: 0x8, addend: 0x0, symName: '__ZNSt3__110__function6__funcIZN6twitch19PerformancePipeline19logPerformanceEventERKNS_6chrono10time_pointINS4_12steady_clockENS4_8durationIxNS_5ratioILl1ELl1000000000EEEEEEENS7_IxNS8_ILl1ELl1EEEEEE3$_0NS_9allocatorISG_EEFvvEE18destroy_deallocateEv', symObjAddr: 0xCFB10, symBinAddr: 0xCC244, symSize: 0x4 }
  - { offset: 0x892B09, size: 0x8, addend: 0x0, symName: '__ZNSt3__110__function6__funcIZN6twitch19PerformancePipeline19logPerformanceEventERKNS_6chrono10time_pointINS4_12steady_clockENS4_8durationIxNS_5ratioILl1ELl1000000000EEEEEEENS7_IxNS8_ILl1ELl1EEEEEE3$_0NS_9allocatorISG_EEFvvEE18destroy_deallocateEv', symObjAddr: 0xCFB10, symBinAddr: 0xCC244, symSize: 0x4 }
  - { offset: 0x892B32, size: 0x8, addend: 0x0, symName: '__ZNSt3__110__function6__funcIZN6twitch19PerformancePipeline19logPerformanceEventERKNS_6chrono10time_pointINS4_12steady_clockENS4_8durationIxNS_5ratioILl1ELl1000000000EEEEEEENS7_IxNS8_ILl1ELl1EEEEEE3$_0NS_9allocatorISG_EEFvvEE18destroy_deallocateEv', symObjAddr: 0xCFB10, symBinAddr: 0xCC244, symSize: 0x4 }
  - { offset: 0x892BBA, size: 0x8, addend: 0x0, symName: '__ZNSt3__110__function6__funcIZN6twitch19PerformancePipeline19logPerformanceEventERKNS_6chrono10time_pointINS4_12steady_clockENS4_8durationIxNS_5ratioILl1ELl1000000000EEEEEEENS7_IxNS8_ILl1ELl1EEEEEE3$_0NS_9allocatorISG_EEFvvEEclEv', symObjAddr: 0xCFB14, symBinAddr: 0xCC248, symSize: 0x14 }
  - { offset: 0x8935E2, size: 0x8, addend: 0x0, symName: __ZN6twitch3BusINS_17PerformanceSampleEE7receiveERKS1_, symObjAddr: 0xCFB28, symBinAddr: 0xCC25C, symSize: 0x730 }
  - { offset: 0x896B94, size: 0x8, addend: 0x0, symName: __ZN6twitch3BusINS_17PerformanceSampleEED1Ev, symObjAddr: 0xD0258, symBinAddr: 0xCC98C, symSize: 0x64 }
  - { offset: 0x897134, size: 0x8, addend: 0x0, symName: __ZN6twitch3BusINS_17PerformanceSampleEED1Ev, symObjAddr: 0xD0258, symBinAddr: 0xCC98C, symSize: 0x64 }
  - { offset: 0x89723C, size: 0x8, addend: 0x0, symName: __ZN6twitch3BusINS_17PerformanceSampleEED0Ev, symObjAddr: 0xD02BC, symBinAddr: 0xCC9F0, symSize: 0x64 }
  - { offset: 0x897692, size: 0x8, addend: 0x0, symName: __ZN6twitch3BusINS_17PerformanceSampleEE9setOutputERKNSt3__110shared_ptrINS_8ReceiverIS1_NS_5ErrorEEEEE, symObjAddr: 0xD0320, symBinAddr: 0xCCA54, symSize: 0x144 }
  - { offset: 0x897DC3, size: 0x8, addend: 0x0, symName: __ZN6twitch3BusINS_17PerformanceSampleEE11unsetOutputERKNSt3__110shared_ptrINS_8ReceiverIS1_NS_5ErrorEEEEE, symObjAddr: 0xD0464, symBinAddr: 0xCCB98, symSize: 0x1E4 }
  - { offset: 0x897EA0, size: 0x8, addend: 0x0, symName: __ZN6twitch3BusINS_17PerformanceSampleEE11unsetOutputERKNSt3__110shared_ptrINS_8ReceiverIS1_NS_5ErrorEEEEE, symObjAddr: 0xD0464, symBinAddr: 0xCCB98, symSize: 0x1E4 }
  - { offset: 0x898364, size: 0x8, addend: 0x0, symName: __ZThn8_N6twitch3BusINS_17PerformanceSampleEE9setOutputERKNSt3__110shared_ptrINS_8ReceiverIS1_NS_5ErrorEEEEE, symObjAddr: 0xD0648, symBinAddr: 0xCCD7C, symSize: 0x8 }
  - { offset: 0x898389, size: 0x8, addend: 0x0, symName: __ZThn8_N6twitch3BusINS_17PerformanceSampleEE11unsetOutputERKNSt3__110shared_ptrINS_8ReceiverIS1_NS_5ErrorEEEEE, symObjAddr: 0xD0650, symBinAddr: 0xCCD84, symSize: 0x8 }
  - { offset: 0x8983AE, size: 0x8, addend: 0x0, symName: __ZThn8_N6twitch3BusINS_17PerformanceSampleEED1Ev, symObjAddr: 0xD0658, symBinAddr: 0xCCD8C, symSize: 0x58 }
  - { offset: 0x8984C9, size: 0x8, addend: 0x0, symName: __ZThn8_N6twitch3BusINS_17PerformanceSampleEED0Ev, symObjAddr: 0xD06B0, symBinAddr: 0xCCDE4, symSize: 0x68 }
  - { offset: 0x8985EA, size: 0x8, addend: 0x0, symName: __ZThn16_N6twitch3BusINS_17PerformanceSampleEED1Ev, symObjAddr: 0xD0718, symBinAddr: 0xCCE4C, symSize: 0x58 }
  - { offset: 0x8986EB, size: 0x8, addend: 0x0, symName: __ZThn16_N6twitch3BusINS_17PerformanceSampleEED0Ev, symObjAddr: 0xD0770, symBinAddr: 0xCCEA4, symSize: 0x64 }
  - { offset: 0x89886E, size: 0x8, addend: 0x0, symName: __ZN6twitch7ISenderINS_17PerformanceSampleENS_5ErrorEED1Ev, symObjAddr: 0xD085C, symBinAddr: 0xCCF08, symSize: 0x4 }
  - { offset: 0x898895, size: 0x8, addend: 0x0, symName: __ZN6twitch7ISenderINS_17PerformanceSampleENS_5ErrorEED0Ev, symObjAddr: 0xD0860, symBinAddr: 0xCCF0C, symSize: 0x4 }
  - { offset: 0x8988BC, size: 0x8, addend: 0x0, symName: __ZN6twitch8ReceiverINS_17PerformanceSampleENS_5ErrorEED1Ev, symObjAddr: 0xD0864, symBinAddr: 0xCCF10, symSize: 0x4 }
  - { offset: 0x8988E3, size: 0x8, addend: 0x0, symName: __ZN6twitch8ReceiverINS_17PerformanceSampleENS_5ErrorEED0Ev, symObjAddr: 0xD0868, symBinAddr: 0xCCF14, symSize: 0x4 }
  - { offset: 0x898A9E, size: 0x8, addend: 0x0, symName: __ZNSt3__120__shared_ptr_emplaceIN6twitch3BusINS1_17PerformanceSampleEEENS_9allocatorIS4_EEED1Ev, symObjAddr: 0xD0B38, symBinAddr: 0xCCF18, symSize: 0x10 }
  - { offset: 0x898AC2, size: 0x8, addend: 0x0, symName: __ZNSt3__120__shared_ptr_emplaceIN6twitch3BusINS1_17PerformanceSampleEEENS_9allocatorIS4_EEED1Ev, symObjAddr: 0xD0B38, symBinAddr: 0xCCF18, symSize: 0x10 }
  - { offset: 0x898AF9, size: 0x8, addend: 0x0, symName: __ZNSt3__120__shared_ptr_emplaceIN6twitch3BusINS1_17PerformanceSampleEEENS_9allocatorIS4_EEED0Ev, symObjAddr: 0xD0B48, symBinAddr: 0xCCF28, symSize: 0x20 }
  - { offset: 0x898BC8, size: 0x8, addend: 0x0, symName: __ZNSt3__120__shared_ptr_emplaceIN6twitch3BusINS1_17PerformanceSampleEEENS_9allocatorIS4_EEE16__on_zero_sharedEv, symObjAddr: 0xD0B68, symBinAddr: 0xCCF48, symSize: 0xC }
  - { offset: 0x898BF2, size: 0x8, addend: 0x0, symName: __ZNSt3__120__shared_ptr_emplaceIN6twitch3BusINS1_17PerformanceSampleEEENS_9allocatorIS4_EEE16__on_zero_sharedEv, symObjAddr: 0xD0B68, symBinAddr: 0xCCF48, symSize: 0xC }
  - { offset: 0x898C12, size: 0x8, addend: 0x0, symName: __ZNSt3__120__shared_ptr_emplaceIN6twitch3BusINS1_17PerformanceSampleEEENS_9allocatorIS4_EEE16__on_zero_sharedEv, symObjAddr: 0xD0B68, symBinAddr: 0xCCF48, symSize: 0xC }
  - { offset: 0x898C32, size: 0x8, addend: 0x0, symName: __ZNSt3__120__shared_ptr_emplaceIN6twitch3BusINS1_17PerformanceSampleEEENS_9allocatorIS4_EEE16__on_zero_sharedEv, symObjAddr: 0xD0B68, symBinAddr: 0xCCF48, symSize: 0xC }
  - { offset: 0x898CBB, size: 0x8, addend: 0x0, symName: __ZNSt3__120__shared_ptr_emplaceIN6twitch3BusINS1_17PerformanceSampleEEENS_9allocatorIS4_EEE21__on_zero_shared_weakEv, symObjAddr: 0xD0B74, symBinAddr: 0xCCF54, symSize: 0x4 }
  - { offset: 0x898CF0, size: 0x8, addend: 0x0, symName: __ZNSt3__120__shared_ptr_emplaceIN6twitch3BusINS1_17PerformanceSampleEEENS_9allocatorIS4_EEE21__on_zero_shared_weakEv, symObjAddr: 0xD0B74, symBinAddr: 0xCCF54, symSize: 0x4 }
  - { offset: 0x898D15, size: 0x8, addend: 0x0, symName: __ZNSt3__120__shared_ptr_emplaceIN6twitch3BusINS1_17PerformanceSampleEEENS_9allocatorIS4_EEE21__on_zero_shared_weakEv, symObjAddr: 0xD0B74, symBinAddr: 0xCCF54, symSize: 0x4 }
  - { offset: 0x898D3A, size: 0x8, addend: 0x0, symName: __ZNSt3__120__shared_ptr_emplaceIN6twitch3BusINS1_17PerformanceSampleEEENS_9allocatorIS4_EEE21__on_zero_shared_weakEv, symObjAddr: 0xD0B74, symBinAddr: 0xCCF54, symSize: 0x4 }
  - { offset: 0x898D6A, size: 0x8, addend: 0x0, symName: __ZNSt3__120__shared_ptr_emplaceIN6twitch3BusINS1_17PerformanceSampleEEENS_9allocatorIS4_EEE21__on_zero_shared_weakEv, symObjAddr: 0xD0B74, symBinAddr: 0xCCF54, symSize: 0x4 }
  - { offset: 0x898D94, size: 0x8, addend: 0x0, symName: __ZNSt3__120__shared_ptr_emplaceIN6twitch3BusINS1_17PerformanceSampleEEENS_9allocatorIS4_EEE21__on_zero_shared_weakEv, symObjAddr: 0xD0B74, symBinAddr: 0xCCF54, symSize: 0x4 }
  - { offset: 0x898DC1, size: 0x8, addend: 0x0, symName: '__ZNSt3__110__function6__funcIZN6twitch19PerformancePipeline14setPerfMonitorERNS_10unique_ptrINS2_11PerfMonitorENS_14default_deleteIS5_EEEEE3$_0NS_9allocatorISA_EEFvvEED1Ev', symObjAddr: 0xD0B78, symBinAddr: 0xCCF58, symSize: 0x4 }
  - { offset: 0x898DEC, size: 0x8, addend: 0x0, symName: '__ZNSt3__110__function6__funcIZN6twitch19PerformancePipeline14setPerfMonitorERNS_10unique_ptrINS2_11PerfMonitorENS_14default_deleteIS5_EEEEE3$_0NS_9allocatorISA_EEFvvEED0Ev', symObjAddr: 0xD0B7C, symBinAddr: 0xCCF5C, symSize: 0x4 }
  - { offset: 0x899000, size: 0x8, addend: 0x0, symName: '__ZNKSt3__110__function6__funcIZN6twitch19PerformancePipeline14setPerfMonitorERNS_10unique_ptrINS2_11PerfMonitorENS_14default_deleteIS5_EEEEE3$_0NS_9allocatorISA_EEFvvEE7__cloneEv', symObjAddr: 0xD0B80, symBinAddr: 0xCCF60, symSize: 0x38 }
  - { offset: 0x89934D, size: 0x8, addend: 0x0, symName: '__ZNKSt3__110__function6__funcIZN6twitch19PerformancePipeline14setPerfMonitorERNS_10unique_ptrINS2_11PerfMonitorENS_14default_deleteIS5_EEEEE3$_0NS_9allocatorISA_EEFvvEE7__cloneEPNS0_6__baseISD_EE', symObjAddr: 0xD0BB8, symBinAddr: 0xCCF98, symSize: 0x18 }
  - { offset: 0x899386, size: 0x8, addend: 0x0, symName: '__ZNKSt3__110__function6__funcIZN6twitch19PerformancePipeline14setPerfMonitorERNS_10unique_ptrINS2_11PerfMonitorENS_14default_deleteIS5_EEEEE3$_0NS_9allocatorISA_EEFvvEE7__cloneEPNS0_6__baseISD_EE', symObjAddr: 0xD0BB8, symBinAddr: 0xCCF98, symSize: 0x18 }
  - { offset: 0x8993B8, size: 0x8, addend: 0x0, symName: '__ZNKSt3__110__function6__funcIZN6twitch19PerformancePipeline14setPerfMonitorERNS_10unique_ptrINS2_11PerfMonitorENS_14default_deleteIS5_EEEEE3$_0NS_9allocatorISA_EEFvvEE7__cloneEPNS0_6__baseISD_EE', symObjAddr: 0xD0BB8, symBinAddr: 0xCCF98, symSize: 0x18 }
  - { offset: 0x8994E4, size: 0x8, addend: 0x0, symName: '__ZNSt3__110__function6__funcIZN6twitch19PerformancePipeline14setPerfMonitorERNS_10unique_ptrINS2_11PerfMonitorENS_14default_deleteIS5_EEEEE3$_0NS_9allocatorISA_EEFvvEE7destroyEv', symObjAddr: 0xD0BD0, symBinAddr: 0xCCFB0, symSize: 0x4 }
  - { offset: 0x899537, size: 0x8, addend: 0x0, symName: '__ZNSt3__110__function6__funcIZN6twitch19PerformancePipeline14setPerfMonitorERNS_10unique_ptrINS2_11PerfMonitorENS_14default_deleteIS5_EEEEE3$_0NS_9allocatorISA_EEFvvEE18destroy_deallocateEv', symObjAddr: 0xD0BD4, symBinAddr: 0xCCFB4, symSize: 0x4 }
  - { offset: 0x89956E, size: 0x8, addend: 0x0, symName: '__ZNSt3__110__function6__funcIZN6twitch19PerformancePipeline14setPerfMonitorERNS_10unique_ptrINS2_11PerfMonitorENS_14default_deleteIS5_EEEEE3$_0NS_9allocatorISA_EEFvvEE18destroy_deallocateEv', symObjAddr: 0xD0BD4, symBinAddr: 0xCCFB4, symSize: 0x4 }
  - { offset: 0x899593, size: 0x8, addend: 0x0, symName: '__ZNSt3__110__function6__funcIZN6twitch19PerformancePipeline14setPerfMonitorERNS_10unique_ptrINS2_11PerfMonitorENS_14default_deleteIS5_EEEEE3$_0NS_9allocatorISA_EEFvvEE18destroy_deallocateEv', symObjAddr: 0xD0BD4, symBinAddr: 0xCCFB4, symSize: 0x4 }
  - { offset: 0x8995C2, size: 0x8, addend: 0x0, symName: '__ZNSt3__110__function6__funcIZN6twitch19PerformancePipeline14setPerfMonitorERNS_10unique_ptrINS2_11PerfMonitorENS_14default_deleteIS5_EEEEE3$_0NS_9allocatorISA_EEFvvEE18destroy_deallocateEv', symObjAddr: 0xD0BD4, symBinAddr: 0xCCFB4, symSize: 0x4 }
  - { offset: 0x8995EB, size: 0x8, addend: 0x0, symName: '__ZNSt3__110__function6__funcIZN6twitch19PerformancePipeline14setPerfMonitorERNS_10unique_ptrINS2_11PerfMonitorENS_14default_deleteIS5_EEEEE3$_0NS_9allocatorISA_EEFvvEE18destroy_deallocateEv', symObjAddr: 0xD0BD4, symBinAddr: 0xCCFB4, symSize: 0x4 }
  - { offset: 0x899673, size: 0x8, addend: 0x0, symName: '__ZNSt3__110__function6__funcIZN6twitch19PerformancePipeline14setPerfMonitorERNS_10unique_ptrINS2_11PerfMonitorENS_14default_deleteIS5_EEEEE3$_0NS_9allocatorISA_EEFvvEEclEv', symObjAddr: 0xD0BD8, symBinAddr: 0xCCFB8, symSize: 0x14 }
  - { offset: 0x9851B0, size: 0x8, addend: 0x0, symName: __ZN6twitch3ios18MetalRenderContextD1Ev, symObjAddr: 0xE68A4, symBinAddr: 0xE1DAC, symSize: 0x4 }
  - { offset: 0x9851D4, size: 0x8, addend: 0x0, symName: __ZN6twitch3iosL8VerticesE, symObjAddr: 0x1980B0, symBinAddr: 0x1AD430, symSize: 0x0 }
  - { offset: 0x98979C, size: 0x8, addend: 0x0, symName: __ZNSt3__112construct_atB8nn180100IN6twitch3ios18MetalRenderContext18PendingInputSourceEJS4_EPS4_EEPT_S7_DpOT0_, symObjAddr: 0xE7DD0, symBinAddr: 0xE32D8, symSize: 0x124 }
  - { offset: 0x9897C4, size: 0x8, addend: 0x0, symName: __ZNSt3__112construct_atB8nn180100IN6twitch3ios18MetalRenderContext18PendingInputSourceEJS4_EPS4_EEPT_S7_DpOT0_, symObjAddr: 0xE7DD0, symBinAddr: 0xE32D8, symSize: 0x124 }
  - { offset: 0x9897E9, size: 0x8, addend: 0x0, symName: __ZNSt3__112construct_atB8nn180100IN6twitch3ios18MetalRenderContext18PendingInputSourceEJS4_EPS4_EEPT_S7_DpOT0_, symObjAddr: 0xE7DD0, symBinAddr: 0xE32D8, symSize: 0x124 }
  - { offset: 0x98980E, size: 0x8, addend: 0x0, symName: __ZNSt3__112construct_atB8nn180100IN6twitch3ios18MetalRenderContext18PendingInputSourceEJS4_EPS4_EEPT_S7_DpOT0_, symObjAddr: 0xE7DD0, symBinAddr: 0xE32D8, symSize: 0x124 }
  - { offset: 0x989833, size: 0x8, addend: 0x0, symName: __ZNSt3__112construct_atB8nn180100IN6twitch3ios18MetalRenderContext18PendingInputSourceEJS4_EPS4_EEPT_S7_DpOT0_, symObjAddr: 0xE7DD0, symBinAddr: 0xE32D8, symSize: 0x124 }
  - { offset: 0x989A63, size: 0x8, addend: 0x0, symName: __ZNSt3__112__destroy_atB8nn180100IN6twitch3ios18MetalRenderContext18PendingInputSourceELi0EEEvPT_, symObjAddr: 0xE7EF4, symBinAddr: 0xE33FC, symSize: 0x88 }
  - { offset: 0x98C098, size: 0x8, addend: 0x0, symName: __ZNSt3__14pairINS_6vectorIU8__strongPU33objcproto22MTLRenderPipelineState11objc_objectNS_9allocatorIS4_EEEEN6twitch14BroadcastErrorEEC2B8nn180100IRS7_S9_Li0EEEOT_OT0_, symObjAddr: 0xEBD14, symBinAddr: 0xE70B4, symSize: 0xDC }
  - { offset: 0x98C0D5, size: 0x8, addend: 0x0, symName: __ZNSt3__112__destroy_atB8nn180100INS_4pairIKNS_12basic_stringIcNS_11char_traitsIcEENS_9allocatorIcEEEEU8__strongPU19objcproto9MTLBuffer11objc_objectEELi0EEEvPT_, symObjAddr: 0xEBC68, symBinAddr: 0xE7078, symSize: 0x3C }
  - { offset: 0x98C251, size: 0x8, addend: 0x0, symName: __ZNSt3__112__destroy_atB8nn180100INS_4pairIKNS_12basic_stringIcNS_11char_traitsIcEENS_9allocatorIcEEEENS_6vectorIU8__strongPU33objcproto22MTLRenderPipelineState11objc_objectNS5_ISC_EEEEEELi0EEEvPT_, symObjAddr: 0xEBF1C, symBinAddr: 0xE726C, symSize: 0x50 }
  - { offset: 0x98D90D, size: 0x8, addend: 0x0, symName: __ZN6twitch3ios18MetalRenderContext4execERKNSt3__112basic_stringIcNS2_11char_traitsIcEENS2_9allocatorIcEEEENS2_8functionIFNS_5ErrorERNS_13RenderContextEEEE, symObjAddr: 0xE6E20, symBinAddr: 0xE2328, symSize: 0x2F0 }
  - { offset: 0x98E976, size: 0x8, addend: 0x0, symName: __ZN6twitch3ios18MetalRenderContextD1Ev, symObjAddr: 0xE68A4, symBinAddr: 0xE1DAC, symSize: 0x4 }
  - { offset: 0x98E99A, size: 0x8, addend: 0x0, symName: __ZN6twitch3ios18MetalRenderContextD1Ev, symObjAddr: 0xE68A4, symBinAddr: 0xE1DAC, symSize: 0x4 }
  - { offset: 0x98E9A5, size: 0x8, addend: 0x0, symName: __ZN6twitch3ios18MetalRenderContextD2Ev, symObjAddr: 0xEC058, symBinAddr: 0xE73A8, symSize: 0x31C }
  - { offset: 0x98FEAD, size: 0x8, addend: 0x0, symName: __ZN6twitch3ios18MetalRenderContextD0Ev, symObjAddr: 0xE68A8, symBinAddr: 0xE1DB0, symSize: 0x14 }
  - { offset: 0x9904A5, size: 0x8, addend: 0x0, symName: __ZN6twitch3ios18MetalRenderContext5startEv, symObjAddr: 0xE68BC, symBinAddr: 0xE1DC4, symSize: 0x564 }
  - { offset: 0x992A0E, size: 0x8, addend: 0x0, symName: __ZN6twitch3ios18MetalRenderContext5applyENSt3__112basic_stringIcNS2_11char_traitsIcEENS2_9allocatorIcEEEERKNS_13PictureSampleESB_b, symObjAddr: 0xE7110, symBinAddr: 0xE2618, symSize: 0x810 }
  - { offset: 0x99498B, size: 0x8, addend: 0x0, symName: __ZN6twitch3ios18MetalRenderContext5clearERKNS_13PictureSampleE, symObjAddr: 0xE7920, symBinAddr: 0xE2E28, symSize: 0x194 }
  - { offset: 0x994996, size: 0x8, addend: 0x0, symName: __ZN6twitch3ios18MetalRenderContext15startRenderPassERKNS_13PictureSampleE, symObjAddr: 0xE7B30, symBinAddr: 0xE3038, symSize: 0x2A0 }
  - { offset: 0x9952DC, size: 0x8, addend: 0x0, symName: __ZN6twitch3ios18MetalRenderContext5clearERKNS_13PictureSampleE, symObjAddr: 0xE7920, symBinAddr: 0xE2E28, symSize: 0x194 }
  - { offset: 0x995A56, size: 0x8, addend: 0x0, symName: __ZN6twitch3ios18MetalRenderContext12rendererNameEv, symObjAddr: 0xE7AB4, symBinAddr: 0xE2FBC, symSize: 0x7C }
  - { offset: 0x995C65, size: 0x8, addend: 0x0, symName: '__ZNSt3__110__function6__funcIZN6twitch3ios18MetalRenderContext4execERKNS_12basic_stringIcNS_11char_traitsIcEENS_9allocatorIcEEEENS_8functionIFNS2_5ErrorERNS2_13RenderContextEEEEE3$_0NS8_ISJ_EEFvvEED1Ev', symObjAddr: 0xE7F7C, symBinAddr: 0xE3484, symSize: 0x74 }
  - { offset: 0x995F9F, size: 0x8, addend: 0x0, symName: '__ZNSt3__110__function6__funcIZN6twitch3ios18MetalRenderContext4execERKNS_12basic_stringIcNS_11char_traitsIcEENS_9allocatorIcEEEENS_8functionIFNS2_5ErrorERNS2_13RenderContextEEEEE3$_0NS8_ISJ_EEFvvEED0Ev', symObjAddr: 0xE7FF0, symBinAddr: 0xE34F8, symSize: 0x74 }
  - { offset: 0x996457, size: 0x8, addend: 0x0, symName: '__ZNKSt3__110__function6__funcIZN6twitch3ios18MetalRenderContext4execERKNS_12basic_stringIcNS_11char_traitsIcEENS_9allocatorIcEEEENS_8functionIFNS2_5ErrorERNS2_13RenderContextEEEEE3$_0NS8_ISJ_EEFvvEE7__cloneEv', symObjAddr: 0xE8064, symBinAddr: 0xE356C, symSize: 0x40 }
  - { offset: 0x996600, size: 0x8, addend: 0x0, symName: '__ZNSt3__122__compressed_pair_elemIZN6twitch3ios18MetalRenderContext4execERKNS_12basic_stringIcNS_11char_traitsIcEENS_9allocatorIcEEEENS_8functionIFNS1_5ErrorERNS1_13RenderContextEEEEE3$_0Li0ELb0EEC2B8nn180100IJRKSI_EJLm0EEEENS_21piecewise_construct_tENS_5tupleIJDpT_EEENS_15__tuple_indicesIJXspT0_EEEE', symObjAddr: 0xEBFD8, symBinAddr: 0xE7328, symSize: 0x80 }
  - { offset: 0x9969D3, size: 0x8, addend: 0x0, symName: '__ZNKSt3__110__function6__funcIZN6twitch3ios18MetalRenderContext4execERKNS_12basic_stringIcNS_11char_traitsIcEENS_9allocatorIcEEEENS_8functionIFNS2_5ErrorERNS2_13RenderContextEEEEE3$_0NS8_ISJ_EEFvvEE7__cloneEPNS0_6__baseISL_EE', symObjAddr: 0xE80A4, symBinAddr: 0xE35AC, symSize: 0x1C }
  - { offset: 0x996B36, size: 0x8, addend: 0x0, symName: '__ZNSt3__110__function6__funcIZN6twitch3ios18MetalRenderContext4execERKNS_12basic_stringIcNS_11char_traitsIcEENS_9allocatorIcEEEENS_8functionIFNS2_5ErrorERNS2_13RenderContextEEEEE3$_0NS8_ISJ_EEFvvEE7destroyEv', symObjAddr: 0xE80C0, symBinAddr: 0xE35C8, symSize: 0x8 }
  - { offset: 0x996B6D, size: 0x8, addend: 0x0, symName: '__ZNSt3__110__function12__alloc_funcIZN6twitch3ios18MetalRenderContext4execERKNS_12basic_stringIcNS_11char_traitsIcEENS_9allocatorIcEEEENS_8functionIFNS2_5ErrorERNS2_13RenderContextEEEEE3$_0NS8_ISJ_EEFvvEE7destroyB8nn180100Ev', symObjAddr: 0xEBF6C, symBinAddr: 0xE72BC, symSize: 0x6C }
  - { offset: 0x996E09, size: 0x8, addend: 0x0, symName: '__ZNSt3__110__function6__funcIZN6twitch3ios18MetalRenderContext4execERKNS_12basic_stringIcNS_11char_traitsIcEENS_9allocatorIcEEEENS_8functionIFNS2_5ErrorERNS2_13RenderContextEEEEE3$_0NS8_ISJ_EEFvvEE18destroy_deallocateEv', symObjAddr: 0xE80C8, symBinAddr: 0xE35D0, symSize: 0x28 }
  - { offset: 0x99714D, size: 0x8, addend: 0x0, symName: '__ZNSt3__110__function6__funcIZN6twitch3ios18MetalRenderContext4execERKNS_12basic_stringIcNS_11char_traitsIcEENS_9allocatorIcEEEENS_8functionIFNS2_5ErrorERNS2_13RenderContextEEEEE3$_0NS8_ISJ_EEFvvEEclEv', symObjAddr: 0xE80F0, symBinAddr: 0xE35F8, symSize: 0x36C }
  - { offset: 0x9981C4, size: 0x8, addend: 0x0, symName: __ZN6twitch3ios18MetalRenderContext13endRenderPassERKNS_9MediaTimeERKNSt3__112basic_stringIcNS5_11char_traitsIcEENS5_9allocatorIcEEEENS5_10shared_ptrINS5_7promiseINS_5ErrorEEEEE, symObjAddr: 0xE845C, symBinAddr: 0xE3964, symSize: 0x170C }
  - { offset: 0x9981D7, size: 0x8, addend: 0x0, symName: __ZN6twitch3ios18MetalRenderContext13endRenderPassERKNS_9MediaTimeERKNSt3__112basic_stringIcNS5_11char_traitsIcEENS5_9allocatorIcEEEENS5_10shared_ptrINS5_7promiseINS_5ErrorEEEEE, symObjAddr: 0xE845C, symBinAddr: 0xE3964, symSize: 0x170C }
  - { offset: 0x9A11DD, size: 0x8, addend: 0x0, symName: __ZN6twitch3ios18MetalResourceCache20getMetalTextureCacheEv, symObjAddr: 0xE9B68, symBinAddr: 0xE5070, symSize: 0x94 }
  - { offset: 0x9A251E, size: 0x8, addend: 0x0, symName: __ZN6twitch3ios18MetalResourceCache20getMetalTextureCacheEv, symObjAddr: 0xE9B68, symBinAddr: 0xE5070, symSize: 0x94 }
  - { offset: 0x9A263E, size: 0x8, addend: 0x0, symName: __ZN6twitch3ios18MetalRenderContext11fillEncoderEPU34objcproto23MTLRenderCommandEncoder11objc_objectRKNS1_18PendingInputSourceERKNSt3__16vectorIU8__strongPU21objcproto10MTLTexture11objc_objectNS7_9allocatorISB_EEEEmm, symObjAddr: 0xE9BFC, symBinAddr: 0xE5104, symSize: 0x1CB4 }
  - { offset: 0x9AA6F3, size: 0x8, addend: 0x0, symName: ____ZN6twitch3ios18MetalRenderContext13endRenderPassERKNS_9MediaTimeERKNSt3__112basic_stringIcNS5_11char_traitsIcEENS5_9allocatorIcEEEENS5_10shared_ptrINS5_7promiseINS_5ErrorEEEEE_block_invoke, symObjAddr: 0xEB8B0, symBinAddr: 0xE6DB8, symSize: 0x8C }
  - { offset: 0x9AC6C7, size: 0x8, addend: 0x0, symName: __ZNSt3__14pairINS_6vectorIU8__strongPU33objcproto22MTLRenderPipelineState11objc_objectNS_9allocatorIS4_EEEEN6twitch14BroadcastErrorEEC2B8nn180100IRS7_S9_Li0EEEOT_OT0_, symObjAddr: 0xEBD14, symBinAddr: 0xE70B4, symSize: 0xDC }
  - { offset: 0x9ACA3C, size: 0x8, addend: 0x0, symName: __ZNSt3__14pairINS_6vectorIU8__strongPU33objcproto22MTLRenderPipelineState11objc_objectNS_9allocatorIS4_EEEEN6twitch5ErrorEEC2B8nn180100IS7_NS8_14BroadcastErrorELi0EEEONS0_IT_T0_EE, symObjAddr: 0xEBDF0, symBinAddr: 0xE7190, symSize: 0xDC }
  - { offset: 0x9AD045, size: 0x8, addend: 0x0, symName: ____ZN6twitch3ios18MetalRenderContext13endRenderPassERKNS_9MediaTimeERKNSt3__112basic_stringIcNS5_11char_traitsIcEENS5_9allocatorIcEEEENS5_10shared_ptrINS5_7promiseINS_5ErrorEEEEE_block_invoke, symObjAddr: 0xEB8B0, symBinAddr: 0xE6DB8, symSize: 0x8C }
  - { offset: 0x9AD20F, size: 0x8, addend: 0x0, symName: __ZNSt3__15dequeIU8__strongPU27objcproto16MTLCommandBuffer11objc_objectNS_9allocatorIS3_EEE9pop_frontEv, symObjAddr: 0xEBAAC, symBinAddr: 0xE6FB4, symSize: 0x80 }
  - { offset: 0x9AD493, size: 0x8, addend: 0x0, symName: ____ZN6twitch3ios18MetalRenderContext13endRenderPassERKNS_9MediaTimeERKNSt3__112basic_stringIcNS5_11char_traitsIcEENS5_9allocatorIcEEEENS5_10shared_ptrINS5_7promiseINS_5ErrorEEEEE_block_invoke.2, symObjAddr: 0xEB93C, symBinAddr: 0xE6E44, symSize: 0xC8 }
  - { offset: 0x9AD6CF, size: 0x8, addend: 0x0, symName: ___copy_helper_block_a8_40c66_ZTSNSt3__112basic_stringIcNS_11char_traitsIcEENS_9allocatorIcEEEE80c55_ZTSNSt3__110shared_ptrINS_7promiseIN6twitch5ErrorEEEEE, symObjAddr: 0xEBA04, symBinAddr: 0xE6F0C, symSize: 0x6C }
  - { offset: 0x9AD6DA, size: 0x8, addend: 0x0, symName: ___copy_helper_block_a8_40c66_ZTSNSt3__112basic_stringIcNS_11char_traitsIcEENS_9allocatorIcEEEE80c55_ZTSNSt3__110shared_ptrINS_7promiseIN6twitch5ErrorEEEEE, symObjAddr: 0xEBA04, symBinAddr: 0xE6F0C, symSize: 0x6C }
  - { offset: 0x9AD834, size: 0x8, addend: 0x0, symName: ___destroy_helper_block_a8_40c66_ZTSNSt3__112basic_stringIcNS_11char_traitsIcEENS_9allocatorIcEEEE80c55_ZTSNSt3__110shared_ptrINS_7promiseIN6twitch5ErrorEEEEE, symObjAddr: 0xEBA70, symBinAddr: 0xE6F78, symSize: 0x3C }
  - { offset: 0x9ADA89, size: 0x8, addend: 0x0, symName: ___copy_helper_block_a8_40c66_ZTSNSt3__112basic_stringIcNS_11char_traitsIcEENS_9allocatorIcEEEE, symObjAddr: 0xEBB2C, symBinAddr: 0xE7034, symSize: 0x30 }
  - { offset: 0x9ADB2C, size: 0x8, addend: 0x0, symName: ___destroy_helper_block_a8_40c66_ZTSNSt3__112basic_stringIcNS_11char_traitsIcEENS_9allocatorIcEEEE, symObjAddr: 0xEBB5C, symBinAddr: 0xE7064, symSize: 0x14 }
  - { offset: 0x9ADB7C, size: 0x8, addend: 0x0, symName: ___destroy_helper_block_a8_40c66_ZTSNSt3__112basic_stringIcNS_11char_traitsIcEENS_9allocatorIcEEEE, symObjAddr: 0xEBB5C, symBinAddr: 0xE7064, symSize: 0x14 }
  - { offset: 0x9AE930, size: 0x8, addend: 0x0, symName: __ZN6twitch3ios18MetalRenderContextC1ERKNSt3__110shared_ptrINS_9SchedulerEEEP8NSBundleRKNS3_INS0_18MetalResourceCacheEEEb, symObjAddr: 0xEC374, symBinAddr: 0xE76C4, symSize: 0x188 }
  - { offset: 0x4E887C, size: 0x8, addend: 0x0, symName: __ZNK6twitch17CachedImageFeeder6getTagEv, symObjAddr: 0x79760, symBinAddr: 0x79E50, symSize: 0x2C }
  - { offset: 0x502692, size: 0x8, addend: 0x0, symName: __ZNSt3__16vectorIhNS_9allocatorIhEEE18__assign_with_sizeB8nn180100IPhS5_EEvT_T0_l, symObjAddr: 0x7BC94, symBinAddr: 0x7BE68, symSize: 0x108 }
  - { offset: 0x5026A6, size: 0x8, addend: 0x0, symName: __ZNSt3__135__uninitialized_allocator_copy_implB8nn180100INS_9allocatorINS_6vectorIhNS1_IhEEEEEEPS4_S6_S6_EET2_RT_T0_T1_S7_, symObjAddr: 0x7BBC4, symBinAddr: 0x7BDDC, symSize: 0x8C }
  - { offset: 0x509CFB, size: 0x8, addend: 0x0, symName: __ZN6twitch24RenderContextPassthrough7receiveERKNS_13PictureSampleE, symObjAddr: 0x79F30, symBinAddr: 0x7A45C, symSize: 0x240 }
  - { offset: 0x50B6CD, size: 0x8, addend: 0x0, symName: __ZN6twitch17CachedImageFeeder3mixEv, symObjAddr: 0x7D978, symBinAddr: 0x7D998, symSize: 0x4F8 }
  - { offset: 0x512B9F, size: 0x8, addend: 0x0, symName: __ZNK6twitch17CachedImageFeeder6getTagEv, symObjAddr: 0x79760, symBinAddr: 0x79E50, symSize: 0x2C }
  - { offset: 0x512BF4, size: 0x8, addend: 0x0, symName: __ZNK6twitch17CachedImageFeeder6getTagEv, symObjAddr: 0x79760, symBinAddr: 0x79E50, symSize: 0x2C }
  - { offset: 0x512C55, size: 0x8, addend: 0x0, symName: __ZN6twitch17CachedImageFeederD1Ev, symObjAddr: 0x7978C, symBinAddr: 0x79E7C, symSize: 0x58 }
  - { offset: 0x512EB2, size: 0x8, addend: 0x0, symName: __ZN6twitch17CachedImageFeederD0Ev, symObjAddr: 0x797E4, symBinAddr: 0x79ED4, symSize: 0x5C }
  - { offset: 0x5132E5, size: 0x8, addend: 0x0, symName: __ZNSt3__113__assoc_stateIN6twitch5ErrorEE4moveEv, symObjAddr: 0x79840, symBinAddr: 0x79F30, symSize: 0x120 }
  - { offset: 0x513826, size: 0x8, addend: 0x0, symName: __ZN6twitch15CompositionPathIJNSt3__110shared_ptrINS_20H265FormatConversionEEENS2_INS_20H264FormatConversionEEENS2_INS_12VideoEncoderEEENS2_INS_24RenderContextPassthroughEEENS2_INS_8AnimatorEEENS2_INS_17ImageEncodeCacherEEENS2_INS_7ISenderINS_13PictureSampleENS_5ErrorEEEEEEED2Ev, symObjAddr: 0x799C4, symBinAddr: 0x7A050, symSize: 0x64 }
  - { offset: 0x513D2A, size: 0x8, addend: 0x0, symName: __ZN6twitch15CompositionPathIJNSt3__110shared_ptrINS_20H264FormatConversionEEENS2_INS_12VideoEncoderEEENS2_INS_24RenderContextPassthroughEEENS2_INS_8AnimatorEEENS2_INS_17ImageEncodeCacherEEENS2_INS_7ISenderINS_13PictureSampleENS_5ErrorEEEEEEED2Ev, symObjAddr: 0x79A28, symBinAddr: 0x7A0B4, symSize: 0x5C }
  - { offset: 0x51409E, size: 0x8, addend: 0x0, symName: __ZN6twitch15CompositionPathIJNSt3__110shared_ptrINS_12VideoEncoderEEENS2_INS_24RenderContextPassthroughEEENS2_INS_8AnimatorEEENS2_INS_17ImageEncodeCacherEEENS2_INS_7ISenderINS_13PictureSampleENS_5ErrorEEEEEEED2Ev, symObjAddr: 0x79A84, symBinAddr: 0x7A110, symSize: 0x54 }
  - { offset: 0x5143A9, size: 0x8, addend: 0x0, symName: __ZN6twitch15CompositionPathIJNSt3__110shared_ptrINS_24RenderContextPassthroughEEENS2_INS_8AnimatorEEENS2_INS_17ImageEncodeCacherEEENS2_INS_7ISenderINS_13PictureSampleENS_5ErrorEEEEEEED2Ev, symObjAddr: 0x79AD8, symBinAddr: 0x7A164, symSize: 0x4C }
  - { offset: 0x514651, size: 0x8, addend: 0x0, symName: __ZN6twitch15CompositionPathIJNSt3__110shared_ptrINS_8AnimatorEEENS2_INS_17ImageEncodeCacherEEENS2_INS_7ISenderINS_13PictureSampleENS_5ErrorEEEEEEED2Ev, symObjAddr: 0x79B24, symBinAddr: 0x7A1B0, symSize: 0x44 }
  - { offset: 0x514938, size: 0x8, addend: 0x0, symName: __ZN6twitch15CompositionPathIJNSt3__110shared_ptrINS_17ImageEncodeCacherEEENS2_INS_20H265FormatConversionEEENS2_INS_20H264FormatConversionEEENS2_INS_12VideoEncoderEEENS2_INS_24RenderContextPassthroughEEENS2_INS_8AnimatorEEES4_NS2_INS_7ISenderINS_13PictureSampleENS_5ErrorEEEEEEED2Ev, symObjAddr: 0x79B68, symBinAddr: 0x7A1F4, symSize: 0x6C }
  - { offset: 0x514C5B, size: 0x8, addend: 0x0, symName: __ZNSt3__120__shared_ptr_pointerIPN6twitch15CompositionPathIJNS_10shared_ptrINS1_8ReceiverINS1_11ErrorSampleENS1_5ErrorEEEEENS3_INS1_12VideoEncoderEEEEEENS_14default_deleteISB_EENS_9allocatorISB_EEED1Ev, symObjAddr: 0x79D34, symBinAddr: 0x7A260, symSize: 0x4 }
  - { offset: 0x514C7F, size: 0x8, addend: 0x0, symName: __ZNSt3__120__shared_ptr_pointerIPN6twitch15CompositionPathIJNS_10shared_ptrINS1_8ReceiverINS1_11ErrorSampleENS1_5ErrorEEEEENS3_INS1_12VideoEncoderEEEEEENS_14default_deleteISB_EENS_9allocatorISB_EEED1Ev, symObjAddr: 0x79D34, symBinAddr: 0x7A260, symSize: 0x4 }
  - { offset: 0x514CB6, size: 0x8, addend: 0x0, symName: __ZNSt3__120__shared_ptr_pointerIPN6twitch15CompositionPathIJNS_10shared_ptrINS1_8ReceiverINS1_11ErrorSampleENS1_5ErrorEEEEENS3_INS1_12VideoEncoderEEEEEENS_14default_deleteISB_EENS_9allocatorISB_EEED0Ev, symObjAddr: 0x79D38, symBinAddr: 0x7A264, symSize: 0x14 }
  - { offset: 0x514D45, size: 0x8, addend: 0x0, symName: __ZNSt3__120__shared_ptr_pointerIPN6twitch15CompositionPathIJNS_10shared_ptrINS1_8ReceiverINS1_11ErrorSampleENS1_5ErrorEEEEENS3_INS1_12VideoEncoderEEEEEENS_14default_deleteISB_EENS_9allocatorISB_EEE16__on_zero_sharedEv, symObjAddr: 0x79D4C, symBinAddr: 0x7A278, symSize: 0x18 }
  - { offset: 0x514DCB, size: 0x8, addend: 0x0, symName: __ZNSt3__120__shared_ptr_pointerIPN6twitch15CompositionPathIJNS_10shared_ptrINS1_8ReceiverINS1_11ErrorSampleENS1_5ErrorEEEEENS3_INS1_12VideoEncoderEEEEEENS_14default_deleteISB_EENS_9allocatorISB_EEE21__on_zero_shared_weakEv, symObjAddr: 0x79D64, symBinAddr: 0x7A290, symSize: 0x4 }
  - { offset: 0x514E00, size: 0x8, addend: 0x0, symName: __ZNSt3__120__shared_ptr_pointerIPN6twitch15CompositionPathIJNS_10shared_ptrINS1_8ReceiverINS1_11ErrorSampleENS1_5ErrorEEEEENS3_INS1_12VideoEncoderEEEEEENS_14default_deleteISB_EENS_9allocatorISB_EEE21__on_zero_shared_weakEv, symObjAddr: 0x79D64, symBinAddr: 0x7A290, symSize: 0x4 }
  - { offset: 0x514E24, size: 0x8, addend: 0x0, symName: __ZNSt3__120__shared_ptr_pointerIPN6twitch15CompositionPathIJNS_10shared_ptrINS1_8ReceiverINS1_11ErrorSampleENS1_5ErrorEEEEENS3_INS1_12VideoEncoderEEEEEENS_14default_deleteISB_EENS_9allocatorISB_EEE21__on_zero_shared_weakEv, symObjAddr: 0x79D64, symBinAddr: 0x7A290, symSize: 0x4 }
  - { offset: 0x514E53, size: 0x8, addend: 0x0, symName: __ZNSt3__120__shared_ptr_pointerIPN6twitch15CompositionPathIJNS_10shared_ptrINS1_8ReceiverINS1_11ErrorSampleENS1_5ErrorEEEEENS3_INS1_12VideoEncoderEEEEEENS_14default_deleteISB_EENS_9allocatorISB_EEE21__on_zero_shared_weakEv, symObjAddr: 0x79D64, symBinAddr: 0x7A290, symSize: 0x4 }
  - { offset: 0x514E7C, size: 0x8, addend: 0x0, symName: __ZNSt3__120__shared_ptr_pointerIPN6twitch15CompositionPathIJNS_10shared_ptrINS1_8ReceiverINS1_11ErrorSampleENS1_5ErrorEEEEENS3_INS1_12VideoEncoderEEEEEENS_14default_deleteISB_EENS_9allocatorISB_EEE21__on_zero_shared_weakEv, symObjAddr: 0x79D64, symBinAddr: 0x7A290, symSize: 0x4 }
  - { offset: 0x514EA7, size: 0x8, addend: 0x0, symName: __ZN6twitch15CompositionPathIJNSt3__110shared_ptrINS_8ReceiverINS_11ErrorSampleENS_5ErrorEEEEENS2_INS_12VideoEncoderEEEEED1Ev, symObjAddr: 0x79D68, symBinAddr: 0x7A294, symSize: 0x3C }
  - { offset: 0x514FFF, size: 0x8, addend: 0x0, symName: __ZN6twitch15CompositionPathIJNSt3__110shared_ptrINS_8ReceiverINS_11ErrorSampleENS_5ErrorEEEEENS2_INS_12VideoEncoderEEEEED0Ev, symObjAddr: 0x79DA4, symBinAddr: 0x7A2D0, symSize: 0x3C }
  - { offset: 0x515198, size: 0x8, addend: 0x0, symName: __ZNSt3__120__shared_ptr_pointerIPN6twitch15CompositionPathIJNS_10shared_ptrINS1_17ImageEncodeCacherEEENS3_INS1_20H265FormatConversionEEENS3_INS1_20H264FormatConversionEEENS3_INS1_12VideoEncoderEEENS3_INS1_24RenderContextPassthroughEEENS3_INS1_8AnimatorEEES5_NS3_INS1_7ISenderINS1_13PictureSampleENS1_5ErrorEEEEEEEENS_14default_deleteISL_EENS_9allocatorISL_EEED1Ev, symObjAddr: 0x79DE0, symBinAddr: 0x7A30C, symSize: 0x4 }
  - { offset: 0x5151BC, size: 0x8, addend: 0x0, symName: __ZNSt3__120__shared_ptr_pointerIPN6twitch15CompositionPathIJNS_10shared_ptrINS1_17ImageEncodeCacherEEENS3_INS1_20H265FormatConversionEEENS3_INS1_20H264FormatConversionEEENS3_INS1_12VideoEncoderEEENS3_INS1_24RenderContextPassthroughEEENS3_INS1_8AnimatorEEES5_NS3_INS1_7ISenderINS1_13PictureSampleENS1_5ErrorEEEEEEEENS_14default_deleteISL_EENS_9allocatorISL_EEED1Ev, symObjAddr: 0x79DE0, symBinAddr: 0x7A30C, symSize: 0x4 }
  - { offset: 0x5151F3, size: 0x8, addend: 0x0, symName: __ZNSt3__120__shared_ptr_pointerIPN6twitch15CompositionPathIJNS_10shared_ptrINS1_17ImageEncodeCacherEEENS3_INS1_20H265FormatConversionEEENS3_INS1_20H264FormatConversionEEENS3_INS1_12VideoEncoderEEENS3_INS1_24RenderContextPassthroughEEENS3_INS1_8AnimatorEEES5_NS3_INS1_7ISenderINS1_13PictureSampleENS1_5ErrorEEEEEEEENS_14default_deleteISL_EENS_9allocatorISL_EEED0Ev, symObjAddr: 0x79DE4, symBinAddr: 0x7A310, symSize: 0x14 }
  - { offset: 0x515282, size: 0x8, addend: 0x0, symName: __ZNSt3__120__shared_ptr_pointerIPN6twitch15CompositionPathIJNS_10shared_ptrINS1_17ImageEncodeCacherEEENS3_INS1_20H265FormatConversionEEENS3_INS1_20H264FormatConversionEEENS3_INS1_12VideoEncoderEEENS3_INS1_24RenderContextPassthroughEEENS3_INS1_8AnimatorEEES5_NS3_INS1_7ISenderINS1_13PictureSampleENS1_5ErrorEEEEEEEENS_14default_deleteISL_EENS_9allocatorISL_EEE16__on_zero_sharedEv, symObjAddr: 0x79DF8, symBinAddr: 0x7A324, symSize: 0x18 }
  - { offset: 0x515308, size: 0x8, addend: 0x0, symName: __ZNSt3__120__shared_ptr_pointerIPN6twitch15CompositionPathIJNS_10shared_ptrINS1_17ImageEncodeCacherEEENS3_INS1_20H265FormatConversionEEENS3_INS1_20H264FormatConversionEEENS3_INS1_12VideoEncoderEEENS3_INS1_24RenderContextPassthroughEEENS3_INS1_8AnimatorEEES5_NS3_INS1_7ISenderINS1_13PictureSampleENS1_5ErrorEEEEEEEENS_14default_deleteISL_EENS_9allocatorISL_EEE21__on_zero_shared_weakEv, symObjAddr: 0x79E10, symBinAddr: 0x7A33C, symSize: 0x4 }
  - { offset: 0x51533D, size: 0x8, addend: 0x0, symName: __ZNSt3__120__shared_ptr_pointerIPN6twitch15CompositionPathIJNS_10shared_ptrINS1_17ImageEncodeCacherEEENS3_INS1_20H265FormatConversionEEENS3_INS1_20H264FormatConversionEEENS3_INS1_12VideoEncoderEEENS3_INS1_24RenderContextPassthroughEEENS3_INS1_8AnimatorEEES5_NS3_INS1_7ISenderINS1_13PictureSampleENS1_5ErrorEEEEEEEENS_14default_deleteISL_EENS_9allocatorISL_EEE21__on_zero_shared_weakEv, symObjAddr: 0x79E10, symBinAddr: 0x7A33C, symSize: 0x4 }
  - { offset: 0x515361, size: 0x8, addend: 0x0, symName: __ZNSt3__120__shared_ptr_pointerIPN6twitch15CompositionPathIJNS_10shared_ptrINS1_17ImageEncodeCacherEEENS3_INS1_20H265FormatConversionEEENS3_INS1_20H264FormatConversionEEENS3_INS1_12VideoEncoderEEENS3_INS1_24RenderContextPassthroughEEENS3_INS1_8AnimatorEEES5_NS3_INS1_7ISenderINS1_13PictureSampleENS1_5ErrorEEEEEEEENS_14default_deleteISL_EENS_9allocatorISL_EEE21__on_zero_shared_weakEv, symObjAddr: 0x79E10, symBinAddr: 0x7A33C, symSize: 0x4 }
  - { offset: 0x515390, size: 0x8, addend: 0x0, symName: __ZNSt3__120__shared_ptr_pointerIPN6twitch15CompositionPathIJNS_10shared_ptrINS1_17ImageEncodeCacherEEENS3_INS1_20H265FormatConversionEEENS3_INS1_20H264FormatConversionEEENS3_INS1_12VideoEncoderEEENS3_INS1_24RenderContextPassthroughEEENS3_INS1_8AnimatorEEES5_NS3_INS1_7ISenderINS1_13PictureSampleENS1_5ErrorEEEEEEEENS_14default_deleteISL_EENS_9allocatorISL_EEE21__on_zero_shared_weakEv, symObjAddr: 0x79E10, symBinAddr: 0x7A33C, symSize: 0x4 }
  - { offset: 0x5153B9, size: 0x8, addend: 0x0, symName: __ZNSt3__120__shared_ptr_pointerIPN6twitch15CompositionPathIJNS_10shared_ptrINS1_17ImageEncodeCacherEEENS3_INS1_20H265FormatConversionEEENS3_INS1_20H264FormatConversionEEENS3_INS1_12VideoEncoderEEENS3_INS1_24RenderContextPassthroughEEENS3_INS1_8AnimatorEEES5_NS3_INS1_7ISenderINS1_13PictureSampleENS1_5ErrorEEEEEEEENS_14default_deleteISL_EENS_9allocatorISL_EEE21__on_zero_shared_weakEv, symObjAddr: 0x79E10, symBinAddr: 0x7A33C, symSize: 0x4 }
  - { offset: 0x5153E4, size: 0x8, addend: 0x0, symName: __ZN6twitch15CompositionPathIJNSt3__110shared_ptrINS_17ImageEncodeCacherEEENS2_INS_20H265FormatConversionEEENS2_INS_20H264FormatConversionEEENS2_INS_12VideoEncoderEEENS2_INS_24RenderContextPassthroughEEENS2_INS_8AnimatorEEES4_NS2_INS_7ISenderINS_13PictureSampleENS_5ErrorEEEEEEED1Ev, symObjAddr: 0x79E14, symBinAddr: 0x7A340, symSize: 0x4 }
  - { offset: 0x515408, size: 0x8, addend: 0x0, symName: __ZN6twitch15CompositionPathIJNSt3__110shared_ptrINS_17ImageEncodeCacherEEENS2_INS_20H265FormatConversionEEENS2_INS_20H264FormatConversionEEENS2_INS_12VideoEncoderEEENS2_INS_24RenderContextPassthroughEEENS2_INS_8AnimatorEEES4_NS2_INS_7ISenderINS_13PictureSampleENS_5ErrorEEEEEEED1Ev, symObjAddr: 0x79E14, symBinAddr: 0x7A340, symSize: 0x4 }
  - { offset: 0x515413, size: 0x8, addend: 0x0, symName: __ZN6twitch15CompositionPathIJNSt3__110shared_ptrINS_17ImageEncodeCacherEEENS2_INS_20H265FormatConversionEEENS2_INS_20H264FormatConversionEEENS2_INS_12VideoEncoderEEENS2_INS_24RenderContextPassthroughEEENS2_INS_8AnimatorEEES4_NS2_INS_7ISenderINS_13PictureSampleENS_5ErrorEEEEEEED0Ev, symObjAddr: 0x79E18, symBinAddr: 0x7A344, symSize: 0x14 }
  - { offset: 0x515469, size: 0x8, addend: 0x0, symName: __ZN6twitch15CompositionPathIJNSt3__110shared_ptrINS_8AnimatorEEENS2_INS_17ImageEncodeCacherEEENS2_INS_7ISenderINS_13PictureSampleENS_5ErrorEEEEEEED1Ev, symObjAddr: 0x79E2C, symBinAddr: 0x7A358, symSize: 0x4 }
  - { offset: 0x51548D, size: 0x8, addend: 0x0, symName: __ZN6twitch15CompositionPathIJNSt3__110shared_ptrINS_8AnimatorEEENS2_INS_17ImageEncodeCacherEEENS2_INS_7ISenderINS_13PictureSampleENS_5ErrorEEEEEEED1Ev, symObjAddr: 0x79E2C, symBinAddr: 0x7A358, symSize: 0x4 }
  - { offset: 0x515498, size: 0x8, addend: 0x0, symName: __ZN6twitch15CompositionPathIJNSt3__110shared_ptrINS_8AnimatorEEENS2_INS_17ImageEncodeCacherEEENS2_INS_7ISenderINS_13PictureSampleENS_5ErrorEEEEEEED0Ev, symObjAddr: 0x79E30, symBinAddr: 0x7A35C, symSize: 0x14 }
  - { offset: 0x5154EE, size: 0x8, addend: 0x0, symName: __ZN6twitch15CompositionPathIJNSt3__110shared_ptrINS_24RenderContextPassthroughEEENS2_INS_8AnimatorEEENS2_INS_17ImageEncodeCacherEEENS2_INS_7ISenderINS_13PictureSampleENS_5ErrorEEEEEEED1Ev, symObjAddr: 0x79E44, symBinAddr: 0x7A370, symSize: 0x4 }
  - { offset: 0x515512, size: 0x8, addend: 0x0, symName: __ZN6twitch15CompositionPathIJNSt3__110shared_ptrINS_24RenderContextPassthroughEEENS2_INS_8AnimatorEEENS2_INS_17ImageEncodeCacherEEENS2_INS_7ISenderINS_13PictureSampleENS_5ErrorEEEEEEED1Ev, symObjAddr: 0x79E44, symBinAddr: 0x7A370, symSize: 0x4 }
  - { offset: 0x51551D, size: 0x8, addend: 0x0, symName: __ZN6twitch15CompositionPathIJNSt3__110shared_ptrINS_24RenderContextPassthroughEEENS2_INS_8AnimatorEEENS2_INS_17ImageEncodeCacherEEENS2_INS_7ISenderINS_13PictureSampleENS_5ErrorEEEEEEED0Ev, symObjAddr: 0x79E48, symBinAddr: 0x7A374, symSize: 0x14 }
  - { offset: 0x515573, size: 0x8, addend: 0x0, symName: __ZN6twitch15CompositionPathIJNSt3__110shared_ptrINS_12VideoEncoderEEENS2_INS_24RenderContextPassthroughEEENS2_INS_8AnimatorEEENS2_INS_17ImageEncodeCacherEEENS2_INS_7ISenderINS_13PictureSampleENS_5ErrorEEEEEEED1Ev, symObjAddr: 0x79E5C, symBinAddr: 0x7A388, symSize: 0x4 }
  - { offset: 0x515597, size: 0x8, addend: 0x0, symName: __ZN6twitch15CompositionPathIJNSt3__110shared_ptrINS_12VideoEncoderEEENS2_INS_24RenderContextPassthroughEEENS2_INS_8AnimatorEEENS2_INS_17ImageEncodeCacherEEENS2_INS_7ISenderINS_13PictureSampleENS_5ErrorEEEEEEED1Ev, symObjAddr: 0x79E5C, symBinAddr: 0x7A388, symSize: 0x4 }
  - { offset: 0x5155A2, size: 0x8, addend: 0x0, symName: __ZN6twitch15CompositionPathIJNSt3__110shared_ptrINS_12VideoEncoderEEENS2_INS_24RenderContextPassthroughEEENS2_INS_8AnimatorEEENS2_INS_17ImageEncodeCacherEEENS2_INS_7ISenderINS_13PictureSampleENS_5ErrorEEEEEEED0Ev, symObjAddr: 0x79E60, symBinAddr: 0x7A38C, symSize: 0x14 }
  - { offset: 0x5155F8, size: 0x8, addend: 0x0, symName: __ZN6twitch15CompositionPathIJNSt3__110shared_ptrINS_20H264FormatConversionEEENS2_INS_12VideoEncoderEEENS2_INS_24RenderContextPassthroughEEENS2_INS_8AnimatorEEENS2_INS_17ImageEncodeCacherEEENS2_INS_7ISenderINS_13PictureSampleENS_5ErrorEEEEEEED1Ev, symObjAddr: 0x79E74, symBinAddr: 0x7A3A0, symSize: 0x4 }
  - { offset: 0x51561C, size: 0x8, addend: 0x0, symName: __ZN6twitch15CompositionPathIJNSt3__110shared_ptrINS_20H264FormatConversionEEENS2_INS_12VideoEncoderEEENS2_INS_24RenderContextPassthroughEEENS2_INS_8AnimatorEEENS2_INS_17ImageEncodeCacherEEENS2_INS_7ISenderINS_13PictureSampleENS_5ErrorEEEEEEED1Ev, symObjAddr: 0x79E74, symBinAddr: 0x7A3A0, symSize: 0x4 }
  - { offset: 0x515627, size: 0x8, addend: 0x0, symName: __ZN6twitch15CompositionPathIJNSt3__110shared_ptrINS_20H264FormatConversionEEENS2_INS_12VideoEncoderEEENS2_INS_24RenderContextPassthroughEEENS2_INS_8AnimatorEEENS2_INS_17ImageEncodeCacherEEENS2_INS_7ISenderINS_13PictureSampleENS_5ErrorEEEEEEED0Ev, symObjAddr: 0x79E78, symBinAddr: 0x7A3A4, symSize: 0x14 }
  - { offset: 0x51567D, size: 0x8, addend: 0x0, symName: __ZN6twitch15CompositionPathIJNSt3__110shared_ptrINS_20H265FormatConversionEEENS2_INS_20H264FormatConversionEEENS2_INS_12VideoEncoderEEENS2_INS_24RenderContextPassthroughEEENS2_INS_8AnimatorEEENS2_INS_17ImageEncodeCacherEEENS2_INS_7ISenderINS_13PictureSampleENS_5ErrorEEEEEEED1Ev, symObjAddr: 0x79E8C, symBinAddr: 0x7A3B8, symSize: 0x4 }
  - { offset: 0x5156A1, size: 0x8, addend: 0x0, symName: __ZN6twitch15CompositionPathIJNSt3__110shared_ptrINS_20H265FormatConversionEEENS2_INS_20H264FormatConversionEEENS2_INS_12VideoEncoderEEENS2_INS_24RenderContextPassthroughEEENS2_INS_8AnimatorEEENS2_INS_17ImageEncodeCacherEEENS2_INS_7ISenderINS_13PictureSampleENS_5ErrorEEEEEEED1Ev, symObjAddr: 0x79E8C, symBinAddr: 0x7A3B8, symSize: 0x4 }
  - { offset: 0x5156AC, size: 0x8, addend: 0x0, symName: __ZN6twitch15CompositionPathIJNSt3__110shared_ptrINS_20H265FormatConversionEEENS2_INS_20H264FormatConversionEEENS2_INS_12VideoEncoderEEENS2_INS_24RenderContextPassthroughEEENS2_INS_8AnimatorEEENS2_INS_17ImageEncodeCacherEEENS2_INS_7ISenderINS_13PictureSampleENS_5ErrorEEEEEEED0Ev, symObjAddr: 0x79E90, symBinAddr: 0x7A3BC, symSize: 0x14 }
  - { offset: 0x515728, size: 0x8, addend: 0x0, symName: __ZN6twitch24RenderContextPassthroughD1Ev, symObjAddr: 0x79EA4, symBinAddr: 0x7A3D0, symSize: 0x44 }
  - { offset: 0x515811, size: 0x8, addend: 0x0, symName: __ZN6twitch24RenderContextPassthroughD0Ev, symObjAddr: 0x79EE8, symBinAddr: 0x7A414, symSize: 0x48 }
  - { offset: 0x515ED5, size: 0x8, addend: 0x0, symName: __ZThn24_N6twitch24RenderContextPassthrough7receiveERKNS_13PictureSampleE, symObjAddr: 0x7A170, symBinAddr: 0x7A69C, symSize: 0x8 }
  - { offset: 0x515EFA, size: 0x8, addend: 0x0, symName: __ZThn24_N6twitch24RenderContextPassthroughD1Ev, symObjAddr: 0x7A178, symBinAddr: 0x7A6A4, symSize: 0x40 }
  - { offset: 0x515FA6, size: 0x8, addend: 0x0, symName: __ZThn24_N6twitch24RenderContextPassthroughD0Ev, symObjAddr: 0x7A1B8, symBinAddr: 0x7A6E4, symSize: 0x44 }
  - { offset: 0x516056, size: 0x8, addend: 0x0, symName: __ZNSt3__110__function6__funcIZN6twitch24RenderContextPassthrough7receiveERKNS2_13PictureSampleEEUlRNS2_13RenderContextEE_NS_9allocatorIS9_EEFNS2_5ErrorES8_EED1Ev, symObjAddr: 0x7A254, symBinAddr: 0x7A728, symSize: 0x4 }
  - { offset: 0x516081, size: 0x8, addend: 0x0, symName: __ZNSt3__110__function6__funcIZN6twitch24RenderContextPassthrough7receiveERKNS2_13PictureSampleEEUlRNS2_13RenderContextEE_NS_9allocatorIS9_EEFNS2_5ErrorES8_EED0Ev, symObjAddr: 0x7A258, symBinAddr: 0x7A72C, symSize: 0x4 }
  - { offset: 0x51626D, size: 0x8, addend: 0x0, symName: __ZNKSt3__110__function6__funcIZN6twitch24RenderContextPassthrough7receiveERKNS2_13PictureSampleEEUlRNS2_13RenderContextEE_NS_9allocatorIS9_EEFNS2_5ErrorES8_EE7__cloneEv, symObjAddr: 0x7A25C, symBinAddr: 0x7A730, symSize: 0x40 }
  - { offset: 0x5165BA, size: 0x8, addend: 0x0, symName: __ZNKSt3__110__function6__funcIZN6twitch24RenderContextPassthrough7receiveERKNS2_13PictureSampleEEUlRNS2_13RenderContextEE_NS_9allocatorIS9_EEFNS2_5ErrorES8_EE7__cloneEPNS0_6__baseISD_EE, symObjAddr: 0x7A29C, symBinAddr: 0x7A770, symSize: 0x20 }
  - { offset: 0x5165F3, size: 0x8, addend: 0x0, symName: __ZNKSt3__110__function6__funcIZN6twitch24RenderContextPassthrough7receiveERKNS2_13PictureSampleEEUlRNS2_13RenderContextEE_NS_9allocatorIS9_EEFNS2_5ErrorES8_EE7__cloneEPNS0_6__baseISD_EE, symObjAddr: 0x7A29C, symBinAddr: 0x7A770, symSize: 0x20 }
  - { offset: 0x516625, size: 0x8, addend: 0x0, symName: __ZNKSt3__110__function6__funcIZN6twitch24RenderContextPassthrough7receiveERKNS2_13PictureSampleEEUlRNS2_13RenderContextEE_NS_9allocatorIS9_EEFNS2_5ErrorES8_EE7__cloneEPNS0_6__baseISD_EE, symObjAddr: 0x7A29C, symBinAddr: 0x7A770, symSize: 0x20 }
  - { offset: 0x516751, size: 0x8, addend: 0x0, symName: __ZNSt3__110__function6__funcIZN6twitch24RenderContextPassthrough7receiveERKNS2_13PictureSampleEEUlRNS2_13RenderContextEE_NS_9allocatorIS9_EEFNS2_5ErrorES8_EE7destroyEv, symObjAddr: 0x7A2BC, symBinAddr: 0x7A790, symSize: 0x4 }
  - { offset: 0x5167A4, size: 0x8, addend: 0x0, symName: __ZNSt3__110__function6__funcIZN6twitch24RenderContextPassthrough7receiveERKNS2_13PictureSampleEEUlRNS2_13RenderContextEE_NS_9allocatorIS9_EEFNS2_5ErrorES8_EE18destroy_deallocateEv, symObjAddr: 0x7A2C0, symBinAddr: 0x7A794, symSize: 0x4 }
  - { offset: 0x5167DB, size: 0x8, addend: 0x0, symName: __ZNSt3__110__function6__funcIZN6twitch24RenderContextPassthrough7receiveERKNS2_13PictureSampleEEUlRNS2_13RenderContextEE_NS_9allocatorIS9_EEFNS2_5ErrorES8_EE18destroy_deallocateEv, symObjAddr: 0x7A2C0, symBinAddr: 0x7A794, symSize: 0x4 }
  - { offset: 0x516800, size: 0x8, addend: 0x0, symName: __ZNSt3__110__function6__funcIZN6twitch24RenderContextPassthrough7receiveERKNS2_13PictureSampleEEUlRNS2_13RenderContextEE_NS_9allocatorIS9_EEFNS2_5ErrorES8_EE18destroy_deallocateEv, symObjAddr: 0x7A2C0, symBinAddr: 0x7A794, symSize: 0x4 }
  - { offset: 0x51682F, size: 0x8, addend: 0x0, symName: __ZNSt3__110__function6__funcIZN6twitch24RenderContextPassthrough7receiveERKNS2_13PictureSampleEEUlRNS2_13RenderContextEE_NS_9allocatorIS9_EEFNS2_5ErrorES8_EE18destroy_deallocateEv, symObjAddr: 0x7A2C0, symBinAddr: 0x7A794, symSize: 0x4 }
  - { offset: 0x516858, size: 0x8, addend: 0x0, symName: __ZNSt3__110__function6__funcIZN6twitch24RenderContextPassthrough7receiveERKNS2_13PictureSampleEEUlRNS2_13RenderContextEE_NS_9allocatorIS9_EEFNS2_5ErrorES8_EE18destroy_deallocateEv, symObjAddr: 0x7A2C0, symBinAddr: 0x7A794, symSize: 0x4 }
  - { offset: 0x516A87, size: 0x8, addend: 0x0, symName: __ZNSt3__110__function6__funcIZN6twitch24RenderContextPassthrough7receiveERKNS2_13PictureSampleEEUlRNS2_13RenderContextEE_NS_9allocatorIS9_EEFNS2_5ErrorES8_EEclES8_, symObjAddr: 0x7A2C4, symBinAddr: 0x7A798, symSize: 0x36C }
  - { offset: 0x517C2C, size: 0x8, addend: 0x0, symName: __ZNSt3__16vectorIN6twitch11ConstituentENS_9allocatorIS2_EEE13__vdeallocateEv, symObjAddr: 0x7A630, symBinAddr: 0x7AB04, symSize: 0x38 }
  - { offset: 0x517E01, size: 0x8, addend: 0x0, symName: __ZNSt3__16vectorINS_10shared_ptrIN6twitch17ImageFrameMessageEEENS_9allocatorIS4_EEE13__vdeallocateEv, symObjAddr: 0x7A6CC, symBinAddr: 0x7AB3C, symSize: 0x5C }
  - { offset: 0x51821D, size: 0x8, addend: 0x0, symName: __ZNSt3__120__shared_ptr_emplaceIN6twitch24RenderContextPassthroughENS_9allocatorIS2_EEED1Ev, symObjAddr: 0x7A728, symBinAddr: 0x7AB98, symSize: 0x10 }
  - { offset: 0x518241, size: 0x8, addend: 0x0, symName: __ZNSt3__120__shared_ptr_emplaceIN6twitch24RenderContextPassthroughENS_9allocatorIS2_EEED1Ev, symObjAddr: 0x7A728, symBinAddr: 0x7AB98, symSize: 0x10 }
  - { offset: 0x518278, size: 0x8, addend: 0x0, symName: __ZNSt3__120__shared_ptr_emplaceIN6twitch24RenderContextPassthroughENS_9allocatorIS2_EEED0Ev, symObjAddr: 0x7A738, symBinAddr: 0x7ABA8, symSize: 0x20 }
  - { offset: 0x518347, size: 0x8, addend: 0x0, symName: __ZNSt3__120__shared_ptr_emplaceIN6twitch24RenderContextPassthroughENS_9allocatorIS2_EEE16__on_zero_sharedEv, symObjAddr: 0x7A758, symBinAddr: 0x7ABC8, symSize: 0xC }
  - { offset: 0x518371, size: 0x8, addend: 0x0, symName: __ZNSt3__120__shared_ptr_emplaceIN6twitch24RenderContextPassthroughENS_9allocatorIS2_EEE16__on_zero_sharedEv, symObjAddr: 0x7A758, symBinAddr: 0x7ABC8, symSize: 0xC }
  - { offset: 0x518391, size: 0x8, addend: 0x0, symName: __ZNSt3__120__shared_ptr_emplaceIN6twitch24RenderContextPassthroughENS_9allocatorIS2_EEE16__on_zero_sharedEv, symObjAddr: 0x7A758, symBinAddr: 0x7ABC8, symSize: 0xC }
  - { offset: 0x5183B1, size: 0x8, addend: 0x0, symName: __ZNSt3__120__shared_ptr_emplaceIN6twitch24RenderContextPassthroughENS_9allocatorIS2_EEE16__on_zero_sharedEv, symObjAddr: 0x7A758, symBinAddr: 0x7ABC8, symSize: 0xC }
  - { offset: 0x51843A, size: 0x8, addend: 0x0, symName: __ZNSt3__120__shared_ptr_emplaceIN6twitch24RenderContextPassthroughENS_9allocatorIS2_EEE21__on_zero_shared_weakEv, symObjAddr: 0x7A764, symBinAddr: 0x7ABD4, symSize: 0x4 }
  - { offset: 0x51846F, size: 0x8, addend: 0x0, symName: __ZNSt3__120__shared_ptr_emplaceIN6twitch24RenderContextPassthroughENS_9allocatorIS2_EEE21__on_zero_shared_weakEv, symObjAddr: 0x7A764, symBinAddr: 0x7ABD4, symSize: 0x4 }
  - { offset: 0x518494, size: 0x8, addend: 0x0, symName: __ZNSt3__120__shared_ptr_emplaceIN6twitch24RenderContextPassthroughENS_9allocatorIS2_EEE21__on_zero_shared_weakEv, symObjAddr: 0x7A764, symBinAddr: 0x7ABD4, symSize: 0x4 }
  - { offset: 0x5184B9, size: 0x8, addend: 0x0, symName: __ZNSt3__120__shared_ptr_emplaceIN6twitch24RenderContextPassthroughENS_9allocatorIS2_EEE21__on_zero_shared_weakEv, symObjAddr: 0x7A764, symBinAddr: 0x7ABD4, symSize: 0x4 }
  - { offset: 0x5184E9, size: 0x8, addend: 0x0, symName: __ZNSt3__120__shared_ptr_emplaceIN6twitch24RenderContextPassthroughENS_9allocatorIS2_EEE21__on_zero_shared_weakEv, symObjAddr: 0x7A764, symBinAddr: 0x7ABD4, symSize: 0x4 }
  - { offset: 0x518513, size: 0x8, addend: 0x0, symName: __ZNSt3__120__shared_ptr_emplaceIN6twitch24RenderContextPassthroughENS_9allocatorIS2_EEE21__on_zero_shared_weakEv, symObjAddr: 0x7A764, symBinAddr: 0x7ABD4, symSize: 0x4 }
  - { offset: 0x519034, size: 0x8, addend: 0x0, symName: __ZN6twitch20H265FormatConversion7receiveERKNS_11CodedSampleE, symObjAddr: 0x7A768, symBinAddr: 0x7ABD8, symSize: 0x7D0 }
  - { offset: 0x51B9F3, size: 0x8, addend: 0x0, symName: __ZN6twitch20H265FormatConversionD1Ev, symObjAddr: 0x7AF38, symBinAddr: 0x7B3A8, symSize: 0x38 }
  - { offset: 0x51BCDA, size: 0x8, addend: 0x0, symName: __ZN6twitch20H265FormatConversionD1Ev, symObjAddr: 0x7AF38, symBinAddr: 0x7B3A8, symSize: 0x38 }
  - { offset: 0x51BD71, size: 0x8, addend: 0x0, symName: __ZN6twitch20H265FormatConversionD0Ev, symObjAddr: 0x7AF70, symBinAddr: 0x7B3E0, symSize: 0x38 }
  - { offset: 0x51BE12, size: 0x8, addend: 0x0, symName: __ZThn8_N6twitch20H265FormatConversionD1Ev, symObjAddr: 0x7AFA8, symBinAddr: 0x7B418, symSize: 0x30 }
  - { offset: 0x51BEA2, size: 0x8, addend: 0x0, symName: __ZThn8_N6twitch20H265FormatConversionD0Ev, symObjAddr: 0x7AFD8, symBinAddr: 0x7B448, symSize: 0x8 }
  - { offset: 0x51BFE4, size: 0x8, addend: 0x0, symName: __ZN6twitch5media12SourceFormatD1Ev, symObjAddr: 0x7B158, symBinAddr: 0x7B450, symSize: 0x4 }
  - { offset: 0x51C008, size: 0x8, addend: 0x0, symName: __ZN6twitch5media12SourceFormatD1Ev, symObjAddr: 0x7B158, symBinAddr: 0x7B450, symSize: 0x4 }
  - { offset: 0x51C013, size: 0x8, addend: 0x0, symName: __ZN6twitch5media12SourceFormatD2Ev, symObjAddr: 0x7BE8C, symBinAddr: 0x7BFB8, symSize: 0xD4 }
  - { offset: 0x51CC95, size: 0x8, addend: 0x0, symName: __ZN6twitch5media12SourceFormatD0Ev, symObjAddr: 0x7B15C, symBinAddr: 0x7B454, symSize: 0x14 }
  - { offset: 0x51CCEA, size: 0x8, addend: 0x0, symName: __ZNK6twitch5media12SourceFormat11getSourceIdEv, symObjAddr: 0x7B170, symBinAddr: 0x7B468, symSize: 0x8 }
  - { offset: 0x51CD11, size: 0x8, addend: 0x0, symName: __ZNK6twitch5media12SourceFormat7getNameEv, symObjAddr: 0x7B178, symBinAddr: 0x7B470, symSize: 0x8 }
  - { offset: 0x51CD38, size: 0x8, addend: 0x0, symName: __ZNK6twitch5media12SourceFormat8getGroupEv, symObjAddr: 0x7B180, symBinAddr: 0x7B478, symSize: 0x8 }
  - { offset: 0x51CD5F, size: 0x8, addend: 0x0, symName: __ZNK6twitch5media12SourceFormat7getPathEv, symObjAddr: 0x7B188, symBinAddr: 0x7B480, symSize: 0x8 }
  - { offset: 0x51CD86, size: 0x8, addend: 0x0, symName: __ZNK6twitch5media12SourceFormat7getTypeEv, symObjAddr: 0x7B190, symBinAddr: 0x7B488, symSize: 0x8 }
  - { offset: 0x51CE83, size: 0x8, addend: 0x0, symName: __ZNK6twitch5media12SourceFormat12hasCodecDataENS_11MediaFormat9CodecDataE, symObjAddr: 0x7B198, symBinAddr: 0x7B490, symSize: 0x34 }
  - { offset: 0x51CEBB, size: 0x8, addend: 0x0, symName: __ZNK6twitch5media12SourceFormat12hasCodecDataENS_11MediaFormat9CodecDataE, symObjAddr: 0x7B198, symBinAddr: 0x7B490, symSize: 0x34 }
  - { offset: 0x51CEDB, size: 0x8, addend: 0x0, symName: __ZNK6twitch5media12SourceFormat12hasCodecDataENS_11MediaFormat9CodecDataE, symObjAddr: 0x7B198, symBinAddr: 0x7B490, symSize: 0x34 }
  - { offset: 0x51D02A, size: 0x8, addend: 0x0, symName: __ZNK6twitch5media12SourceFormat12getCodecDataENS_11MediaFormat9CodecDataE, symObjAddr: 0x7B1CC, symBinAddr: 0x7B4C4, symSize: 0x44 }
  - { offset: 0x51D160, size: 0x8, addend: 0x0, symName: __ZNK6twitch5media12SourceFormat17getProtectionDataEv, symObjAddr: 0x7B210, symBinAddr: 0x7B508, symSize: 0x8 }
  - { offset: 0x51D2E2, size: 0x8, addend: 0x0, symName: __ZNK6twitch5media12SourceFormat6getIntENS_11MediaFormat9AttributeE, symObjAddr: 0x7B218, symBinAddr: 0x7B510, symSize: 0x44 }
  - { offset: 0x51D46C, size: 0x8, addend: 0x0, symName: __ZNK6twitch5media12SourceFormat6hasIntENS_11MediaFormat9AttributeE, symObjAddr: 0x7B25C, symBinAddr: 0x7B554, symSize: 0x34 }
  - { offset: 0x51D4A4, size: 0x8, addend: 0x0, symName: __ZNK6twitch5media12SourceFormat6hasIntENS_11MediaFormat9AttributeE, symObjAddr: 0x7B25C, symBinAddr: 0x7B554, symSize: 0x34 }
  - { offset: 0x51D4C4, size: 0x8, addend: 0x0, symName: __ZNK6twitch5media12SourceFormat6hasIntENS_11MediaFormat9AttributeE, symObjAddr: 0x7B25C, symBinAddr: 0x7B554, symSize: 0x34 }
  - { offset: 0x51D530, size: 0x8, addend: 0x0, symName: __ZNK6twitch5media12SourceFormat12getCodecDataEv, symObjAddr: 0x7B290, symBinAddr: 0x7B588, symSize: 0x8 }
  - { offset: 0x51D557, size: 0x8, addend: 0x0, symName: __ZNK6twitch5media12SourceFormat9getValuesEv, symObjAddr: 0x7B298, symBinAddr: 0x7B590, symSize: 0x8 }
  - { offset: 0x51D57E, size: 0x8, addend: 0x0, symName: __ZN6twitch5media12SourceFormat11setSourceIdERKNSt3__112basic_stringIcNS2_11char_traitsIcEENS2_9allocatorIcEEEE, symObjAddr: 0x7B2A0, symBinAddr: 0x7B598, symSize: 0x8 }
  - { offset: 0x51D5B3, size: 0x8, addend: 0x0, symName: __ZN6twitch5media12SourceFormat7setNameERKNSt3__112basic_stringIcNS2_11char_traitsIcEENS2_9allocatorIcEEEE, symObjAddr: 0x7B2A8, symBinAddr: 0x7B5A0, symSize: 0x8 }
  - { offset: 0x51D5E8, size: 0x8, addend: 0x0, symName: __ZN6twitch5media12SourceFormat8setGroupERKNSt3__112basic_stringIcNS2_11char_traitsIcEENS2_9allocatorIcEEEE, symObjAddr: 0x7B2B0, symBinAddr: 0x7B5A8, symSize: 0x8 }
  - { offset: 0x51D61D, size: 0x8, addend: 0x0, symName: __ZN6twitch5media12SourceFormat7setPathERKNSt3__112basic_stringIcNS2_11char_traitsIcEENS2_9allocatorIcEEEE, symObjAddr: 0x7B2B8, symBinAddr: 0x7B5B0, symSize: 0x8 }
  - { offset: 0x51D66F, size: 0x8, addend: 0x0, symName: __ZN6twitch5media12SourceFormat7setTypeERKNS_9MediaTypeE, symObjAddr: 0x7B2C0, symBinAddr: 0x7B5B8, symSize: 0x48 }
  - { offset: 0x51DA91, size: 0x8, addend: 0x0, symName: __ZN6twitch5media12SourceFormat12setCodecDataENS_11MediaFormat9CodecDataERKNSt3__16vectorIhNS4_9allocatorIhEEEE, symObjAddr: 0x7B308, symBinAddr: 0x7B600, symSize: 0xD0 }
  - { offset: 0x51DE72, size: 0x8, addend: 0x0, symName: __ZNSt3__16vectorIhNS_9allocatorIhEEE18__assign_with_sizeB8nn180100IPhS5_EEvT_T0_l, symObjAddr: 0x7BC94, symBinAddr: 0x7BE68, symSize: 0x108 }
  - { offset: 0x51E8B4, size: 0x8, addend: 0x0, symName: __ZN6twitch5media12SourceFormat6setIntENS_11MediaFormat9AttributeEi, symObjAddr: 0x7B3D8, symBinAddr: 0x7B6D0, symSize: 0xA4 }
  - { offset: 0x51F1A1, size: 0x8, addend: 0x0, symName: __ZN6twitch5media12SourceFormat12setCodecDataERKNSt3__13mapINS_11MediaFormat9CodecDataENS2_6vectorIhNS2_9allocatorIhEEEENS2_4lessIS5_EENS7_INS2_4pairIKS5_S9_EEEEEE, symObjAddr: 0x7B47C, symBinAddr: 0x7B774, symSize: 0x274 }
  - { offset: 0x51FC36, size: 0x8, addend: 0x0, symName: __ZNSt3__16__treeINS_12__value_typeIN6twitch11MediaFormat9CodecDataENS_6vectorIhNS_9allocatorIhEEEEEENS_19__map_value_compareIS4_S9_NS_4lessIS4_EELb1EEENS6_IS9_EEE7destroyEPNS_11__tree_nodeIS9_PvEE, symObjAddr: 0x7BE44, symBinAddr: 0x7BF70, symSize: 0x48 }
  - { offset: 0x520294, size: 0x8, addend: 0x0, symName: __ZN6twitch5media12SourceFormat17setProtectionDataERKNSt3__16vectorINS3_IhNS2_9allocatorIhEEEENS4_IS6_EEEE, symObjAddr: 0x7B6F0, symBinAddr: 0x7B9E8, symSize: 0x178 }
  - { offset: 0x520ADA, size: 0x8, addend: 0x0, symName: __ZN6twitch5media12SourceFormat9setValuesERKNSt3__13mapINS_11MediaFormat9AttributeEiNS2_4lessIS5_EENS2_9allocatorINS2_4pairIKS5_iEEEEEE, symObjAddr: 0x7B868, symBinAddr: 0x7BB60, symSize: 0x21C }
  - { offset: 0x520AE7, size: 0x8, addend: 0x0, symName: __ZNKSt3__111__copy_loopINS_17_ClassicAlgPolicyEEclB8nn180100IPNS_6vectorIhNS_9allocatorIhEEEES8_S8_EENS_4pairIT_T1_EESA_T0_SB_, symObjAddr: 0x7BB64, symBinAddr: 0x7BD7C, symSize: 0x60 }
  - { offset: 0x520F7C, size: 0x8, addend: 0x0, symName: __ZN6twitch5media12SourceFormat9setValuesERKNSt3__13mapINS_11MediaFormat9AttributeEiNS2_4lessIS5_EENS2_9allocatorINS2_4pairIKS5_iEEEEEE, symObjAddr: 0x7B868, symBinAddr: 0x7BB60, symSize: 0x21C }
  - { offset: 0x521B1D, size: 0x8, addend: 0x0, symName: __ZNSt3__120__shared_ptr_emplaceIN6twitch20H265FormatConversionENS_9allocatorIS2_EEED1Ev, symObjAddr: 0x7BF60, symBinAddr: 0x7C08C, symSize: 0x10 }
  - { offset: 0x521B41, size: 0x8, addend: 0x0, symName: __ZNSt3__120__shared_ptr_emplaceIN6twitch20H265FormatConversionENS_9allocatorIS2_EEED1Ev, symObjAddr: 0x7BF60, symBinAddr: 0x7C08C, symSize: 0x10 }
  - { offset: 0x521B78, size: 0x8, addend: 0x0, symName: __ZNSt3__120__shared_ptr_emplaceIN6twitch20H265FormatConversionENS_9allocatorIS2_EEED0Ev, symObjAddr: 0x7BF70, symBinAddr: 0x7C09C, symSize: 0x20 }
  - { offset: 0x521C47, size: 0x8, addend: 0x0, symName: __ZNSt3__120__shared_ptr_emplaceIN6twitch20H265FormatConversionENS_9allocatorIS2_EEE16__on_zero_sharedEv, symObjAddr: 0x7BF90, symBinAddr: 0x7C0BC, symSize: 0x30 }
  - { offset: 0x521DA8, size: 0x8, addend: 0x0, symName: __ZNSt3__120__shared_ptr_emplaceIN6twitch20H265FormatConversionENS_9allocatorIS2_EEE21__on_zero_shared_weakEv, symObjAddr: 0x7BFC0, symBinAddr: 0x7C0EC, symSize: 0x4 }
  - { offset: 0x521DDD, size: 0x8, addend: 0x0, symName: __ZNSt3__120__shared_ptr_emplaceIN6twitch20H265FormatConversionENS_9allocatorIS2_EEE21__on_zero_shared_weakEv, symObjAddr: 0x7BFC0, symBinAddr: 0x7C0EC, symSize: 0x4 }
  - { offset: 0x521E02, size: 0x8, addend: 0x0, symName: __ZNSt3__120__shared_ptr_emplaceIN6twitch20H265FormatConversionENS_9allocatorIS2_EEE21__on_zero_shared_weakEv, symObjAddr: 0x7BFC0, symBinAddr: 0x7C0EC, symSize: 0x4 }
  - { offset: 0x521E27, size: 0x8, addend: 0x0, symName: __ZNSt3__120__shared_ptr_emplaceIN6twitch20H265FormatConversionENS_9allocatorIS2_EEE21__on_zero_shared_weakEv, symObjAddr: 0x7BFC0, symBinAddr: 0x7C0EC, symSize: 0x4 }
  - { offset: 0x521E57, size: 0x8, addend: 0x0, symName: __ZNSt3__120__shared_ptr_emplaceIN6twitch20H265FormatConversionENS_9allocatorIS2_EEE21__on_zero_shared_weakEv, symObjAddr: 0x7BFC0, symBinAddr: 0x7C0EC, symSize: 0x4 }
  - { offset: 0x521E81, size: 0x8, addend: 0x0, symName: __ZNSt3__120__shared_ptr_emplaceIN6twitch20H265FormatConversionENS_9allocatorIS2_EEE21__on_zero_shared_weakEv, symObjAddr: 0x7BFC0, symBinAddr: 0x7C0EC, symSize: 0x4 }
  - { offset: 0x521F63, size: 0x8, addend: 0x0, symName: __ZN6twitch20H264FormatConversion7receiveERKNS_11CodedSampleE, symObjAddr: 0x7BFC4, symBinAddr: 0x7C0F0, symSize: 0xC14 }
  - { offset: 0x5262ED, size: 0x8, addend: 0x0, symName: __ZN6twitch20H264FormatConversionD1Ev, symObjAddr: 0x7CBD8, symBinAddr: 0x7CD04, symSize: 0x38 }
  - { offset: 0x526324, size: 0x8, addend: 0x0, symName: __ZN6twitch20H264FormatConversionD1Ev, symObjAddr: 0x7CBD8, symBinAddr: 0x7CD04, symSize: 0x38 }
  - { offset: 0x5263B9, size: 0x8, addend: 0x0, symName: __ZN6twitch20H264FormatConversionD0Ev, symObjAddr: 0x7CC10, symBinAddr: 0x7CD3C, symSize: 0x38 }
  - { offset: 0x52645A, size: 0x8, addend: 0x0, symName: __ZThn8_N6twitch20H264FormatConversionD1Ev, symObjAddr: 0x7CC48, symBinAddr: 0x7CD74, symSize: 0x30 }
  - { offset: 0x5264EA, size: 0x8, addend: 0x0, symName: __ZThn8_N6twitch20H264FormatConversionD0Ev, symObjAddr: 0x7CC78, symBinAddr: 0x7CDA4, symSize: 0x8 }
  - { offset: 0x52652B, size: 0x8, addend: 0x0, symName: __ZNSt3__120__shared_ptr_emplaceIN6twitch20H264FormatConversionENS_9allocatorIS2_EEED1Ev, symObjAddr: 0x7CC80, symBinAddr: 0x7CDAC, symSize: 0x10 }
  - { offset: 0x52654F, size: 0x8, addend: 0x0, symName: __ZNSt3__120__shared_ptr_emplaceIN6twitch20H264FormatConversionENS_9allocatorIS2_EEED1Ev, symObjAddr: 0x7CC80, symBinAddr: 0x7CDAC, symSize: 0x10 }
  - { offset: 0x526586, size: 0x8, addend: 0x0, symName: __ZNSt3__120__shared_ptr_emplaceIN6twitch20H264FormatConversionENS_9allocatorIS2_EEED0Ev, symObjAddr: 0x7CC90, symBinAddr: 0x7CDBC, symSize: 0x20 }
  - { offset: 0x526655, size: 0x8, addend: 0x0, symName: __ZNSt3__120__shared_ptr_emplaceIN6twitch20H264FormatConversionENS_9allocatorIS2_EEE16__on_zero_sharedEv, symObjAddr: 0x7CCB0, symBinAddr: 0x7CDDC, symSize: 0x30 }
  - { offset: 0x5267B6, size: 0x8, addend: 0x0, symName: __ZNSt3__120__shared_ptr_emplaceIN6twitch20H264FormatConversionENS_9allocatorIS2_EEE21__on_zero_shared_weakEv, symObjAddr: 0x7CCE0, symBinAddr: 0x7CE0C, symSize: 0x4 }
  - { offset: 0x5267EB, size: 0x8, addend: 0x0, symName: __ZNSt3__120__shared_ptr_emplaceIN6twitch20H264FormatConversionENS_9allocatorIS2_EEE21__on_zero_shared_weakEv, symObjAddr: 0x7CCE0, symBinAddr: 0x7CE0C, symSize: 0x4 }
  - { offset: 0x526810, size: 0x8, addend: 0x0, symName: __ZNSt3__120__shared_ptr_emplaceIN6twitch20H264FormatConversionENS_9allocatorIS2_EEE21__on_zero_shared_weakEv, symObjAddr: 0x7CCE0, symBinAddr: 0x7CE0C, symSize: 0x4 }
  - { offset: 0x526835, size: 0x8, addend: 0x0, symName: __ZNSt3__120__shared_ptr_emplaceIN6twitch20H264FormatConversionENS_9allocatorIS2_EEE21__on_zero_shared_weakEv, symObjAddr: 0x7CCE0, symBinAddr: 0x7CE0C, symSize: 0x4 }
  - { offset: 0x526865, size: 0x8, addend: 0x0, symName: __ZNSt3__120__shared_ptr_emplaceIN6twitch20H264FormatConversionENS_9allocatorIS2_EEE21__on_zero_shared_weakEv, symObjAddr: 0x7CCE0, symBinAddr: 0x7CE0C, symSize: 0x4 }
  - { offset: 0x52688F, size: 0x8, addend: 0x0, symName: __ZNSt3__120__shared_ptr_emplaceIN6twitch20H264FormatConversionENS_9allocatorIS2_EEE21__on_zero_shared_weakEv, symObjAddr: 0x7CCE0, symBinAddr: 0x7CE0C, symSize: 0x4 }
  - { offset: 0x526964, size: 0x8, addend: 0x0, symName: '__ZNSt3__110__function6__funcIZN6twitch17CachedImageFeederC1ENS_10shared_ptrINS2_7ISenderINS2_13PictureSampleENS2_5ErrorEEEEERKNS2_21CachedImageFeederRoleERKNS4_INS2_3LogEEERNS2_13RenderContextERKNS4_INS2_9SchedulerEEERKNS2_20BroadcastVideoConfigERKNS_12basic_stringIcNS_11char_traitsIcEENS_9allocatorIcEEEENS2_9MediaTimeENS2_11PixelFormatEbNS_8functionIFvS7_EEEE3$_0NST_IS13_EES11_ED1Ev', symObjAddr: 0x7CCE4, symBinAddr: 0x7CE10, symSize: 0x60 }
  - { offset: 0x526BAA, size: 0x8, addend: 0x0, symName: '__ZNSt3__110__function6__funcIZN6twitch17CachedImageFeederC1ENS_10shared_ptrINS2_7ISenderINS2_13PictureSampleENS2_5ErrorEEEEERKNS2_21CachedImageFeederRoleERKNS4_INS2_3LogEEERNS2_13RenderContextERKNS4_INS2_9SchedulerEEERKNS2_20BroadcastVideoConfigERKNS_12basic_stringIcNS_11char_traitsIcEENS_9allocatorIcEEEENS2_9MediaTimeENS2_11PixelFormatEbNS_8functionIFvS7_EEEE3$_0NST_IS13_EES11_ED0Ev', symObjAddr: 0x7CD44, symBinAddr: 0x7CE70, symSize: 0x60 }
  - { offset: 0x526FB1, size: 0x8, addend: 0x0, symName: '__ZNKSt3__110__function6__funcIZN6twitch17CachedImageFeederC1ENS_10shared_ptrINS2_7ISenderINS2_13PictureSampleENS2_5ErrorEEEEERKNS2_21CachedImageFeederRoleERKNS4_INS2_3LogEEERNS2_13RenderContextERKNS4_INS2_9SchedulerEEERKNS2_20BroadcastVideoConfigERKNS_12basic_stringIcNS_11char_traitsIcEENS_9allocatorIcEEEENS2_9MediaTimeENS2_11PixelFormatEbNS_8functionIFvS7_EEEE3$_0NST_IS13_EES11_E7__cloneEv', symObjAddr: 0x7CDA4, symBinAddr: 0x7CED0, symSize: 0x64 }
  - { offset: 0x527450, size: 0x8, addend: 0x0, symName: '__ZNKSt3__110__function6__funcIZN6twitch17CachedImageFeederC1ENS_10shared_ptrINS2_7ISenderINS2_13PictureSampleENS2_5ErrorEEEEERKNS2_21CachedImageFeederRoleERKNS4_INS2_3LogEEERNS2_13RenderContextERKNS4_INS2_9SchedulerEEERKNS2_20BroadcastVideoConfigERKNS_12basic_stringIcNS_11char_traitsIcEENS_9allocatorIcEEEENS2_9MediaTimeENS2_11PixelFormatEbNS_8functionIFvS7_EEEE3$_0NST_IS13_EES11_E7__cloneEPNS0_6__baseIS11_EE', symObjAddr: 0x7CE08, symBinAddr: 0x7CF34, symSize: 0x5C }
  - { offset: 0x527753, size: 0x8, addend: 0x0, symName: '__ZNSt3__110__function6__funcIZN6twitch17CachedImageFeederC1ENS_10shared_ptrINS2_7ISenderINS2_13PictureSampleENS2_5ErrorEEEEERKNS2_21CachedImageFeederRoleERKNS4_INS2_3LogEEERNS2_13RenderContextERKNS4_INS2_9SchedulerEEERKNS2_20BroadcastVideoConfigERKNS_12basic_stringIcNS_11char_traitsIcEENS_9allocatorIcEEEENS2_9MediaTimeENS2_11PixelFormatEbNS_8functionIFvS7_EEEE3$_0NST_IS13_EES11_E7destroyEv', symObjAddr: 0x7CE64, symBinAddr: 0x7CF90, symSize: 0x5C }
  - { offset: 0x527926, size: 0x8, addend: 0x0, symName: '__ZNSt3__110__function6__funcIZN6twitch17CachedImageFeederC1ENS_10shared_ptrINS2_7ISenderINS2_13PictureSampleENS2_5ErrorEEEEERKNS2_21CachedImageFeederRoleERKNS4_INS2_3LogEEERNS2_13RenderContextERKNS4_INS2_9SchedulerEEERKNS2_20BroadcastVideoConfigERKNS_12basic_stringIcNS_11char_traitsIcEENS_9allocatorIcEEEENS2_9MediaTimeENS2_11PixelFormatEbNS_8functionIFvS7_EEEE3$_0NST_IS13_EES11_E18destroy_deallocateEv', symObjAddr: 0x7CEC0, symBinAddr: 0x7CFEC, symSize: 0x58 }
  - { offset: 0x52807B, size: 0x8, addend: 0x0, symName: '__ZNSt3__110__function6__funcIZN6twitch17CachedImageFeederC1ENS_10shared_ptrINS2_7ISenderINS2_13PictureSampleENS2_5ErrorEEEEERKNS2_21CachedImageFeederRoleERKNS4_INS2_3LogEEERNS2_13RenderContextERKNS4_INS2_9SchedulerEEERKNS2_20BroadcastVideoConfigERKNS_12basic_stringIcNS_11char_traitsIcEENS_9allocatorIcEEEENS2_9MediaTimeENS2_11PixelFormatEbNS_8functionIFvS7_EEEE3$_0NST_IS13_EES11_EclEOS7_', symObjAddr: 0x7CF18, symBinAddr: 0x7D044, symSize: 0x3B4 }
  - { offset: 0x5297CE, size: 0x8, addend: 0x0, symName: '__ZNSt3__110__function6__funcIZZN6twitch17CachedImageFeederC1ENS_10shared_ptrINS2_7ISenderINS2_13PictureSampleENS2_5ErrorEEEEERKNS2_21CachedImageFeederRoleERKNS4_INS2_3LogEEERNS2_13RenderContextERKNS4_INS2_9SchedulerEEERKNS2_20BroadcastVideoConfigERKNS_12basic_stringIcNS_11char_traitsIcEENS_9allocatorIcEEEENS2_9MediaTimeENS2_11PixelFormatEbNS_8functionIFvS7_EEEENK3$_0clES7_EUlvE_NST_IS14_EEFvvEED1Ev', symObjAddr: 0x7D2CC, symBinAddr: 0x7D3F8, symSize: 0xBC }
  - { offset: 0x529F79, size: 0x8, addend: 0x0, symName: '__ZNSt3__110__function6__funcIZZN6twitch17CachedImageFeederC1ENS_10shared_ptrINS2_7ISenderINS2_13PictureSampleENS2_5ErrorEEEEERKNS2_21CachedImageFeederRoleERKNS4_INS2_3LogEEERNS2_13RenderContextERKNS4_INS2_9SchedulerEEERKNS2_20BroadcastVideoConfigERKNS_12basic_stringIcNS_11char_traitsIcEENS_9allocatorIcEEEENS2_9MediaTimeENS2_11PixelFormatEbNS_8functionIFvS7_EEEENK3$_0clES7_EUlvE_NST_IS14_EEFvvEED0Ev', symObjAddr: 0x7D388, symBinAddr: 0x7D4B4, symSize: 0xBC }
  - { offset: 0x52A933, size: 0x8, addend: 0x0, symName: '__ZNKSt3__110__function6__funcIZZN6twitch17CachedImageFeederC1ENS_10shared_ptrINS2_7ISenderINS2_13PictureSampleENS2_5ErrorEEEEERKNS2_21CachedImageFeederRoleERKNS4_INS2_3LogEEERNS2_13RenderContextERKNS4_INS2_9SchedulerEEERKNS2_20BroadcastVideoConfigERKNS_12basic_stringIcNS_11char_traitsIcEENS_9allocatorIcEEEENS2_9MediaTimeENS2_11PixelFormatEbNS_8functionIFvS7_EEEENK3$_0clES7_EUlvE_NST_IS14_EEFvvEE7__cloneEv', symObjAddr: 0x7D444, symBinAddr: 0x7D570, symSize: 0x50 }
  - { offset: 0x52AD54, size: 0x8, addend: 0x0, symName: '__ZNKSt3__110__function6__funcIZZN6twitch17CachedImageFeederC1ENS_10shared_ptrINS2_7ISenderINS2_13PictureSampleENS2_5ErrorEEEEERKNS2_21CachedImageFeederRoleERKNS4_INS2_3LogEEERNS2_13RenderContextERKNS4_INS2_9SchedulerEEERKNS2_20BroadcastVideoConfigERKNS_12basic_stringIcNS_11char_traitsIcEENS_9allocatorIcEEEENS2_9MediaTimeENS2_11PixelFormatEbNS_8functionIFvS7_EEEENK3$_0clES7_EUlvE_NST_IS14_EEFvvEE7__cloneEPNS0_6__baseIS16_EE', symObjAddr: 0x7D494, symBinAddr: 0x7D5C0, symSize: 0x44 }
  - { offset: 0x52AFC5, size: 0x8, addend: 0x0, symName: '__ZNSt3__110__function6__funcIZZN6twitch17CachedImageFeederC1ENS_10shared_ptrINS2_7ISenderINS2_13PictureSampleENS2_5ErrorEEEEERKNS2_21CachedImageFeederRoleERKNS4_INS2_3LogEEERNS2_13RenderContextERKNS4_INS2_9SchedulerEEERKNS2_20BroadcastVideoConfigERKNS_12basic_stringIcNS_11char_traitsIcEENS_9allocatorIcEEEENS2_9MediaTimeENS2_11PixelFormatEbNS_8functionIFvS7_EEEENK3$_0clES7_EUlvE_NST_IS14_EEFvvEE7destroyEv', symObjAddr: 0x7D4D8, symBinAddr: 0x7D604, symSize: 0x8 }
  - { offset: 0x52AFFC, size: 0x8, addend: 0x0, symName: '__ZNSt3__110__function12__alloc_funcIZZN6twitch17CachedImageFeederC1ENS_10shared_ptrINS2_7ISenderINS2_13PictureSampleENS2_5ErrorEEEEERKNS2_21CachedImageFeederRoleERKNS4_INS2_3LogEEERNS2_13RenderContextERKNS4_INS2_9SchedulerEEERKNS2_20BroadcastVideoConfigERKNS_12basic_stringIcNS_11char_traitsIcEENS_9allocatorIcEEEENS2_9MediaTimeENS2_11PixelFormatEbNS_8functionIFvS7_EEEENK3$_0clES7_EUlvE_NST_IS14_EEFvvEE7destroyB8nn180100Ev', symObjAddr: 0x7D654, symBinAddr: 0x7D724, symSize: 0xB4 }
  - { offset: 0x52B703, size: 0x8, addend: 0x0, symName: '__ZNSt3__110__function6__funcIZZN6twitch17CachedImageFeederC1ENS_10shared_ptrINS2_7ISenderINS2_13PictureSampleENS2_5ErrorEEEEERKNS2_21CachedImageFeederRoleERKNS4_INS2_3LogEEERNS2_13RenderContextERKNS4_INS2_9SchedulerEEERKNS2_20BroadcastVideoConfigERKNS_12basic_stringIcNS_11char_traitsIcEENS_9allocatorIcEEEENS2_9MediaTimeENS2_11PixelFormatEbNS_8functionIFvS7_EEEENK3$_0clES7_EUlvE_NST_IS14_EEFvvEE18destroy_deallocateEv', symObjAddr: 0x7D4E0, symBinAddr: 0x7D60C, symSize: 0x28 }
  - { offset: 0x52B8AF, size: 0x8, addend: 0x0, symName: '__ZNSt3__110__function6__funcIZZN6twitch17CachedImageFeederC1ENS_10shared_ptrINS2_7ISenderINS2_13PictureSampleENS2_5ErrorEEEEERKNS2_21CachedImageFeederRoleERKNS4_INS2_3LogEEERNS2_13RenderContextERKNS4_INS2_9SchedulerEEERKNS2_20BroadcastVideoConfigERKNS_12basic_stringIcNS_11char_traitsIcEENS_9allocatorIcEEEENS2_9MediaTimeENS2_11PixelFormatEbNS_8functionIFvS7_EEEENK3$_0clES7_EUlvE_NST_IS14_EEFvvEEclEv', symObjAddr: 0x7D508, symBinAddr: 0x7D634, symSize: 0xF0 }
  - { offset: 0x52C056, size: 0x8, addend: 0x0, symName: __ZNSt3__120__shared_ptr_emplaceIN6twitch17ImageEncodeCacherENS_9allocatorIS2_EEED1Ev, symObjAddr: 0x7D760, symBinAddr: 0x7D7D8, symSize: 0x10 }
  - { offset: 0x52C07A, size: 0x8, addend: 0x0, symName: __ZNSt3__120__shared_ptr_emplaceIN6twitch17ImageEncodeCacherENS_9allocatorIS2_EEED1Ev, symObjAddr: 0x7D760, symBinAddr: 0x7D7D8, symSize: 0x10 }
  - { offset: 0x52C0B1, size: 0x8, addend: 0x0, symName: __ZNSt3__120__shared_ptr_emplaceIN6twitch17ImageEncodeCacherENS_9allocatorIS2_EEED0Ev, symObjAddr: 0x7D770, symBinAddr: 0x7D7E8, symSize: 0x20 }
  - { offset: 0x52C1B2, size: 0x8, addend: 0x0, symName: __ZNSt3__120__shared_ptr_emplaceIN6twitch17ImageEncodeCacherENS_9allocatorIS2_EEE16__on_zero_sharedEv, symObjAddr: 0x7D790, symBinAddr: 0x7D808, symSize: 0x8 }
  - { offset: 0x52C1DC, size: 0x8, addend: 0x0, symName: __ZNSt3__120__shared_ptr_emplaceIN6twitch17ImageEncodeCacherENS_9allocatorIS2_EEE16__on_zero_sharedEv, symObjAddr: 0x7D790, symBinAddr: 0x7D808, symSize: 0x8 }
  - { offset: 0x52C1FC, size: 0x8, addend: 0x0, symName: __ZNSt3__120__shared_ptr_emplaceIN6twitch17ImageEncodeCacherENS_9allocatorIS2_EEE16__on_zero_sharedEv, symObjAddr: 0x7D790, symBinAddr: 0x7D808, symSize: 0x8 }
  - { offset: 0x52C283, size: 0x8, addend: 0x0, symName: __ZN6twitch17ImageEncodeCacherD2Ev, symObjAddr: 0x7D79C, symBinAddr: 0x7D814, symSize: 0x124 }
  - { offset: 0x52CBE9, size: 0x8, addend: 0x0, symName: __ZNSt3__120__shared_ptr_emplaceIN6twitch17ImageEncodeCacherENS_9allocatorIS2_EEE21__on_zero_shared_weakEv, symObjAddr: 0x7D798, symBinAddr: 0x7D810, symSize: 0x4 }
  - { offset: 0x52CC1E, size: 0x8, addend: 0x0, symName: __ZNSt3__120__shared_ptr_emplaceIN6twitch17ImageEncodeCacherENS_9allocatorIS2_EEE21__on_zero_shared_weakEv, symObjAddr: 0x7D798, symBinAddr: 0x7D810, symSize: 0x4 }
  - { offset: 0x52CC43, size: 0x8, addend: 0x0, symName: __ZNSt3__120__shared_ptr_emplaceIN6twitch17ImageEncodeCacherENS_9allocatorIS2_EEE21__on_zero_shared_weakEv, symObjAddr: 0x7D798, symBinAddr: 0x7D810, symSize: 0x4 }
  - { offset: 0x52CC68, size: 0x8, addend: 0x0, symName: __ZNSt3__120__shared_ptr_emplaceIN6twitch17ImageEncodeCacherENS_9allocatorIS2_EEE21__on_zero_shared_weakEv, symObjAddr: 0x7D798, symBinAddr: 0x7D810, symSize: 0x4 }
  - { offset: 0x52CC99, size: 0x8, addend: 0x0, symName: __ZNSt3__120__shared_ptr_emplaceIN6twitch17ImageEncodeCacherENS_9allocatorIS2_EEE21__on_zero_shared_weakEv, symObjAddr: 0x7D798, symBinAddr: 0x7D810, symSize: 0x4 }
  - { offset: 0x52CCC4, size: 0x8, addend: 0x0, symName: __ZNSt3__120__shared_ptr_emplaceIN6twitch17ImageEncodeCacherENS_9allocatorIS2_EEE21__on_zero_shared_weakEv, symObjAddr: 0x7D798, symBinAddr: 0x7D810, symSize: 0x4 }
  - { offset: 0x52CF01, size: 0x8, addend: 0x0, symName: '__ZNSt3__110__function6__funcIZN6twitch17CachedImageFeeder5startEvE3$_0NS_9allocatorIS4_EEFvvEED1Ev', symObjAddr: 0x7D918, symBinAddr: 0x7D938, symSize: 0x4 }
  - { offset: 0x52CF2C, size: 0x8, addend: 0x0, symName: '__ZNSt3__110__function6__funcIZN6twitch17CachedImageFeeder5startEvE3$_0NS_9allocatorIS4_EEFvvEED0Ev', symObjAddr: 0x7D91C, symBinAddr: 0x7D93C, symSize: 0x4 }
  - { offset: 0x52D140, size: 0x8, addend: 0x0, symName: '__ZNKSt3__110__function6__funcIZN6twitch17CachedImageFeeder5startEvE3$_0NS_9allocatorIS4_EEFvvEE7__cloneEv', symObjAddr: 0x7D920, symBinAddr: 0x7D940, symSize: 0x34 }
  - { offset: 0x52D45B, size: 0x8, addend: 0x0, symName: '__ZNKSt3__110__function6__funcIZN6twitch17CachedImageFeeder5startEvE3$_0NS_9allocatorIS4_EEFvvEE7__cloneEPNS0_6__baseIS7_EE', symObjAddr: 0x7D954, symBinAddr: 0x7D974, symSize: 0x14 }
  - { offset: 0x52D494, size: 0x8, addend: 0x0, symName: '__ZNKSt3__110__function6__funcIZN6twitch17CachedImageFeeder5startEvE3$_0NS_9allocatorIS4_EEFvvEE7__cloneEPNS0_6__baseIS7_EE', symObjAddr: 0x7D954, symBinAddr: 0x7D974, symSize: 0x14 }
  - { offset: 0x52D4C6, size: 0x8, addend: 0x0, symName: '__ZNKSt3__110__function6__funcIZN6twitch17CachedImageFeeder5startEvE3$_0NS_9allocatorIS4_EEFvvEE7__cloneEPNS0_6__baseIS7_EE', symObjAddr: 0x7D954, symBinAddr: 0x7D974, symSize: 0x14 }
  - { offset: 0x52D4F8, size: 0x8, addend: 0x0, symName: '__ZNKSt3__110__function6__funcIZN6twitch17CachedImageFeeder5startEvE3$_0NS_9allocatorIS4_EEFvvEE7__cloneEPNS0_6__baseIS7_EE', symObjAddr: 0x7D954, symBinAddr: 0x7D974, symSize: 0x14 }
  - { offset: 0x52D50E, size: 0x8, addend: 0x0, symName: '__ZNKSt3__110__function6__funcIZN6twitch17CachedImageFeeder5startEvE3$_0NS_9allocatorIS4_EEFvvEE7__cloneEPNS0_6__baseIS7_EE', symObjAddr: 0x7D954, symBinAddr: 0x7D974, symSize: 0x14 }
  - { offset: 0x52D523, size: 0x8, addend: 0x0, symName: '__ZNKSt3__110__function6__funcIZN6twitch17CachedImageFeeder5startEvE3$_0NS_9allocatorIS4_EEFvvEE7__cloneEPNS0_6__baseIS7_EE', symObjAddr: 0x7D954, symBinAddr: 0x7D974, symSize: 0x14 }
  - { offset: 0x52D538, size: 0x8, addend: 0x0, symName: '__ZNKSt3__110__function6__funcIZN6twitch17CachedImageFeeder5startEvE3$_0NS_9allocatorIS4_EEFvvEE7__cloneEPNS0_6__baseIS7_EE', symObjAddr: 0x7D954, symBinAddr: 0x7D974, symSize: 0x14 }
  - { offset: 0x52D54D, size: 0x8, addend: 0x0, symName: '__ZNKSt3__110__function6__funcIZN6twitch17CachedImageFeeder5startEvE3$_0NS_9allocatorIS4_EEFvvEE7__cloneEPNS0_6__baseIS7_EE', symObjAddr: 0x7D954, symBinAddr: 0x7D974, symSize: 0x14 }
  - { offset: 0x52D565, size: 0x8, addend: 0x0, symName: '__ZNSt3__110__function6__funcIZN6twitch17CachedImageFeeder5startEvE3$_0NS_9allocatorIS4_EEFvvEE7destroyEv', symObjAddr: 0x7D968, symBinAddr: 0x7D988, symSize: 0x4 }
  - { offset: 0x52D5B8, size: 0x8, addend: 0x0, symName: '__ZNSt3__110__function6__funcIZN6twitch17CachedImageFeeder5startEvE3$_0NS_9allocatorIS4_EEFvvEE18destroy_deallocateEv', symObjAddr: 0x7D96C, symBinAddr: 0x7D98C, symSize: 0x4 }
  - { offset: 0x52D5EF, size: 0x8, addend: 0x0, symName: '__ZNSt3__110__function6__funcIZN6twitch17CachedImageFeeder5startEvE3$_0NS_9allocatorIS4_EEFvvEE18destroy_deallocateEv', symObjAddr: 0x7D96C, symBinAddr: 0x7D98C, symSize: 0x4 }
  - { offset: 0x52D614, size: 0x8, addend: 0x0, symName: '__ZNSt3__110__function6__funcIZN6twitch17CachedImageFeeder5startEvE3$_0NS_9allocatorIS4_EEFvvEE18destroy_deallocateEv', symObjAddr: 0x7D96C, symBinAddr: 0x7D98C, symSize: 0x4 }
  - { offset: 0x52D643, size: 0x8, addend: 0x0, symName: '__ZNSt3__110__function6__funcIZN6twitch17CachedImageFeeder5startEvE3$_0NS_9allocatorIS4_EEFvvEE18destroy_deallocateEv', symObjAddr: 0x7D96C, symBinAddr: 0x7D98C, symSize: 0x4 }
  - { offset: 0x52D66C, size: 0x8, addend: 0x0, symName: '__ZNSt3__110__function6__funcIZN6twitch17CachedImageFeeder5startEvE3$_0NS_9allocatorIS4_EEFvvEE18destroy_deallocateEv', symObjAddr: 0x7D96C, symBinAddr: 0x7D98C, symSize: 0x4 }
  - { offset: 0x52D6F4, size: 0x8, addend: 0x0, symName: '__ZNSt3__110__function6__funcIZN6twitch17CachedImageFeeder5startEvE3$_0NS_9allocatorIS4_EEFvvEEclEv', symObjAddr: 0x7D970, symBinAddr: 0x7D990, symSize: 0x8 }
  - { offset: 0x52D966, size: 0x8, addend: 0x0, symName: '__ZNSt3__110__function6__funcIZN6twitch17CachedImageFeeder3mixEvE3$_0NS_9allocatorIS4_EEFvvEED1Ev', symObjAddr: 0x7DE70, symBinAddr: 0x7DE90, symSize: 0x4 }
  - { offset: 0x52D991, size: 0x8, addend: 0x0, symName: '__ZNSt3__110__function6__funcIZN6twitch17CachedImageFeeder3mixEvE3$_0NS_9allocatorIS4_EEFvvEED0Ev', symObjAddr: 0x7DE74, symBinAddr: 0x7DE94, symSize: 0x4 }
  - { offset: 0x52DBA5, size: 0x8, addend: 0x0, symName: '__ZNKSt3__110__function6__funcIZN6twitch17CachedImageFeeder3mixEvE3$_0NS_9allocatorIS4_EEFvvEE7__cloneEv', symObjAddr: 0x7DE78, symBinAddr: 0x7DE98, symSize: 0x34 }
  - { offset: 0x52DEC0, size: 0x8, addend: 0x0, symName: '__ZNKSt3__110__function6__funcIZN6twitch17CachedImageFeeder3mixEvE3$_0NS_9allocatorIS4_EEFvvEE7__cloneEPNS0_6__baseIS7_EE', symObjAddr: 0x7DEAC, symBinAddr: 0x7DECC, symSize: 0x14 }
  - { offset: 0x52DEF9, size: 0x8, addend: 0x0, symName: '__ZNKSt3__110__function6__funcIZN6twitch17CachedImageFeeder3mixEvE3$_0NS_9allocatorIS4_EEFvvEE7__cloneEPNS0_6__baseIS7_EE', symObjAddr: 0x7DEAC, symBinAddr: 0x7DECC, symSize: 0x14 }
  - { offset: 0x52DF2B, size: 0x8, addend: 0x0, symName: '__ZNKSt3__110__function6__funcIZN6twitch17CachedImageFeeder3mixEvE3$_0NS_9allocatorIS4_EEFvvEE7__cloneEPNS0_6__baseIS7_EE', symObjAddr: 0x7DEAC, symBinAddr: 0x7DECC, symSize: 0x14 }
  - { offset: 0x52DF5D, size: 0x8, addend: 0x0, symName: '__ZNKSt3__110__function6__funcIZN6twitch17CachedImageFeeder3mixEvE3$_0NS_9allocatorIS4_EEFvvEE7__cloneEPNS0_6__baseIS7_EE', symObjAddr: 0x7DEAC, symBinAddr: 0x7DECC, symSize: 0x14 }
  - { offset: 0x52DF73, size: 0x8, addend: 0x0, symName: '__ZNKSt3__110__function6__funcIZN6twitch17CachedImageFeeder3mixEvE3$_0NS_9allocatorIS4_EEFvvEE7__cloneEPNS0_6__baseIS7_EE', symObjAddr: 0x7DEAC, symBinAddr: 0x7DECC, symSize: 0x14 }
  - { offset: 0x52DF88, size: 0x8, addend: 0x0, symName: '__ZNKSt3__110__function6__funcIZN6twitch17CachedImageFeeder3mixEvE3$_0NS_9allocatorIS4_EEFvvEE7__cloneEPNS0_6__baseIS7_EE', symObjAddr: 0x7DEAC, symBinAddr: 0x7DECC, symSize: 0x14 }
  - { offset: 0x52DF9D, size: 0x8, addend: 0x0, symName: '__ZNKSt3__110__function6__funcIZN6twitch17CachedImageFeeder3mixEvE3$_0NS_9allocatorIS4_EEFvvEE7__cloneEPNS0_6__baseIS7_EE', symObjAddr: 0x7DEAC, symBinAddr: 0x7DECC, symSize: 0x14 }
  - { offset: 0x52DFB2, size: 0x8, addend: 0x0, symName: '__ZNKSt3__110__function6__funcIZN6twitch17CachedImageFeeder3mixEvE3$_0NS_9allocatorIS4_EEFvvEE7__cloneEPNS0_6__baseIS7_EE', symObjAddr: 0x7DEAC, symBinAddr: 0x7DECC, symSize: 0x14 }
  - { offset: 0x52DFCA, size: 0x8, addend: 0x0, symName: '__ZNSt3__110__function6__funcIZN6twitch17CachedImageFeeder3mixEvE3$_0NS_9allocatorIS4_EEFvvEE7destroyEv', symObjAddr: 0x7DEC0, symBinAddr: 0x7DEE0, symSize: 0x4 }
  - { offset: 0x52E01D, size: 0x8, addend: 0x0, symName: '__ZNSt3__110__function6__funcIZN6twitch17CachedImageFeeder3mixEvE3$_0NS_9allocatorIS4_EEFvvEE18destroy_deallocateEv', symObjAddr: 0x7DEC4, symBinAddr: 0x7DEE4, symSize: 0x4 }
  - { offset: 0x52E054, size: 0x8, addend: 0x0, symName: '__ZNSt3__110__function6__funcIZN6twitch17CachedImageFeeder3mixEvE3$_0NS_9allocatorIS4_EEFvvEE18destroy_deallocateEv', symObjAddr: 0x7DEC4, symBinAddr: 0x7DEE4, symSize: 0x4 }
  - { offset: 0x52E079, size: 0x8, addend: 0x0, symName: '__ZNSt3__110__function6__funcIZN6twitch17CachedImageFeeder3mixEvE3$_0NS_9allocatorIS4_EEFvvEE18destroy_deallocateEv', symObjAddr: 0x7DEC4, symBinAddr: 0x7DEE4, symSize: 0x4 }
  - { offset: 0x52E0A8, size: 0x8, addend: 0x0, symName: '__ZNSt3__110__function6__funcIZN6twitch17CachedImageFeeder3mixEvE3$_0NS_9allocatorIS4_EEFvvEE18destroy_deallocateEv', symObjAddr: 0x7DEC4, symBinAddr: 0x7DEE4, symSize: 0x4 }
  - { offset: 0x52E0D1, size: 0x8, addend: 0x0, symName: '__ZNSt3__110__function6__funcIZN6twitch17CachedImageFeeder3mixEvE3$_0NS_9allocatorIS4_EEFvvEE18destroy_deallocateEv', symObjAddr: 0x7DEC4, symBinAddr: 0x7DEE4, symSize: 0x4 }
  - { offset: 0x52E159, size: 0x8, addend: 0x0, symName: '__ZNSt3__110__function6__funcIZN6twitch17CachedImageFeeder3mixEvE3$_0NS_9allocatorIS4_EEFvvEEclEv', symObjAddr: 0x7DEC8, symBinAddr: 0x7DEE8, symSize: 0x18 }
  - { offset: 0x52E233, size: 0x8, addend: 0x0, symName: '__ZNSt3__110__function6__funcIZN6twitch17CachedImageFeeder4stopEvE3$_0NS_9allocatorIS4_EEFvvEED1Ev', symObjAddr: 0x7DEE0, symBinAddr: 0x7DF00, symSize: 0x4 }
  - { offset: 0x52E25E, size: 0x8, addend: 0x0, symName: '__ZNSt3__110__function6__funcIZN6twitch17CachedImageFeeder4stopEvE3$_0NS_9allocatorIS4_EEFvvEED0Ev', symObjAddr: 0x7DEE4, symBinAddr: 0x7DF04, symSize: 0x4 }
  - { offset: 0x52E319, size: 0x8, addend: 0x0, symName: '__ZNKSt3__110__function6__funcIZN6twitch17CachedImageFeeder4stopEvE3$_0NS_9allocatorIS4_EEFvvEE7__cloneEv', symObjAddr: 0x7DEE8, symBinAddr: 0x7DF08, symSize: 0x24 }
  - { offset: 0x52E46F, size: 0x8, addend: 0x0, symName: '__ZNKSt3__110__function6__funcIZN6twitch17CachedImageFeeder4stopEvE3$_0NS_9allocatorIS4_EEFvvEE7__cloneEPNS0_6__baseIS7_EE', symObjAddr: 0x7DF0C, symBinAddr: 0x7DF2C, symSize: 0x10 }
  - { offset: 0x52E4A6, size: 0x8, addend: 0x0, symName: '__ZNKSt3__110__function6__funcIZN6twitch17CachedImageFeeder4stopEvE3$_0NS_9allocatorIS4_EEFvvEE7__cloneEPNS0_6__baseIS7_EE', symObjAddr: 0x7DF0C, symBinAddr: 0x7DF2C, symSize: 0x10 }
  - { offset: 0x52E4C4, size: 0x8, addend: 0x0, symName: '__ZNKSt3__110__function6__funcIZN6twitch17CachedImageFeeder4stopEvE3$_0NS_9allocatorIS4_EEFvvEE7__cloneEPNS0_6__baseIS7_EE', symObjAddr: 0x7DF0C, symBinAddr: 0x7DF2C, symSize: 0x10 }
  - { offset: 0x52E4E1, size: 0x8, addend: 0x0, symName: '__ZNSt3__110__function6__funcIZN6twitch17CachedImageFeeder4stopEvE3$_0NS_9allocatorIS4_EEFvvEE7destroyEv', symObjAddr: 0x7DF1C, symBinAddr: 0x7DF3C, symSize: 0x4 }
  - { offset: 0x52E534, size: 0x8, addend: 0x0, symName: '__ZNSt3__110__function6__funcIZN6twitch17CachedImageFeeder4stopEvE3$_0NS_9allocatorIS4_EEFvvEE18destroy_deallocateEv', symObjAddr: 0x7DF20, symBinAddr: 0x7DF40, symSize: 0x4 }
  - { offset: 0x52E56B, size: 0x8, addend: 0x0, symName: '__ZNSt3__110__function6__funcIZN6twitch17CachedImageFeeder4stopEvE3$_0NS_9allocatorIS4_EEFvvEE18destroy_deallocateEv', symObjAddr: 0x7DF20, symBinAddr: 0x7DF40, symSize: 0x4 }
  - { offset: 0x52E590, size: 0x8, addend: 0x0, symName: '__ZNSt3__110__function6__funcIZN6twitch17CachedImageFeeder4stopEvE3$_0NS_9allocatorIS4_EEFvvEE18destroy_deallocateEv', symObjAddr: 0x7DF20, symBinAddr: 0x7DF40, symSize: 0x4 }
  - { offset: 0x52E5BF, size: 0x8, addend: 0x0, symName: '__ZNSt3__110__function6__funcIZN6twitch17CachedImageFeeder4stopEvE3$_0NS_9allocatorIS4_EEFvvEE18destroy_deallocateEv', symObjAddr: 0x7DF20, symBinAddr: 0x7DF40, symSize: 0x4 }
  - { offset: 0x52E5E8, size: 0x8, addend: 0x0, symName: '__ZNSt3__110__function6__funcIZN6twitch17CachedImageFeeder4stopEvE3$_0NS_9allocatorIS4_EEFvvEE18destroy_deallocateEv', symObjAddr: 0x7DF20, symBinAddr: 0x7DF40, symSize: 0x4 }
  - { offset: 0x52E614, size: 0x8, addend: 0x0, symName: '__ZNSt3__110__function6__funcIZN6twitch17CachedImageFeeder4stopEvE3$_0NS_9allocatorIS4_EEFvvEEclEv', symObjAddr: 0x7DF24, symBinAddr: 0x7DF44, symSize: 0x4 }
  - { offset: 0xCD3DDE, size: 0x8, addend: 0x0, symName: __ZN4bssl4CERTD2Ev, symObjAddr: 0x1794C4, symBinAddr: 0x171E88, symSize: 0x1E4 }
  - { offset: 0xCD3DF1, size: 0x8, addend: 0x0, symName: __ZN4bssl24ssl_cert_check_key_usageEPK6cbs_stNS_15ssl_key_usage_tE, symObjAddr: 0x179838, symBinAddr: 0x1721FC, symSize: 0x238 }
  - { offset: 0xCD4465, size: 0x8, addend: 0x0, symName: __ZN4bssl21ssl_cert_parse_pubkeyEPK6cbs_st, symObjAddr: 0x1797D0, symBinAddr: 0x172194, symSize: 0x68 }
  - { offset: 0xCD44E0, size: 0x8, addend: 0x0, symName: __ZN4bsslL21ssl_cert_skip_to_spkiEPK6cbs_stPS0_, symObjAddr: 0x179A70, symBinAddr: 0x172434, symSize: 0xFC }
  - { offset: 0xCD4709, size: 0x8, addend: 0x0, symName: __ZN4bssl19ssl_has_certificateEPKNS_13SSL_HANDSHAKEE, symObjAddr: 0x179B6C, symBinAddr: 0x172530, symSize: 0x48 }
  - { offset: 0xCD485E, size: 0x8, addend: 0x0, symName: __ZN4bssl19ssl_signing_with_dcEPKNS_13SSL_HANDSHAKEE, symObjAddr: 0x179F94, symBinAddr: 0x172958, symSize: 0xA0 }
  - { offset: 0xCD4A5D, size: 0x8, addend: 0x0, symName: __ZN4bssl24ssl_parse_client_CA_listEP6ssl_stPhP6cbs_st, symObjAddr: 0x179BB4, symBinAddr: 0x172578, symSize: 0x238 }
  - { offset: 0xCD528B, size: 0x8, addend: 0x0, symName: __ZN4bssl26ssl_check_leaf_certificateEPNS_13SSL_HANDSHAKEEP11evp_pkey_stPK16crypto_buffer_st, symObjAddr: 0x179DEC, symBinAddr: 0x1727B0, symSize: 0xE0 }
  - { offset: 0xCD541B, size: 0x8, addend: 0x0, symName: __ZN4bssl27ssl_on_certificate_selectedEPNS_13SSL_HANDSHAKEE, symObjAddr: 0x179ECC, symBinAddr: 0x172890, symSize: 0xC8 }
  - { offset: 0xCD6982, size: 0x8, addend: 0x0, symName: __ZN4bssl4CERTD2Ev, symObjAddr: 0x1794C4, symBinAddr: 0x171E88, symSize: 0x1E4 }
  - { offset: 0xCD7471, size: 0x8, addend: 0x0, symName: __ZNSt3__110unique_ptrIN4bssl2DCENS1_8internal7DeleterIS2_EEE5resetB8nn180100EPS2_, symObjAddr: 0x1796A8, symBinAddr: 0x17206C, symSize: 0x68 }
  - { offset: 0xCD77D9, size: 0x8, addend: 0x0, symName: __ZN4bssl5ArrayItE4InitEm, symObjAddr: 0x179710, symBinAddr: 0x1720D4, symSize: 0xC0 }
  - { offset: 0xA0D6B2, size: 0x8, addend: 0x0, symName: _x25519_pub_decode, symObjAddr: 0x106064, symBinAddr: 0x1013B4, symSize: 0x40 }
  - { offset: 0xA0D6CB, size: 0x8, addend: 0x0, symName: _x25519_asn1_meth, symObjAddr: 0x1DD7B8, symBinAddr: 0x1EAF60, symSize: 0x0 }
  - { offset: 0xA0DE0E, size: 0x8, addend: 0x0, symName: _x25519_pub_decode, symObjAddr: 0x106064, symBinAddr: 0x1013B4, symSize: 0x40 }
  - { offset: 0xA0DEB3, size: 0x8, addend: 0x0, symName: _x25519_set_pub_raw, symObjAddr: 0x106420, symBinAddr: 0x101770, symSize: 0xBC }
  - { offset: 0xA0E021, size: 0x8, addend: 0x0, symName: _x25519_pub_encode, symObjAddr: 0x1060A4, symBinAddr: 0x1013F4, symSize: 0xE8 }
  - { offset: 0xA0E165, size: 0x8, addend: 0x0, symName: _x25519_pub_cmp, symObjAddr: 0x10618C, symBinAddr: 0x1014DC, symSize: 0x30 }
  - { offset: 0xA0E1ED, size: 0x8, addend: 0x0, symName: _x25519_priv_decode, symObjAddr: 0x1061BC, symBinAddr: 0x10150C, symSize: 0x78 }
  - { offset: 0xA0E2FA, size: 0x8, addend: 0x0, symName: _x25519_set_priv_raw, symObjAddr: 0x106350, symBinAddr: 0x1016A0, symSize: 0xD0 }
  - { offset: 0xA0E476, size: 0x8, addend: 0x0, symName: _x25519_priv_encode, symObjAddr: 0x106234, symBinAddr: 0x101584, symSize: 0x11C }
  - { offset: 0xA0E5EA, size: 0x8, addend: 0x0, symName: _x25519_get_priv_raw, symObjAddr: 0x1064DC, symBinAddr: 0x10182C, symSize: 0x78 }
  - { offset: 0xA0E682, size: 0x8, addend: 0x0, symName: _x25519_get_pub_raw, symObjAddr: 0x106554, symBinAddr: 0x1018A4, symSize: 0x58 }
  - { offset: 0xA0E718, size: 0x8, addend: 0x0, symName: _x25519_size, symObjAddr: 0x1065AC, symBinAddr: 0x1018FC, symSize: 0x8 }
  - { offset: 0xA0E73F, size: 0x8, addend: 0x0, symName: _x25519_bits, symObjAddr: 0x1065B4, symBinAddr: 0x101904, symSize: 0x8 }
  - { offset: 0xA0E766, size: 0x8, addend: 0x0, symName: _x25519_free, symObjAddr: 0x1065BC, symBinAddr: 0x10190C, symSize: 0x44 }
  - { offset: 0xA16B6D, size: 0x8, addend: 0x0, symName: _CRYPTO_poly1305_update, symObjAddr: 0x108568, symBinAddr: 0x1038B8, symSize: 0xF0 }
  - { offset: 0xA16E16, size: 0x8, addend: 0x0, symName: _CRYPTO_poly1305_update, symObjAddr: 0x108568, symBinAddr: 0x1038B8, symSize: 0xF0 }
  - { offset: 0xA16EF5, size: 0x8, addend: 0x0, symName: _poly1305_update, symObjAddr: 0x108658, symBinAddr: 0x1039A8, symSize: 0x22C }
  - { offset: 0x42AF42, size: 0x8, addend: 0x0, symName: __ZN6twitch5OSLogD1Ev, symObjAddr: 0x66844, symBinAddr: 0x67CF4, symSize: 0x4 }
  - { offset: 0x42AF50, size: 0x8, addend: 0x0, symName: __ZNK6twitch5OSLog3logENS_3Log5LevelEPKcPc, symObjAddr: 0x6684C, symBinAddr: 0x67CFC, symSize: 0xE4 }
  - { offset: 0x42AF76, size: 0x8, addend: 0x0, symName: __ZZNK6twitch5OSLog3logENS_3Log5LevelEPKcPcE6buffer, symObjAddr: 0x209EB0, symBinAddr: 0x210B98, symSize: 0x0 }
  - { offset: 0x42BDD2, size: 0x8, addend: 0x0, symName: __ZN6twitch5OSLogD1Ev, symObjAddr: 0x66844, symBinAddr: 0x67CF4, symSize: 0x4 }
  - { offset: 0x42BDFB, size: 0x8, addend: 0x0, symName: __ZN6twitch5OSLogD0Ev, symObjAddr: 0x66848, symBinAddr: 0x67CF8, symSize: 0x4 }
  - { offset: 0x42BEA2, size: 0x8, addend: 0x0, symName: __ZN6twitch5OSLog8setLevelENS_3Log5LevelE, symObjAddr: 0x66930, symBinAddr: 0x67DE0, symSize: 0x8 }
  - { offset: 0x42BED7, size: 0x8, addend: 0x0, symName: __ZNK6twitch5OSLog8getLevelEv, symObjAddr: 0x66938, symBinAddr: 0x67DE8, symSize: 0x8 }
  - { offset: 0xB549F1, size: 0x8, addend: 0x0, symName: __ZN6twitch19LocklessPosixSocketD1Ev, symObjAddr: 0x14C6E4, symBinAddr: 0x146888, symSize: 0x4 }
  - { offset: 0xB54AB6, size: 0x8, addend: 0x0, symName: __ZN6twitchL21createDisconnectErrorENS_8NetErrorEiiiRKNSt3__112basic_stringIcNS1_11char_traitsIcEENS1_9allocatorIcEEEE, symObjAddr: 0x14E60C, symBinAddr: 0x148720, symSize: 0x150 }
  - { offset: 0xB59CD3, size: 0x8, addend: 0x0, symName: __ZNSt3__112__destroy_atB8nn180100IN6twitch19LocklessPosixSocket9CandidateELi0EEEvPT_, symObjAddr: 0x14D718, symBinAddr: 0x14782C, symSize: 0x84 }
  - { offset: 0xB5A5F1, size: 0x8, addend: 0x0, symName: __ZNSt3__112construct_atB8nn180100IN6twitch19LocklessPosixSocket9CandidateEJS3_EPS3_EEPT_S6_DpOT0_, symObjAddr: 0x14EE18, symBinAddr: 0x148EA8, symSize: 0xC4 }
  - { offset: 0xB5C533, size: 0x8, addend: 0x0, symName: __ZN6twitch19LocklessPosixSocket12queueConnectEP8addrinfo, symObjAddr: 0x14E024, symBinAddr: 0x148138, symSize: 0x1A0 }
  - { offset: 0xB5D48F, size: 0x8, addend: 0x0, symName: __ZN6twitch19LocklessPosixSocket10runConnectEP8addrinfo, symObjAddr: 0x14D79C, symBinAddr: 0x1478B0, symSize: 0x888 }
  - { offset: 0xB606D5, size: 0x8, addend: 0x0, symName: __ZN6twitch19LocklessPosixSocket12queueConnectEP8addrinfo, symObjAddr: 0x14E024, symBinAddr: 0x148138, symSize: 0x1A0 }
  - { offset: 0xB60978, size: 0x8, addend: 0x0, symName: __ZN6twitch19LocklessPosixSocketD1Ev, symObjAddr: 0x14C6E4, symBinAddr: 0x146888, symSize: 0x4 }
  - { offset: 0xB6099C, size: 0x8, addend: 0x0, symName: __ZN6twitch19LocklessPosixSocketD1Ev, symObjAddr: 0x14C6E4, symBinAddr: 0x146888, symSize: 0x4 }
  - { offset: 0xB609A7, size: 0x8, addend: 0x0, symName: __ZN6twitch19LocklessPosixSocketD2Ev, symObjAddr: 0x14EEDC, symBinAddr: 0x148F6C, symSize: 0x168 }
  - { offset: 0xB6133B, size: 0x8, addend: 0x0, symName: __ZN6twitch19LocklessPosixSocketD0Ev, symObjAddr: 0x14C6E8, symBinAddr: 0x14688C, symSize: 0x14 }
  - { offset: 0xB616C6, size: 0x8, addend: 0x0, symName: __ZN6twitch19LocklessPosixSocket7connectEv, symObjAddr: 0x14C6FC, symBinAddr: 0x1468A0, symSize: 0x3C4 }
  - { offset: 0xB62C97, size: 0x8, addend: 0x0, symName: __ZN6twitch19LocklessPosixSocket10disconnectEv, symObjAddr: 0x14CAC0, symBinAddr: 0x146C64, symSize: 0x90 }
  - { offset: 0xB62DAA, size: 0x8, addend: 0x0, symName: __ZN6twitch19LocklessPosixSocket13closeInflightEv, symObjAddr: 0x14D5B4, symBinAddr: 0x1476C8, symSize: 0x164 }
  - { offset: 0xB63618, size: 0x8, addend: 0x0, symName: __ZN6twitch19LocklessPosixSocket4sendEPKhmRm, symObjAddr: 0x14CB50, symBinAddr: 0x146CF4, symSize: 0x160 }
  - { offset: 0xB63CF2, size: 0x8, addend: 0x0, symName: __ZN6twitch19LocklessPosixSocket4recvEPhmRm, symObjAddr: 0x14CCB0, symBinAddr: 0x146E54, symSize: 0x198 }
  - { offset: 0xB64456, size: 0x8, addend: 0x0, symName: __ZNK6twitch19LocklessPosixSocket10isBlockingEv, symObjAddr: 0x14CE48, symBinAddr: 0x146FEC, symSize: 0x30 }
  - { offset: 0xB644AE, size: 0x8, addend: 0x0, symName: __ZN6twitch19LocklessPosixSocket4peekEv, symObjAddr: 0x14CE78, symBinAddr: 0x14701C, symSize: 0x198 }
  - { offset: 0xB64BC0, size: 0x8, addend: 0x0, symName: __ZNK6twitch19LocklessPosixSocket5getFdEv, symObjAddr: 0x14D010, symBinAddr: 0x1471B4, symSize: 0x30 }
  - { offset: 0xB64C18, size: 0x8, addend: 0x0, symName: __ZN6twitch19LocklessPosixSocket13setEnableIPv6Eb, symObjAddr: 0x14D040, symBinAddr: 0x1471E4, symSize: 0x34 }
  - { offset: 0xB64CA2, size: 0x8, addend: 0x0, symName: __ZN6twitch19LocklessPosixSocket15setStateHandlerEONSt3__18functionIFvRNS_6SocketENS3_5StateERKNS_5ErrorEEEE, symObjAddr: 0x14D074, symBinAddr: 0x147218, symSize: 0x38 }
  - { offset: 0xB64D9A, size: 0x8, addend: 0x0, symName: __ZN6twitch19LocklessPosixSocket15setSendLowWaterEib, symObjAddr: 0x14D0AC, symBinAddr: 0x147250, symSize: 0x1B0 }
  - { offset: 0xB655BF, size: 0x8, addend: 0x0, symName: __ZNK6twitch19LocklessPosixSocket15getSendLowWaterEv, symObjAddr: 0x14D25C, symBinAddr: 0x147400, symSize: 0x30 }
  - { offset: 0xB65652, size: 0x8, addend: 0x0, symName: __ZNK6twitch19LocklessPosixSocket6getRttERi, symObjAddr: 0x14D28C, symBinAddr: 0x147430, symSize: 0xF0 }
  - { offset: 0xB65924, size: 0x8, addend: 0x0, symName: __ZN6twitch19LocklessPosixSocket21pauseWritabilityCheckEv, symObjAddr: 0x14D37C, symBinAddr: 0x147520, symSize: 0x3C }
  - { offset: 0xB659A9, size: 0x8, addend: 0x0, symName: __ZN6twitch19LocklessPosixSocket22resumeWritabilityCheckEv, symObjAddr: 0x14D3B8, symBinAddr: 0x14755C, symSize: 0x3C }
  - { offset: 0xB65A2E, size: 0x8, addend: 0x0, symName: __ZNK6twitch19LocklessPosixSocket14isEcnSupportedEv, symObjAddr: 0x14D3F4, symBinAddr: 0x147598, symSize: 0x84 }
  - { offset: 0xB65AB5, size: 0x8, addend: 0x0, symName: __ZNK6twitch19LocklessPosixSocket6isIPV6Ev, symObjAddr: 0x14D478, symBinAddr: 0x14761C, symSize: 0x30 }
  - { offset: 0xB65B0D, size: 0x8, addend: 0x0, symName: __ZNK6twitch19LocklessPosixSocket32getUnsentPlusUnacknowledgedBytesEv, symObjAddr: 0x14D4A8, symBinAddr: 0x14764C, symSize: 0x30 }
  - { offset: 0xB65B73, size: 0x8, addend: 0x0, symName: __ZN6twitch17PosixSocketHelper32getUnsentPlusUnacknowledgedBytesEi, symObjAddr: 0x14D4D8, symBinAddr: 0x14767C, symSize: 0x4C }
  - { offset: 0xB66942, size: 0x8, addend: 0x0, symName: '__ZNSt3__110__function6__funcIZN6twitch19LocklessPosixSocket12queueConnectEP8addrinfoE3$_0NS_9allocatorIS6_EEFbiEED1Ev', symObjAddr: 0x14E1C4, symBinAddr: 0x1482D8, symSize: 0x4 }
  - { offset: 0xB6696D, size: 0x8, addend: 0x0, symName: '__ZNSt3__110__function6__funcIZN6twitch19LocklessPosixSocket12queueConnectEP8addrinfoE3$_0NS_9allocatorIS6_EEFbiEED0Ev', symObjAddr: 0x14E1C8, symBinAddr: 0x1482DC, symSize: 0x4 }
  - { offset: 0xB66B81, size: 0x8, addend: 0x0, symName: '__ZNKSt3__110__function6__funcIZN6twitch19LocklessPosixSocket12queueConnectEP8addrinfoE3$_0NS_9allocatorIS6_EEFbiEE7__cloneEv', symObjAddr: 0x14E1CC, symBinAddr: 0x1482E0, symSize: 0x38 }
  - { offset: 0xB66ECE, size: 0x8, addend: 0x0, symName: '__ZNKSt3__110__function6__funcIZN6twitch19LocklessPosixSocket12queueConnectEP8addrinfoE3$_0NS_9allocatorIS6_EEFbiEE7__cloneEPNS0_6__baseIS9_EE', symObjAddr: 0x14E204, symBinAddr: 0x148318, symSize: 0x18 }
  - { offset: 0xB66F07, size: 0x8, addend: 0x0, symName: '__ZNKSt3__110__function6__funcIZN6twitch19LocklessPosixSocket12queueConnectEP8addrinfoE3$_0NS_9allocatorIS6_EEFbiEE7__cloneEPNS0_6__baseIS9_EE', symObjAddr: 0x14E204, symBinAddr: 0x148318, symSize: 0x18 }
  - { offset: 0xB66F39, size: 0x8, addend: 0x0, symName: '__ZNKSt3__110__function6__funcIZN6twitch19LocklessPosixSocket12queueConnectEP8addrinfoE3$_0NS_9allocatorIS6_EEFbiEE7__cloneEPNS0_6__baseIS9_EE', symObjAddr: 0x14E204, symBinAddr: 0x148318, symSize: 0x18 }
  - { offset: 0xB67065, size: 0x8, addend: 0x0, symName: '__ZNSt3__110__function6__funcIZN6twitch19LocklessPosixSocket12queueConnectEP8addrinfoE3$_0NS_9allocatorIS6_EEFbiEE7destroyEv', symObjAddr: 0x14E21C, symBinAddr: 0x148330, symSize: 0x4 }
  - { offset: 0xB670B8, size: 0x8, addend: 0x0, symName: '__ZNSt3__110__function6__funcIZN6twitch19LocklessPosixSocket12queueConnectEP8addrinfoE3$_0NS_9allocatorIS6_EEFbiEE18destroy_deallocateEv', symObjAddr: 0x14E220, symBinAddr: 0x148334, symSize: 0x4 }
  - { offset: 0xB670EF, size: 0x8, addend: 0x0, symName: '__ZNSt3__110__function6__funcIZN6twitch19LocklessPosixSocket12queueConnectEP8addrinfoE3$_0NS_9allocatorIS6_EEFbiEE18destroy_deallocateEv', symObjAddr: 0x14E220, symBinAddr: 0x148334, symSize: 0x4 }
  - { offset: 0xB67114, size: 0x8, addend: 0x0, symName: '__ZNSt3__110__function6__funcIZN6twitch19LocklessPosixSocket12queueConnectEP8addrinfoE3$_0NS_9allocatorIS6_EEFbiEE18destroy_deallocateEv', symObjAddr: 0x14E220, symBinAddr: 0x148334, symSize: 0x4 }
  - { offset: 0xB67143, size: 0x8, addend: 0x0, symName: '__ZNSt3__110__function6__funcIZN6twitch19LocklessPosixSocket12queueConnectEP8addrinfoE3$_0NS_9allocatorIS6_EEFbiEE18destroy_deallocateEv', symObjAddr: 0x14E220, symBinAddr: 0x148334, symSize: 0x4 }
  - { offset: 0xB6716C, size: 0x8, addend: 0x0, symName: '__ZNSt3__110__function6__funcIZN6twitch19LocklessPosixSocket12queueConnectEP8addrinfoE3$_0NS_9allocatorIS6_EEFbiEE18destroy_deallocateEv', symObjAddr: 0x14E220, symBinAddr: 0x148334, symSize: 0x4 }
  - { offset: 0xB6721A, size: 0x8, addend: 0x0, symName: '__ZNSt3__110__function6__funcIZN6twitch19LocklessPosixSocket12queueConnectEP8addrinfoE3$_0NS_9allocatorIS6_EEFbiEEclEOi', symObjAddr: 0x14E224, symBinAddr: 0x148338, symSize: 0xC0 }
  - { offset: 0xB67888, size: 0x8, addend: 0x0, symName: '__ZNSt3__110__function6__funcIZN6twitch19LocklessPosixSocket10runConnectEP8addrinfoE3$_0NS_9allocatorIS6_EEFbiEED1Ev', symObjAddr: 0x14E2E4, symBinAddr: 0x1483F8, symSize: 0x4 }
  - { offset: 0xB678B3, size: 0x8, addend: 0x0, symName: '__ZNSt3__110__function6__funcIZN6twitch19LocklessPosixSocket10runConnectEP8addrinfoE3$_0NS_9allocatorIS6_EEFbiEED0Ev', symObjAddr: 0x14E2E8, symBinAddr: 0x1483FC, symSize: 0x4 }
  - { offset: 0xB67AC7, size: 0x8, addend: 0x0, symName: '__ZNKSt3__110__function6__funcIZN6twitch19LocklessPosixSocket10runConnectEP8addrinfoE3$_0NS_9allocatorIS6_EEFbiEE7__cloneEv', symObjAddr: 0x14E2EC, symBinAddr: 0x148400, symSize: 0x38 }
  - { offset: 0xB67E14, size: 0x8, addend: 0x0, symName: '__ZNKSt3__110__function6__funcIZN6twitch19LocklessPosixSocket10runConnectEP8addrinfoE3$_0NS_9allocatorIS6_EEFbiEE7__cloneEPNS0_6__baseIS9_EE', symObjAddr: 0x14E324, symBinAddr: 0x148438, symSize: 0x18 }
  - { offset: 0xB67E4D, size: 0x8, addend: 0x0, symName: '__ZNKSt3__110__function6__funcIZN6twitch19LocklessPosixSocket10runConnectEP8addrinfoE3$_0NS_9allocatorIS6_EEFbiEE7__cloneEPNS0_6__baseIS9_EE', symObjAddr: 0x14E324, symBinAddr: 0x148438, symSize: 0x18 }
  - { offset: 0xB67E7F, size: 0x8, addend: 0x0, symName: '__ZNKSt3__110__function6__funcIZN6twitch19LocklessPosixSocket10runConnectEP8addrinfoE3$_0NS_9allocatorIS6_EEFbiEE7__cloneEPNS0_6__baseIS9_EE', symObjAddr: 0x14E324, symBinAddr: 0x148438, symSize: 0x18 }
  - { offset: 0xB67FAB, size: 0x8, addend: 0x0, symName: '__ZNSt3__110__function6__funcIZN6twitch19LocklessPosixSocket10runConnectEP8addrinfoE3$_0NS_9allocatorIS6_EEFbiEE7destroyEv', symObjAddr: 0x14E33C, symBinAddr: 0x148450, symSize: 0x4 }
  - { offset: 0xB67FFE, size: 0x8, addend: 0x0, symName: '__ZNSt3__110__function6__funcIZN6twitch19LocklessPosixSocket10runConnectEP8addrinfoE3$_0NS_9allocatorIS6_EEFbiEE18destroy_deallocateEv', symObjAddr: 0x14E340, symBinAddr: 0x148454, symSize: 0x4 }
  - { offset: 0xB68035, size: 0x8, addend: 0x0, symName: '__ZNSt3__110__function6__funcIZN6twitch19LocklessPosixSocket10runConnectEP8addrinfoE3$_0NS_9allocatorIS6_EEFbiEE18destroy_deallocateEv', symObjAddr: 0x14E340, symBinAddr: 0x148454, symSize: 0x4 }
  - { offset: 0xB6805A, size: 0x8, addend: 0x0, symName: '__ZNSt3__110__function6__funcIZN6twitch19LocklessPosixSocket10runConnectEP8addrinfoE3$_0NS_9allocatorIS6_EEFbiEE18destroy_deallocateEv', symObjAddr: 0x14E340, symBinAddr: 0x148454, symSize: 0x4 }
  - { offset: 0xB68089, size: 0x8, addend: 0x0, symName: '__ZNSt3__110__function6__funcIZN6twitch19LocklessPosixSocket10runConnectEP8addrinfoE3$_0NS_9allocatorIS6_EEFbiEE18destroy_deallocateEv', symObjAddr: 0x14E340, symBinAddr: 0x148454, symSize: 0x4 }
  - { offset: 0xB680B2, size: 0x8, addend: 0x0, symName: '__ZNSt3__110__function6__funcIZN6twitch19LocklessPosixSocket10runConnectEP8addrinfoE3$_0NS_9allocatorIS6_EEFbiEE18destroy_deallocateEv', symObjAddr: 0x14E340, symBinAddr: 0x148454, symSize: 0x4 }
  - { offset: 0xB682B9, size: 0x8, addend: 0x0, symName: '__ZNSt3__110__function6__funcIZN6twitch19LocklessPosixSocket10runConnectEP8addrinfoE3$_0NS_9allocatorIS6_EEFbiEEclEOi', symObjAddr: 0x14E344, symBinAddr: 0x148458, symSize: 0x2C8 }
  - { offset: 0xB6893A, size: 0x8, addend: 0x0, symName: '__ZZN6twitch19LocklessPosixSocket11handleEventEiiENK3$_0clENS_5ErrorE', symObjAddr: 0x14E75C, symBinAddr: 0x148870, symSize: 0x4A8 }
  - { offset: 0xB6A219, size: 0x8, addend: 0x0, symName: __ZNSt3__16__treeINS_12__value_typeIN6twitch5ErrorEiEENS_19__map_value_compareIS3_S4_NS_4lessIS3_EELb1EEENS_9allocatorIS4_EEE25__emplace_unique_key_argsIS3_JRKNS_21piecewise_construct_tENS_5tupleIJRKS3_EEENSG_IJEEEEEENS_4pairINS_15__tree_iteratorIS4_PNS_11__tree_nodeIS4_PvEElEEbEERKT_DpOT0_, symObjAddr: 0x14EC04, symBinAddr: 0x148D18, symSize: 0xE8 }
  - { offset: 0xB6A6BA, size: 0x8, addend: 0x0, symName: __ZNSt3__16__treeINS_12__value_typeIN6twitch5ErrorEiEENS_19__map_value_compareIS3_S4_NS_4lessIS3_EELb1EEENS_9allocatorIS4_EEE25__emplace_unique_key_argsIS3_JRKNS_21piecewise_construct_tENS_5tupleIJRKS3_EEENSG_IJEEEEEENS_4pairINS_15__tree_iteratorIS4_PNS_11__tree_nodeIS4_PvEElEEbEERKT_DpOT0_, symObjAddr: 0x14EC04, symBinAddr: 0x148D18, symSize: 0xE8 }
  - { offset: 0xB6AAD6, size: 0x8, addend: 0x0, symName: __ZNSt3__16__treeINS_12__value_typeIN6twitch5ErrorEiEENS_19__map_value_compareIS3_S4_NS_4lessIS3_EELb1EEENS_9allocatorIS4_EEE7destroyEPNS_11__tree_nodeIS4_PvEE, symObjAddr: 0x14ECEC, symBinAddr: 0x148E00, symSize: 0x40 }
  - { offset: 0xB6AFC8, size: 0x8, addend: 0x0, symName: __ZNK6twitch5ErrorltERKS0_, symObjAddr: 0x14EDB0, symBinAddr: 0x148E40, symSize: 0x68 }
  - { offset: 0xB6B58F, size: 0x8, addend: 0x0, symName: __ZN6twitch19LocklessPosixSocketC1ERKNSt3__110shared_ptrINS_9EventLoopEEERKNS2_INS_14SchedulerGuardEEENS1_12basic_stringIcNS1_11char_traitsIcEENS1_9allocatorIcEEEEib, symObjAddr: 0x14F0F4, symBinAddr: 0x1490D4, symSize: 0xDC }
  - { offset: 0xA53BC0, size: 0x8, addend: 0x0, symName: _i2r_certpol, symObjAddr: 0x114F84, symBinAddr: 0x110274, symSize: 0x2D4 }
  - { offset: 0xA53BD9, size: 0x8, addend: 0x0, symName: _v3_cpols, symObjAddr: 0x1E9808, symBinAddr: 0x1F6FB0, symSize: 0x0 }
  - { offset: 0xA55384, size: 0x8, addend: 0x0, symName: _CERTIFICATEPOLICIES_it, symObjAddr: 0x1E8288, symBinAddr: 0x1F5A30, symSize: 0x0 }
  - { offset: 0xA55399, size: 0x8, addend: 0x0, symName: _POLICYINFO_it, symObjAddr: 0x1E8338, symBinAddr: 0x1F5AE0, symSize: 0x0 }
  - { offset: 0xA553AE, size: 0x8, addend: 0x0, symName: _POLICYQUALINFO_it, symObjAddr: 0x1E83C0, symBinAddr: 0x1F5B68, symSize: 0x0 }
  - { offset: 0xA553C3, size: 0x8, addend: 0x0, symName: _USERNOTICE_it, symObjAddr: 0x1E8448, symBinAddr: 0x1F5BF0, symSize: 0x0 }
  - { offset: 0xA553D8, size: 0x8, addend: 0x0, symName: _NOTICEREF_it, symObjAddr: 0x1E84D0, symBinAddr: 0x1F5C78, symSize: 0x0 }
  - { offset: 0xA553EE, size: 0x8, addend: 0x0, symName: _CERTIFICATEPOLICIES_item_tt, symObjAddr: 0x1E82C0, symBinAddr: 0x1F5A68, symSize: 0x0 }
  - { offset: 0xA55404, size: 0x8, addend: 0x0, symName: _POLICYINFO_seq_tt, symObjAddr: 0x1E82E8, symBinAddr: 0x1F5A90, symSize: 0x0 }
  - { offset: 0xA5542D, size: 0x8, addend: 0x0, symName: _POLICYQUALINFO_seq_tt, symObjAddr: 0x1E8370, symBinAddr: 0x1F5B18, symSize: 0x0 }
  - { offset: 0xA55443, size: 0x8, addend: 0x0, symName: _POLICYQUALINFO_adb, symObjAddr: 0x1E8508, symBinAddr: 0x1F5CB0, symSize: 0x0 }
  - { offset: 0xA55517, size: 0x8, addend: 0x0, symName: _POLICYQUALINFO_adbtbl, symObjAddr: 0x1E8540, symBinAddr: 0x1F5CE8, symSize: 0x0 }
  - { offset: 0xA55539, size: 0x8, addend: 0x0, symName: _policydefault_tt, symObjAddr: 0x1E85A0, symBinAddr: 0x1F5D48, symSize: 0x0 }
  - { offset: 0xA5554F, size: 0x8, addend: 0x0, symName: _USERNOTICE_seq_tt, symObjAddr: 0x1E83F8, symBinAddr: 0x1F5BA0, symSize: 0x0 }
  - { offset: 0xA55565, size: 0x8, addend: 0x0, symName: _NOTICEREF_seq_tt, symObjAddr: 0x1E8480, symBinAddr: 0x1F5C28, symSize: 0x0 }
  - { offset: 0xA558D7, size: 0x8, addend: 0x0, symName: _i2r_certpol, symObjAddr: 0x114F84, symBinAddr: 0x110274, symSize: 0x2D4 }
  - { offset: 0xA56195, size: 0x8, addend: 0x0, symName: _r2i_certpol, symObjAddr: 0x115258, symBinAddr: 0x110548, symSize: 0xB18 }
  - { offset: 0xA578E9, size: 0x8, addend: 0x0, symName: _POLICYINFO_free, symObjAddr: 0x115D70, symBinAddr: 0x111060, symSize: 0x30 }
  - { offset: 0xBE3B64, size: 0x8, addend: 0x0, symName: __ZN9resampler22PolyphaseResamplerMonoD1Ev, symObjAddr: 0x15A7E0, symBinAddr: 0x154110, symSize: 0x4 }
  - { offset: 0xBE489A, size: 0x8, addend: 0x0, symName: __ZN9resampler22PolyphaseResamplerMonoD1Ev, symObjAddr: 0x15A7E0, symBinAddr: 0x154110, symSize: 0x4 }
  - { offset: 0xBE48BE, size: 0x8, addend: 0x0, symName: __ZN9resampler22PolyphaseResamplerMonoD1Ev, symObjAddr: 0x15A7E0, symBinAddr: 0x154110, symSize: 0x4 }
  - { offset: 0xBE48DB, size: 0x8, addend: 0x0, symName: __ZN9resampler22PolyphaseResamplerMonoD1Ev, symObjAddr: 0x15A7E0, symBinAddr: 0x154110, symSize: 0x4 }
  - { offset: 0xBE48FA, size: 0x8, addend: 0x0, symName: __ZN9resampler22PolyphaseResamplerMonoD1Ev, symObjAddr: 0x15A7E0, symBinAddr: 0x154110, symSize: 0x4 }
  - { offset: 0xBE4921, size: 0x8, addend: 0x0, symName: __ZN9resampler22PolyphaseResamplerMonoD0Ev, symObjAddr: 0x15A7E4, symBinAddr: 0x154114, symSize: 0x14 }
  - { offset: 0xBE49D7, size: 0x8, addend: 0x0, symName: __ZN9resampler22PolyphaseResamplerMono10writeFrameEPKf, symObjAddr: 0x15A7F8, symBinAddr: 0x154128, symSize: 0x38 }
  - { offset: 0xBE4A66, size: 0x8, addend: 0x0, symName: __ZN9resampler22PolyphaseResamplerMono9readFrameEPf, symObjAddr: 0x15A830, symBinAddr: 0x154160, symSize: 0x90 }
  - { offset: 0xD37FDC, size: 0x8, addend: 0x0, symName: __ZN6twitch5Error4NoneE, symObjAddr: 0x34EE578, symBinAddr: 0x212C08, symSize: 0x0 }
  - { offset: 0xD84A9A, size: 0x8, addend: 0x0, symName: __ZNSt3__110shared_ptrIN6twitch3LogEED1B8nn180100Ev, symObjAddr: 0x197040, symBinAddr: 0x18EC80, symSize: 0x4 }
  - { offset: 0xD84ABE, size: 0x8, addend: 0x0, symName: __ZN6twitch5debug5t_logE, symObjAddr: 0x209EC8, symBinAddr: 0x210BB0, symSize: 0x0 }
  - { offset: 0xD84AE7, size: 0x8, addend: 0x0, symName: __ZN6twitch5debug9TraceLogfENS_3Log5LevelEPKcz, symObjAddr: 0x197044, symBinAddr: 0x18EC84, symSize: 0x118 }
  - { offset: 0xD858E9, size: 0x8, addend: 0x0, symName: __ZNSt3__110shared_ptrIN6twitch3LogEED1B8nn180100Ev, symObjAddr: 0x197040, symBinAddr: 0x18EC80, symSize: 0x4 }
  - { offset: 0xD85915, size: 0x8, addend: 0x0, symName: __ZNSt3__110shared_ptrIN6twitch3LogEED1B8nn180100Ev, symObjAddr: 0x197040, symBinAddr: 0x18EC80, symSize: 0x4 }
  - { offset: 0xA69CB2, size: 0x8, addend: 0x0, symName: _i2r_ocsp_acutoff, symObjAddr: 0x11835C, symBinAddr: 0x11364C, symSize: 0x210 }
  - { offset: 0xA69CCB, size: 0x8, addend: 0x0, symName: _v3_crl_invdate, symObjAddr: 0x1E9E90, symBinAddr: 0x1F7638, symSize: 0x0 }
  - { offset: 0xA6B2CE, size: 0x8, addend: 0x0, symName: _v3_ocsp_nocheck, symObjAddr: 0x1E9F30, symBinAddr: 0x1F76D8, symSize: 0x0 }
  - { offset: 0xA6B2EB, size: 0x8, addend: 0x0, symName: _i2r_ocsp_acutoff, symObjAddr: 0x11835C, symBinAddr: 0x11364C, symSize: 0x210 }
  - { offset: 0xA6B40E, size: 0x8, addend: 0x0, symName: _s2i_ocsp_nocheck, symObjAddr: 0x11856C, symBinAddr: 0x11385C, symSize: 0x3C }
  - { offset: 0xA6B4C7, size: 0x8, addend: 0x0, symName: _i2r_ocsp_nocheck, symObjAddr: 0x1185A8, symBinAddr: 0x113898, symSize: 0x8 }
  - { offset: 0xCF3B72, size: 0x8, addend: 0x0, symName: __ZN4bssl13SSLTranscript4InitEv, symObjAddr: 0x180DF4, symBinAddr: 0x1796DC, symSize: 0x58 }
  - { offset: 0xCF3BBE, size: 0x8, addend: 0x0, symName: __ZN4bssl13SSLTranscript14GetFinishedMACEPhPmPK14ssl_session_stb, symObjAddr: 0x18105C, symBinAddr: 0x179944, symSize: 0xD4 }
  - { offset: 0xCF3BE4, size: 0x8, addend: 0x0, symName: __ZZN4bssl13SSLTranscript14GetFinishedMACEPhPmPK14ssl_session_stbE12kClientLabel, symObjAddr: 0x1A3314, symBinAddr: 0x1B868C, symSize: 0x0 }
  - { offset: 0xCF3BFA, size: 0x8, addend: 0x0, symName: __ZZN4bssl13SSLTranscript14GetFinishedMACEPhPmPK14ssl_session_stbE12kServerLabel, symObjAddr: 0x1A3324, symBinAddr: 0x1B869C, symSize: 0x0 }
  - { offset: 0xCF49C1, size: 0x8, addend: 0x0, symName: __ZN4bssl13SSLTranscript4InitEv, symObjAddr: 0x180DF4, symBinAddr: 0x1796DC, symSize: 0x58 }
  - { offset: 0xCF4B1A, size: 0x8, addend: 0x0, symName: __ZN4bssl13SSLTranscript8InitHashEtPK13ssl_cipher_st, symObjAddr: 0x180E4C, symBinAddr: 0x179734, symSize: 0x64 }
  - { offset: 0xCF4C15, size: 0x8, addend: 0x0, symName: __ZN4bssl13SSLTranscript26UpdateForHelloRetryRequestEv, symObjAddr: 0x180EB0, symBinAddr: 0x179798, symSize: 0xB8 }
  - { offset: 0xCF4CF5, size: 0x8, addend: 0x0, symName: __ZN4bssl13SSLTranscript7GetHashEPhPm, symObjAddr: 0x180F68, symBinAddr: 0x179850, symSize: 0x90 }
  - { offset: 0xCF4EB9, size: 0x8, addend: 0x0, symName: __ZN4bssl13SSLTranscript6UpdateENS_4SpanIKhEE, symObjAddr: 0x180FF8, symBinAddr: 0x1798E0, symSize: 0x64 }
  - { offset: 0xA35739, size: 0x8, addend: 0x0, symName: _X509_NAME_get_index_by_NID, symObjAddr: 0x110A30, symBinAddr: 0x10BD20, symSize: 0x9C }
  - { offset: 0xA35A31, size: 0x8, addend: 0x0, symName: _X509_NAME_get_index_by_NID, symObjAddr: 0x110A30, symBinAddr: 0x10BD20, symSize: 0x9C }
  - { offset: 0xA35BA0, size: 0x8, addend: 0x0, symName: _X509_NAME_add_entry, symObjAddr: 0x110ACC, symBinAddr: 0x10BDBC, symSize: 0x16C }
  - { offset: 0xA2439C, size: 0x8, addend: 0x0, symName: _x509_object_cmp, symObjAddr: 0x10B9B8, symBinAddr: 0x106CA8, symSize: 0x74 }
  - { offset: 0xA25C04, size: 0x8, addend: 0x0, symName: _x509_object_cmp, symObjAddr: 0x10B9B8, symBinAddr: 0x106CA8, symSize: 0x74 }
  - { offset: 0xA25D9F, size: 0x8, addend: 0x0, symName: _X509_STORE_free, symObjAddr: 0x10BA2C, symBinAddr: 0x106D1C, symSize: 0x1E0 }
  - { offset: 0xA26431, size: 0x8, addend: 0x0, symName: _X509_STORE_get_by_subject, symObjAddr: 0x10BC0C, symBinAddr: 0x106EFC, symSize: 0x140 }
  - { offset: 0xA266DA, size: 0x8, addend: 0x0, symName: _X509_OBJECT_up_ref_count, symObjAddr: 0x10BD4C, symBinAddr: 0x10703C, symSize: 0x24 }
  - { offset: 0xA266E5, size: 0x8, addend: 0x0, symName: _x509_object_idx_cnt, symObjAddr: 0x10BD70, symBinAddr: 0x107060, symSize: 0x148 }
  - { offset: 0xA268DA, size: 0x8, addend: 0x0, symName: _X509_OBJECT_up_ref_count, symObjAddr: 0x10BD4C, symBinAddr: 0x10703C, symSize: 0x24 }
  - { offset: 0xA2697E, size: 0x8, addend: 0x0, symName: _sk_X509_OBJECT_call_cmp_func.5678, symObjAddr: 0x10BEB8, symBinAddr: 0x1071A8, symSize: 0x34 }
  - { offset: 0xA269F5, size: 0x8, addend: 0x0, symName: _X509_OBJECT_free_contents, symObjAddr: 0x10BEEC, symBinAddr: 0x1071DC, symSize: 0x50 }
  - { offset: 0xA26B46, size: 0x8, addend: 0x0, symName: _X509_STORE_get1_certs, symObjAddr: 0x10BF3C, symBinAddr: 0x10722C, symSize: 0x1FC }
  - { offset: 0xA27098, size: 0x8, addend: 0x0, symName: _X509_STORE_get1_crls, symObjAddr: 0x10C138, symBinAddr: 0x107428, symSize: 0x1D8 }
  - { offset: 0xA27140, size: 0x8, addend: 0x0, symName: _X509_STORE_get1_crls, symObjAddr: 0x10C138, symBinAddr: 0x107428, symSize: 0x1D8 }
  - { offset: 0xA27673, size: 0x8, addend: 0x0, symName: _X509_STORE_CTX_get1_issuer, symObjAddr: 0x10C310, symBinAddr: 0x107600, symSize: 0x174 }
  - { offset: 0xA2767E, size: 0x8, addend: 0x0, symName: _X509_STORE_CTX_get1_issuer, symObjAddr: 0x10C310, symBinAddr: 0x107600, symSize: 0x174 }
  - { offset: 0xA278ED, size: 0x8, addend: 0x0, symName: _obj_trust, symObjAddr: 0x10C484, symBinAddr: 0x107774, symSize: 0xE8 }
  - { offset: 0xCF5110, size: 0x8, addend: 0x0, symName: __ZN4bsslL13kDTLSVersionsE, symObjAddr: 0x1A3354, symBinAddr: 0x1B86CC, symSize: 0x0 }
  - { offset: 0xCF512A, size: 0x8, addend: 0x0, symName: __ZN4bsslL12kTLSVersionsE, symObjAddr: 0x1A3358, symBinAddr: 0x1B86D0, symSize: 0x0 }
  - { offset: 0xCF5144, size: 0x8, addend: 0x0, symName: __ZN4bsslL17kProtocolVersionsE, symObjAddr: 0x1A3334, symBinAddr: 0x1B86AC, symSize: 0x0 }
  - { offset: 0xCF52F6, size: 0x8, addend: 0x0, symName: __ZN4bssl20ssl_supports_versionEPNS_13SSL_HANDSHAKEEt, symObjAddr: 0x181174, symBinAddr: 0x179A18, symSize: 0xA4 }
  - { offset: 0xCF5400, size: 0x8, addend: 0x0, symName: __ZN4bsslL17set_version_boundEPKNS_19SSL_PROTOCOL_METHODEPtt, symObjAddr: 0x181218, symBinAddr: 0x179ABC, symSize: 0x9C }
  - { offset: 0xCF6123, size: 0x8, addend: 0x0, symName: _SSL_version, symObjAddr: 0x1812B4, symBinAddr: 0x179B58, symSize: 0x34 }
  - { offset: 0xCF6153, size: 0x8, addend: 0x0, symName: _SSL_version, symObjAddr: 0x1812B4, symBinAddr: 0x179B58, symSize: 0x34 }
  - { offset: 0xCF6171, size: 0x8, addend: 0x0, symName: _SSL_version, symObjAddr: 0x1812B4, symBinAddr: 0x179B58, symSize: 0x34 }
